---
triple:          'arm64-apple-darwin'
binary-path:     '/Users/seunghyun/Documents/experience/24-1R/testing/rust-cov/target/debug/deps/libserde_derive-6d84d14cf8302913.dylib'
relocations:
  - { offsetInCU: 0x1E, offset: 0x1E, size: 0x8, addend: 0x0, symName: __RNvXs1_NtNtNtCs5fsojcNSbun_4core3ops8function5implsQNCNvNtCs39Y7jx17GSw_12serde_derive2de15deserialize_maps1_0INtB7_5FnMutTRRTRNtNtNtBU_9internals3ast5FieldNtCs5CKmLD4IrHZ_11proc_macro25IdentEEE8call_mutBU_, symObjAddr: 0x0, symBinAddr: 0xD88, symSize: 0x30 }
  - { offsetInCU: 0x25A, offset: 0x25A, size: 0x8, addend: 0x0, symName: __RNvXs1_NtNtNtCs5fsojcNSbun_4core3ops8function5implsQNCNvNtCs39Y7jx17GSw_12serde_derive2de15deserialize_maps1_0INtB7_5FnMutTRRTRNtNtNtBU_9internals3ast5FieldNtCs5CKmLD4IrHZ_11proc_macro25IdentEEE8call_mutBU_, symObjAddr: 0x0, symBinAddr: 0xD88, symSize: 0x30 }
  - { offsetInCU: 0x2A9, offset: 0x2A9, size: 0x8, addend: 0x0, symName: __RNvXs1_NtNtNtCs5fsojcNSbun_4core3ops8function5implsQNCNvNtCs39Y7jx17GSw_12serde_derive2de15deserialize_maps4_0INtB7_5FnMutTRRTRNtNtNtBU_9internals3ast5FieldNtCs5CKmLD4IrHZ_11proc_macro25IdentEEE8call_mutBU_, symObjAddr: 0x30, symBinAddr: 0xDB8, symSize: 0x30 }
  - { offsetInCU: 0x2F8, offset: 0x2F8, size: 0x8, addend: 0x0, symName: __RNvXs1_NtNtNtCs5fsojcNSbun_4core3ops8function5implsQNCNvNtCs39Y7jx17GSw_12serde_derive2de15deserialize_maps6_0INtB7_5FnMutTRRTRNtNtNtBU_9internals3ast5FieldNtCs5CKmLD4IrHZ_11proc_macro25IdentEEE8call_mutBU_, symObjAddr: 0x60, symBinAddr: 0xDE8, symSize: 0x30 }
  - { offsetInCU: 0x347, offset: 0x347, size: 0x8, addend: 0x0, symName: __RNvXs1_NtNtNtCs5fsojcNSbun_4core3ops8function5implsQNCNvNtCs39Y7jx17GSw_12serde_derive2de15deserialize_maps_0INtB7_5FnMutTRRTRNtNtNtBU_9internals3ast5FieldNtCs5CKmLD4IrHZ_11proc_macro25IdentEEE8call_mutBU_, symObjAddr: 0x90, symBinAddr: 0xE18, symSize: 0x30 }
  - { offsetInCU: 0x396, offset: 0x396, size: 0x8, addend: 0x0, symName: __RNvXs1_NtNtNtCs5fsojcNSbun_4core3ops8function5implsQNCNvNtCs39Y7jx17GSw_12serde_derive2de18deserialize_struct0INtB7_5FnMutTRTjRNtNtNtBU_9internals3ast5FieldEEE8call_mutBU_, symObjAddr: 0xC0, symBinAddr: 0xE48, symSize: 0x30 }
  - { offsetInCU: 0x3E5, offset: 0x3E5, size: 0x8, addend: 0x0, symName: __RNvXs1_NtNtNtCs5fsojcNSbun_4core3ops8function5implsQNCNvNtCs39Y7jx17GSw_12serde_derive2de25prepare_enum_variant_enum0INtB7_5FnMutTRTjRNtNtNtBU_9internals3ast7VariantEEE8call_mutBU_, symObjAddr: 0xF0, symBinAddr: 0xE78, symSize: 0x30 }
  - { offsetInCU: 0x434, offset: 0x434, size: 0x8, addend: 0x0, symName: __RNvXs1_NtNtNtCs5fsojcNSbun_4core3ops8function5implsQNCNvNtCs39Y7jx17GSw_12serde_derive2de31deserialize_untagged_enum_after0INtB7_5FnMutTRRNtNtNtBU_9internals3ast7VariantEE8call_mutBU_, symObjAddr: 0x120, symBinAddr: 0xEA8, symSize: 0x30 }
  - { offsetInCU: 0x483, offset: 0x483, size: 0x8, addend: 0x0, symName: __RNvXs1_NtNtNtCs5fsojcNSbun_4core3ops8function5implsQNCNvNtCs39Y7jx17GSw_12serde_derive2de34deserialize_adjacently_tagged_enum0INtB7_5FnMutTRTjRNtNtNtBU_9internals3ast7VariantEEE8call_mutBU_, symObjAddr: 0x150, symBinAddr: 0xED8, symSize: 0x30 }
  - { offsetInCU: 0x4D2, offset: 0x4D2, size: 0x8, addend: 0x0, symName: __RNvXs1_NtNtNtCs5fsojcNSbun_4core3ops8function5implsQNCNvNtCs39Y7jx17GSw_12serde_derive2de34deserialize_adjacently_tagged_enums1_0INtB7_5FnMutTTjRNtNtNtBU_9internals3ast7VariantEEE8call_mutBU_, symObjAddr: 0x180, symBinAddr: 0xF08, symSize: 0x38 }
  - { offsetInCU: 0x521, offset: 0x521, size: 0x8, addend: 0x0, symName: __RNvXs1_NtNtNtCs5fsojcNSbun_4core3ops8function5implsQNCNvNtCs39Y7jx17GSw_12serde_derive2de34deserialize_externally_tagged_enum0INtB7_5FnMutTRTjRNtNtNtBU_9internals3ast7VariantEEE8call_mutBU_, symObjAddr: 0x1B8, symBinAddr: 0xF40, symSize: 0x30 }
  - { offsetInCU: 0x570, offset: 0x570, size: 0x8, addend: 0x0, symName: __RNvXs1_NtNtNtCs5fsojcNSbun_4core3ops8function5implsQNCNvNtCs39Y7jx17GSw_12serde_derive2de34deserialize_internally_tagged_enum0INtB7_5FnMutTRTjRNtNtNtBU_9internals3ast7VariantEEE8call_mutBU_, symObjAddr: 0x1E8, symBinAddr: 0xF70, symSize: 0x30 }
  - { offsetInCU: 0x5C5, offset: 0x5C5, size: 0x8, addend: 0x0, symName: __RNvXs2_NtNtNtCs5fsojcNSbun_4core3ops8function5implsQNCNCNvNtCs39Y7jx17GSw_12serde_derive2de22deserialize_identifiers_00INtB7_6FnOnceTRNtNtCsltZDfVD1VKL_5alloc6string6StringEE9call_onceBW_, symObjAddr: 0x218, symBinAddr: 0xFA0, symSize: 0x2C }
  - { offsetInCU: 0x614, offset: 0x614, size: 0x8, addend: 0x0, symName: __RNvXs2_NtNtNtCs5fsojcNSbun_4core3ops8function5implsQNCNvNtCs39Y7jx17GSw_12serde_derive2de15deserialize_maps0_0INtB7_6FnOnceTRTRNtNtNtBU_9internals3ast5FieldNtCs5CKmLD4IrHZ_11proc_macro25IdentEEE9call_onceBU_, symObjAddr: 0x244, symBinAddr: 0xFCC, symSize: 0x2C }
  - { offsetInCU: 0x663, offset: 0x663, size: 0x8, addend: 0x0, symName: __RNvXs2_NtNtNtCs5fsojcNSbun_4core3ops8function5implsQNCNvNtCs39Y7jx17GSw_12serde_derive2de15deserialize_maps2_0INtB7_6FnOnceTRTRNtNtNtBU_9internals3ast5FieldNtCs5CKmLD4IrHZ_11proc_macro25IdentEEE9call_onceBU_, symObjAddr: 0x270, symBinAddr: 0xFF8, symSize: 0x2C }
  - { offsetInCU: 0x6B2, offset: 0x6B2, size: 0x8, addend: 0x0, symName: __RNvXs2_NtNtNtCs5fsojcNSbun_4core3ops8function5implsQNCNvNtCs39Y7jx17GSw_12serde_derive2de15deserialize_maps5_0INtB7_6FnOnceTRTRNtNtNtBU_9internals3ast5FieldNtCs5CKmLD4IrHZ_11proc_macro25IdentEEE9call_onceBU_, symObjAddr: 0x29C, symBinAddr: 0x1024, symSize: 0x2C }
  - { offsetInCU: 0x701, offset: 0x701, size: 0x8, addend: 0x0, symName: __RNvXs2_NtNtNtCs5fsojcNSbun_4core3ops8function5implsQNCNvNtCs39Y7jx17GSw_12serde_derive2de15deserialize_maps7_0INtB7_6FnOnceTRTRNtNtNtBU_9internals3ast5FieldNtCs5CKmLD4IrHZ_11proc_macro25IdentEEE9call_onceBU_, symObjAddr: 0x2C8, symBinAddr: 0x1050, symSize: 0x2C }
  - { offsetInCU: 0x750, offset: 0x750, size: 0x8, addend: 0x0, symName: __RNvXs2_NtNtNtCs5fsojcNSbun_4core3ops8function5implsQNCNvNtCs39Y7jx17GSw_12serde_derive2de15deserialize_maps8_0INtB7_6FnOnceTRTRNtNtNtBU_9internals3ast5FieldNtCs5CKmLD4IrHZ_11proc_macro25IdentEEE9call_onceBU_, symObjAddr: 0x2F4, symBinAddr: 0x107C, symSize: 0x2C }
  - { offsetInCU: 0x79F, offset: 0x79F, size: 0x8, addend: 0x0, symName: __RNvXs2_NtNtNtCs5fsojcNSbun_4core3ops8function5implsQNCNvNtCs39Y7jx17GSw_12serde_derive2de15deserialize_seqs0_0INtB7_6FnOnceTRNtNtNtBU_9internals3ast5FieldEE9call_onceBU_, symObjAddr: 0x320, symBinAddr: 0x10A8, symSize: 0x2C }
  - { offsetInCU: 0x7EE, offset: 0x7EE, size: 0x8, addend: 0x0, symName: __RNvXs2_NtNtNtCs5fsojcNSbun_4core3ops8function5implsQNCNvNtCs39Y7jx17GSw_12serde_derive2de15deserialize_seqs_0INtB7_6FnOnceTTNtCs5CKmLD4IrHZ_11proc_macro25IdentRNtNtNtBU_9internals3ast5FieldEEE9call_onceBU_, symObjAddr: 0x34C, symBinAddr: 0x10D4, symSize: 0x4C }
  - { offsetInCU: 0x83D, offset: 0x83D, size: 0x8, addend: 0x0, symName: __RNvXs2_NtNtNtCs5fsojcNSbun_4core3ops8function5implsQNCNvNtCs39Y7jx17GSw_12serde_derive2de18deserialize_structs0_0INtB7_6FnOnceTRTReNtCs5CKmLD4IrHZ_11proc_macro25IdentRINtNtNtNtCsltZDfVD1VKL_5alloc11collections5btree3set8BTreeSetNtNtB2O_6string6StringEEEE9call_onceBU_, symObjAddr: 0x398, symBinAddr: 0x1120, symSize: 0x2C }
  - { offsetInCU: 0x88C, offset: 0x88C, size: 0x8, addend: 0x0, symName: __RNvXs2_NtNtNtCs5fsojcNSbun_4core3ops8function5implsQNCNvNtCs39Y7jx17GSw_12serde_derive2de18deserialize_structs_0INtB7_6FnOnceTTjRNtNtNtBU_9internals3ast5FieldEEE9call_onceBU_, symObjAddr: 0x3C4, symBinAddr: 0x114C, symSize: 0x34 }
  - { offsetInCU: 0x8DB, offset: 0x8DB, size: 0x8, addend: 0x0, symName: __RNvXs2_NtNtNtCs5fsojcNSbun_4core3ops8function5implsQNCNvNtCs39Y7jx17GSw_12serde_derive2de22deserialize_identifier0INtB7_6FnOnceTRTReNtCs5CKmLD4IrHZ_11proc_macro25IdentRINtNtNtNtCsltZDfVD1VKL_5alloc11collections5btree3set8BTreeSetNtNtB2P_6string6StringEEEE9call_onceBU_, symObjAddr: 0x3F8, symBinAddr: 0x1180, symSize: 0x2C }
  - { offsetInCU: 0x92A, offset: 0x92A, size: 0x8, addend: 0x0, symName: __RNvXs2_NtNtNtCs5fsojcNSbun_4core3ops8function5implsQNCNvNtCs39Y7jx17GSw_12serde_derive2de22deserialize_identifiers0_0INtB7_6FnOnceTTjRTReNtCs5CKmLD4IrHZ_11proc_macro25IdentRINtNtNtNtCsltZDfVD1VKL_5alloc11collections5btree3set8BTreeSetNtNtB2U_6string6StringEEEEE9call_onceBU_, symObjAddr: 0x424, symBinAddr: 0x11AC, symSize: 0x34 }
  - { offsetInCU: 0x979, offset: 0x979, size: 0x8, addend: 0x0, symName: __RNvXs2_NtNtNtCs5fsojcNSbun_4core3ops8function5implsQNCNvNtCs39Y7jx17GSw_12serde_derive2de22deserialize_identifiers_0INtB7_6FnOnceTRTReNtCs5CKmLD4IrHZ_11proc_macro25IdentRINtNtNtNtCsltZDfVD1VKL_5alloc11collections5btree3set8BTreeSetNtNtB2R_6string6StringEEEE9call_onceBU_, symObjAddr: 0x458, symBinAddr: 0x11E0, symSize: 0x2C }
  - { offsetInCU: 0x9C8, offset: 0x9C8, size: 0x8, addend: 0x0, symName: __RNvXs2_NtNtNtCs5fsojcNSbun_4core3ops8function5implsQNCNvNtCs39Y7jx17GSw_12serde_derive2de23deserialize_transparents_0INtB7_6FnOnceTRNtNtNtBU_9internals3ast5FieldEE9call_onceBU_, symObjAddr: 0x484, symBinAddr: 0x120C, symSize: 0x2C }
  - { offsetInCU: 0xA17, offset: 0xA17, size: 0x8, addend: 0x0, symName: __RNvXs2_NtNtNtCs5fsojcNSbun_4core3ops8function5implsQNCNvNtCs39Y7jx17GSw_12serde_derive2de25prepare_enum_variant_enums2_0INtB7_6FnOnceTRTReNtCs5CKmLD4IrHZ_11proc_macro25IdentRINtNtNtNtCsltZDfVD1VKL_5alloc11collections5btree3set8BTreeSetNtNtB2V_6string6StringEEEE9call_onceBU_, symObjAddr: 0x4B0, symBinAddr: 0x1238, symSize: 0x2C }
  - { offsetInCU: 0xA66, offset: 0xA66, size: 0x8, addend: 0x0, symName: __RNvXs2_NtNtNtCs5fsojcNSbun_4core3ops8function5implsQNCNvNtCs39Y7jx17GSw_12serde_derive2de25prepare_enum_variant_enums_0INtB7_6FnOnceTTjRNtNtNtBU_9internals3ast7VariantEEE9call_onceBU_, symObjAddr: 0x4DC, symBinAddr: 0x1264, symSize: 0x34 }
  - { offsetInCU: 0xAB5, offset: 0xAB5, size: 0x8, addend: 0x0, symName: __RNvXs2_NtNtNtCs5fsojcNSbun_4core3ops8function5implsQNCNvNtCs39Y7jx17GSw_12serde_derive2de25unwrap_to_variant_closure0INtB7_6FnOnceTRNtNtNtBU_9internals3ast5FieldEE9call_onceBU_, symObjAddr: 0x510, symBinAddr: 0x1298, symSize: 0x2C }
  - { offsetInCU: 0xB04, offset: 0xB04, size: 0x8, addend: 0x0, symName: __RNvXs2_NtNtNtCs5fsojcNSbun_4core3ops8function5implsQNCNvNtCs39Y7jx17GSw_12serde_derive2de25unwrap_to_variant_closures0_0INtB7_6FnOnceTRNtNtNtBU_9internals3ast5FieldEE9call_onceBU_, symObjAddr: 0x53C, symBinAddr: 0x12C4, symSize: 0x2C }
  - { offsetInCU: 0xB53, offset: 0xB53, size: 0x8, addend: 0x0, symName: __RNvXs2_NtNtNtCs5fsojcNSbun_4core3ops8function5implsQNCNvNtCs39Y7jx17GSw_12serde_derive2de25unwrap_to_variant_closures_0INtB7_6FnOnceTjEE9call_onceBU_, symObjAddr: 0x568, symBinAddr: 0x12F0, symSize: 0x2C }
  - { offsetInCU: 0xBA2, offset: 0xBA2, size: 0x8, addend: 0x0, symName: __RNvXs2_NtNtNtCs5fsojcNSbun_4core3ops8function5implsQNCNvNtCs39Y7jx17GSw_12serde_derive2de29deserialize_custom_identifiers0_0INtB7_6FnOnceTRTReNtCs5CKmLD4IrHZ_11proc_macro25IdentRINtNtNtNtCsltZDfVD1VKL_5alloc11collections5btree3set8BTreeSetNtNtB2Z_6string6StringEEEE9call_onceBU_, symObjAddr: 0x594, symBinAddr: 0x131C, symSize: 0x2C }
  - { offsetInCU: 0xBF1, offset: 0xBF1, size: 0x8, addend: 0x0, symName: __RNvXs2_NtNtNtCs5fsojcNSbun_4core3ops8function5implsQNCNvNtCs39Y7jx17GSw_12serde_derive2de29wrap_deserialize_variant_with0INtB7_6FnOnceTRNtNtNtBU_9internals3ast5FieldEE9call_onceBU_, symObjAddr: 0x5C0, symBinAddr: 0x1348, symSize: 0x2C }
  - { offsetInCU: 0xC40, offset: 0xC40, size: 0x8, addend: 0x0, symName: __RNvXs2_NtNtNtCs5fsojcNSbun_4core3ops8function5implsQNCNvNtCs39Y7jx17GSw_12serde_derive2de31deserialize_untagged_enum_afters_0INtB7_6FnOnceTRNtNtNtBU_9internals3ast7VariantEE9call_onceBU_, symObjAddr: 0x5EC, symBinAddr: 0x1374, symSize: 0x2C }
  - { offsetInCU: 0xC8F, offset: 0xC8F, size: 0x8, addend: 0x0, symName: __RNvXs2_NtNtNtCs5fsojcNSbun_4core3ops8function5implsQNCNvNtCs39Y7jx17GSw_12serde_derive2de34deserialize_adjacently_tagged_enums_0INtB7_6FnOnceTTjRNtNtNtBU_9internals3ast7VariantEEE9call_onceBU_, symObjAddr: 0x618, symBinAddr: 0x13A0, symSize: 0x34 }
  - { offsetInCU: 0xCDE, offset: 0xCDE, size: 0x8, addend: 0x0, symName: __RNvXs2_NtNtNtCs5fsojcNSbun_4core3ops8function5implsQNCNvNtCs39Y7jx17GSw_12serde_derive2de34deserialize_externally_tagged_enums_0INtB7_6FnOnceTTjRNtNtNtBU_9internals3ast7VariantEEE9call_onceBU_, symObjAddr: 0x64C, symBinAddr: 0x13D4, symSize: 0x34 }
  - { offsetInCU: 0xD2D, offset: 0xD2D, size: 0x8, addend: 0x0, symName: __RNvXs2_NtNtNtCs5fsojcNSbun_4core3ops8function5implsQNCNvNtCs39Y7jx17GSw_12serde_derive2de34deserialize_internally_tagged_enums_0INtB7_6FnOnceTTjRNtNtNtBU_9internals3ast7VariantEEE9call_onceBU_, symObjAddr: 0x680, symBinAddr: 0x1408, symSize: 0x34 }
  - { offsetInCU: 0x5294, offset: 0x5294, size: 0x8, addend: 0x0, symName: __RNvNtCs39Y7jx17GSw_12serde_derive2de25expand_derive_deserialize, symObjAddr: 0x874, symBinAddr: 0x15FC, symSize: 0x115C }
  - { offsetInCU: 0x551D, offset: 0x551D, size: 0x8, addend: 0x0, symName: __RNvNtCs39Y7jx17GSw_12serde_derive2de12precondition, symObjAddr: 0x19D0, symBinAddr: 0x2758, symSize: 0x50 }
  - { offsetInCU: 0x5553, offset: 0x5553, size: 0x8, addend: 0x0, symName: __RNvNtCs39Y7jx17GSw_12serde_derive2de18precondition_sized, symObjAddr: 0x1A20, symBinAddr: 0x27A8, symSize: 0x13C }
  - { offsetInCU: 0x55B3, offset: 0x55B3, size: 0x8, addend: 0x0, symName: __RNvNtCs39Y7jx17GSw_12serde_derive2de27precondition_no_de_lifetime, symObjAddr: 0x1B5C, symBinAddr: 0x28E4, symSize: 0x25C }
  - { offsetInCU: 0x5715, offset: 0x5715, size: 0x8, addend: 0x0, symName: __RNvNtCs39Y7jx17GSw_12serde_derive2de14build_generics, symObjAddr: 0x2064, symBinAddr: 0x2DEC, symSize: 0x60C }
  - { offsetInCU: 0x5832, offset: 0x5832, size: 0x8, addend: 0x0, symName: __RNvNtCs39Y7jx17GSw_12serde_derive2de23needs_deserialize_bound, symObjAddr: 0x2670, symBinAddr: 0x33F8, symSize: 0x110 }
  - { offsetInCU: 0x5871, offset: 0x5871, size: 0x8, addend: 0x0, symName: __RNCNvNtCs39Y7jx17GSw_12serde_derive2de23needs_deserialize_bound0B5_, symObjAddr: 0x2780, symBinAddr: 0x3508, symSize: 0xD8 }
  - { offsetInCU: 0x58AF, offset: 0x58AF, size: 0x8, addend: 0x0, symName: __RNvNtCs39Y7jx17GSw_12serde_derive2de16requires_default, symObjAddr: 0x2858, symBinAddr: 0x35E0, symSize: 0x8C }
  - { offsetInCU: 0x58E9, offset: 0x58E9, size: 0x8, addend: 0x0, symName: __RNvNtCs39Y7jx17GSw_12serde_derive2de18borrowed_lifetimes, symObjAddr: 0x2B08, symBinAddr: 0x3890, symSize: 0x260 }
  - { offsetInCU: 0x5960, offset: 0x5960, size: 0x8, addend: 0x0, symName: __RNCNvNtCs39Y7jx17GSw_12serde_derive2de18borrowed_lifetimes0B5_, symObjAddr: 0x2D68, symBinAddr: 0x3AF0, symSize: 0x94 }
  - { offsetInCU: 0x59A1, offset: 0x59A1, size: 0x8, addend: 0x0, symName: __RNvNtCs39Y7jx17GSw_12serde_derive2de16deserialize_body, symObjAddr: 0x2DFC, symBinAddr: 0x3B84, symSize: 0x368 }
  - { offsetInCU: 0x5A84, offset: 0x5A84, size: 0x8, addend: 0x0, symName: __RNvNtCs39Y7jx17GSw_12serde_derive2de25deserialize_in_place_body, symObjAddr: 0x3164, symBinAddr: 0x3EEC, symSize: 0x30 }
  - { offsetInCU: 0x5AC1, offset: 0x5AC1, size: 0x8, addend: 0x0, symName: __RNvNtCs39Y7jx17GSw_12serde_derive2de23deserialize_transparent, symObjAddr: 0x3194, symBinAddr: 0x3F1C, symSize: 0x734 }
  - { offsetInCU: 0x5CFE, offset: 0x5CFE, size: 0x8, addend: 0x0, symName: __RNCNvNtCs39Y7jx17GSw_12serde_derive2de23deserialize_transparent0B5_, symObjAddr: 0x38C8, symBinAddr: 0x4650, symSize: 0x3C }
  - { offsetInCU: 0x5D37, offset: 0x5D37, size: 0x8, addend: 0x0, symName: __RNCNvNtCs39Y7jx17GSw_12serde_derive2de23deserialize_transparents_0B5_, symObjAddr: 0x3904, symBinAddr: 0x468C, symSize: 0x440 }
  - { offsetInCU: 0x5E4A, offset: 0x5E4A, size: 0x8, addend: 0x0, symName: __RNvNtCs39Y7jx17GSw_12serde_derive2de16deserialize_from, symObjAddr: 0x3D44, symBinAddr: 0x4ACC, symSize: 0x344 }
  - { offsetInCU: 0x5EB9, offset: 0x5EB9, size: 0x8, addend: 0x0, symName: __RNvNtCs39Y7jx17GSw_12serde_derive2de20deserialize_try_from, symObjAddr: 0x4088, symBinAddr: 0x4E10, symSize: 0x4F8 }
  - { offsetInCU: 0x5F54, offset: 0x5F54, size: 0x8, addend: 0x0, symName: __RNvNtCs39Y7jx17GSw_12serde_derive2de23deserialize_unit_struct, symObjAddr: 0x4580, symBinAddr: 0x5308, symSize: 0x1320 }
  - { offsetInCU: 0x6223, offset: 0x6223, size: 0x8, addend: 0x0, symName: __RNvNtCs39Y7jx17GSw_12serde_derive2de17deserialize_tuple, symObjAddr: 0x58A0, symBinAddr: 0x6628, symSize: 0x2030 }
  - { offsetInCU: 0x6834, offset: 0x6834, size: 0x8, addend: 0x0, symName: __RNCNvNtCs39Y7jx17GSw_12serde_derive2de17deserialize_tuple0B5_, symObjAddr: 0x78D0, symBinAddr: 0x8658, symSize: 0x40 }
  - { offsetInCU: 0x6875, offset: 0x6875, size: 0x8, addend: 0x0, symName: __RNvNtCs39Y7jx17GSw_12serde_derive2de15deserialize_seq, symObjAddr: 0x7910, symBinAddr: 0x8698, symSize: 0x10D4 }
  - { offsetInCU: 0x6E6B, offset: 0x6E6B, size: 0x8, addend: 0x0, symName: __RNCNvNtCs39Y7jx17GSw_12serde_derive2de15deserialize_seq0B5_, symObjAddr: 0x89E4, symBinAddr: 0x976C, symSize: 0x40 }
  - { offsetInCU: 0x6EA4, offset: 0x6EA4, size: 0x8, addend: 0x0, symName: __RNCNvNtCs39Y7jx17GSw_12serde_derive2de15deserialize_seqs_0B5_, symObjAddr: 0x8A24, symBinAddr: 0x97AC, symSize: 0xC40 }
  - { offsetInCU: 0x7143, offset: 0x7143, size: 0x8, addend: 0x0, symName: __RNCNvNtCs39Y7jx17GSw_12serde_derive2de15deserialize_seqs0_0B5_, symObjAddr: 0x9664, symBinAddr: 0xA3EC, symSize: 0x28 }
  - { offsetInCU: 0x71BF, offset: 0x71BF, size: 0x8, addend: 0x0, symName: __RNvNtCs39Y7jx17GSw_12serde_derive2de26deserialize_newtype_struct, symObjAddr: 0x968C, symBinAddr: 0xA414, symSize: 0xCA4 }
  - { offsetInCU: 0x7447, offset: 0x7447, size: 0x8, addend: 0x0, symName: __RNvNtCs39Y7jx17GSw_12serde_derive2de18deserialize_struct, symObjAddr: 0xA330, symBinAddr: 0xB0B8, symSize: 0x39A4 }
  - { offsetInCU: 0x7CEA, offset: 0x7CEA, size: 0x8, addend: 0x0, symName: __RNCNvNtCs39Y7jx17GSw_12serde_derive2de18deserialize_struct0B5_, symObjAddr: 0xDCD4, symBinAddr: 0xEA5C, symSize: 0x8C }
  - { offsetInCU: 0x7D35, offset: 0x7D35, size: 0x8, addend: 0x0, symName: __RNCNvNtCs39Y7jx17GSw_12serde_derive2de18deserialize_structs_0B5_, symObjAddr: 0xDD60, symBinAddr: 0xEAE8, symSize: 0xDC }
  - { offsetInCU: 0x7D90, offset: 0x7D90, size: 0x8, addend: 0x0, symName: __RNCNvNtCs39Y7jx17GSw_12serde_derive2de18deserialize_structs0_0B5_, symObjAddr: 0xDE3C, symBinAddr: 0xEBC4, symSize: 0x30 }
  - { offsetInCU: 0x7DDB, offset: 0x7DDB, size: 0x8, addend: 0x0, symName: __RNvNtCs39Y7jx17GSw_12serde_derive2de16deserialize_enum, symObjAddr: 0xDE6C, symBinAddr: 0xEBF4, symSize: 0x16C }
  - { offsetInCU: 0x7E99, offset: 0x7E99, size: 0x8, addend: 0x0, symName: __RNCNvNtCs39Y7jx17GSw_12serde_derive2de16deserialize_enum0B5_, symObjAddr: 0xDFD8, symBinAddr: 0xED60, symSize: 0x40 }
  - { offsetInCU: 0x7EDA, offset: 0x7EDA, size: 0x8, addend: 0x0, symName: __RNvNtCs39Y7jx17GSw_12serde_derive2de28deserialize_homogeneous_enum, symObjAddr: 0xE018, symBinAddr: 0xEDA0, symSize: 0x1AC }
  - { offsetInCU: 0x7F72, offset: 0x7F72, size: 0x8, addend: 0x0, symName: __RNvNtCs39Y7jx17GSw_12serde_derive2de25prepare_enum_variant_enum, symObjAddr: 0xE1C4, symBinAddr: 0xEF4C, symSize: 0x684 }
  - { offsetInCU: 0x8158, offset: 0x8158, size: 0x8, addend: 0x0, symName: __RNCNvNtCs39Y7jx17GSw_12serde_derive2de25prepare_enum_variant_enum0B5_, symObjAddr: 0xE848, symBinAddr: 0xF5D0, symSize: 0x44 }
  - { offsetInCU: 0x81A3, offset: 0x81A3, size: 0x8, addend: 0x0, symName: __RNCNvNtCs39Y7jx17GSw_12serde_derive2de25prepare_enum_variant_enums_0B5_, symObjAddr: 0xE88C, symBinAddr: 0xF614, symSize: 0xDC }
  - { offsetInCU: 0x81FE, offset: 0x81FE, size: 0x8, addend: 0x0, symName: __RNCNvNtCs39Y7jx17GSw_12serde_derive2de25prepare_enum_variant_enums0_0B5_, symObjAddr: 0xE968, symBinAddr: 0xF6F0, symSize: 0x4C }
  - { offsetInCU: 0x8249, offset: 0x8249, size: 0x8, addend: 0x0, symName: __RNCNvNtCs39Y7jx17GSw_12serde_derive2de25prepare_enum_variant_enums1_0B5_, symObjAddr: 0xE9B4, symBinAddr: 0xF73C, symSize: 0x1AC }
  - { offsetInCU: 0x82CA, offset: 0x82CA, size: 0x8, addend: 0x0, symName: __RNCNvNtCs39Y7jx17GSw_12serde_derive2de25prepare_enum_variant_enums2_0B5_, symObjAddr: 0xEB60, symBinAddr: 0xF8E8, symSize: 0x30 }
  - { offsetInCU: 0x831C, offset: 0x831C, size: 0x8, addend: 0x0, symName: __RNvNtCs39Y7jx17GSw_12serde_derive2de34deserialize_externally_tagged_enum, symObjAddr: 0xEB90, symBinAddr: 0xF918, symSize: 0x1B00 }
  - { offsetInCU: 0x8742, offset: 0x8742, size: 0x8, addend: 0x0, symName: __RNCNvNtCs39Y7jx17GSw_12serde_derive2de34deserialize_externally_tagged_enum0B5_, symObjAddr: 0x10690, symBinAddr: 0x11418, symSize: 0x44 }
  - { offsetInCU: 0x878D, offset: 0x878D, size: 0x8, addend: 0x0, symName: __RNCNvNtCs39Y7jx17GSw_12serde_derive2de34deserialize_externally_tagged_enums_0B5_, symObjAddr: 0x106D4, symBinAddr: 0x1145C, symSize: 0x208 }
  - { offsetInCU: 0x8860, offset: 0x8860, size: 0x8, addend: 0x0, symName: __RNCNvNtCs39Y7jx17GSw_12serde_derive2de34deserialize_externally_tagged_enums0_0B5_, symObjAddr: 0x108DC, symBinAddr: 0x11664, symSize: 0x40 }
  - { offsetInCU: 0x88C6, offset: 0x88C6, size: 0x8, addend: 0x0, symName: __RNvNtCs39Y7jx17GSw_12serde_derive2de34deserialize_internally_tagged_enum, symObjAddr: 0x1091C, symBinAddr: 0x116A4, symSize: 0xA40 }
  - { offsetInCU: 0x8B16, offset: 0x8B16, size: 0x8, addend: 0x0, symName: __RNCNvNtCs39Y7jx17GSw_12serde_derive2de34deserialize_internally_tagged_enum0B5_, symObjAddr: 0x1135C, symBinAddr: 0x120E4, symSize: 0x44 }
  - { offsetInCU: 0x8B61, offset: 0x8B61, size: 0x8, addend: 0x0, symName: __RNCNvNtCs39Y7jx17GSw_12serde_derive2de34deserialize_internally_tagged_enums_0B5_, symObjAddr: 0x113A0, symBinAddr: 0x12128, symSize: 0x1FC }
  - { offsetInCU: 0x8C5A, offset: 0x8C5A, size: 0x8, addend: 0x0, symName: __RNvNtCs39Y7jx17GSw_12serde_derive2de34deserialize_adjacently_tagged_enum, symObjAddr: 0x1159C, symBinAddr: 0x12324, symSize: 0x9228 }
  - { offsetInCU: 0x9A94, offset: 0x9A94, size: 0x8, addend: 0x0, symName: __RNCNvNtCs39Y7jx17GSw_12serde_derive2de34deserialize_adjacently_tagged_enum0B5_, symObjAddr: 0x1A7C4, symBinAddr: 0x1B54C, symSize: 0x44 }
  - { offsetInCU: 0x9ADF, offset: 0x9ADF, size: 0x8, addend: 0x0, symName: __RNCNvNtCs39Y7jx17GSw_12serde_derive2de34deserialize_adjacently_tagged_enums_0B5_, symObjAddr: 0x1A808, symBinAddr: 0x1B590, symSize: 0x1FC }
  - { offsetInCU: 0x9BB2, offset: 0x9BB2, size: 0x8, addend: 0x0, symName: __RNCNvNtCs39Y7jx17GSw_12serde_derive2de34deserialize_adjacently_tagged_enums0_0B5_, symObjAddr: 0x1AA04, symBinAddr: 0x1B78C, symSize: 0x44 }
  - { offsetInCU: 0x9BFD, offset: 0x9BFD, size: 0x8, addend: 0x0, symName: __RNCNvNtCs39Y7jx17GSw_12serde_derive2de34deserialize_adjacently_tagged_enums1_0B5_, symObjAddr: 0x1AA48, symBinAddr: 0x1B7D0, symSize: 0x704 }
  - { offsetInCU: 0x9E4F, offset: 0x9E4F, size: 0x8, addend: 0x0, symName: __RNvNtCs39Y7jx17GSw_12serde_derive2de25deserialize_untagged_enum, symObjAddr: 0x1B14C, symBinAddr: 0x1BED4, symSize: 0x54 }
  - { offsetInCU: 0x9EB1, offset: 0x9EB1, size: 0x8, addend: 0x0, symName: __RNvNtCs39Y7jx17GSw_12serde_derive2de31deserialize_untagged_enum_after, symObjAddr: 0x1B1A0, symBinAddr: 0x1BF28, symSize: 0xC9C }
  - { offsetInCU: 0xA114, offset: 0xA114, size: 0x8, addend: 0x0, symName: __RNCNvNtCs39Y7jx17GSw_12serde_derive2de31deserialize_untagged_enum_after0B5_, symObjAddr: 0x1BE3C, symBinAddr: 0x1CBC4, symSize: 0x40 }
  - { offsetInCU: 0xA14D, offset: 0xA14D, size: 0x8, addend: 0x0, symName: __RNCNvNtCs39Y7jx17GSw_12serde_derive2de31deserialize_untagged_enum_afters_0B5_, symObjAddr: 0x1BE7C, symBinAddr: 0x1CC04, symSize: 0xE4 }
  - { offsetInCU: 0xA1B7, offset: 0xA1B7, size: 0x8, addend: 0x0, symName: __RNCNvNtCs39Y7jx17GSw_12serde_derive2de31deserialize_untagged_enum_afters0_0B5_, symObjAddr: 0x1BF60, symBinAddr: 0x1CCE8, symSize: 0x460 }
  - { offsetInCU: 0xA290, offset: 0xA290, size: 0x8, addend: 0x0, symName: __RNvNtCs39Y7jx17GSw_12serde_derive2de37deserialize_externally_tagged_variant, symObjAddr: 0x1C3C0, symBinAddr: 0x1D148, symSize: 0x7EC }
  - { offsetInCU: 0xA3E5, offset: 0xA3E5, size: 0x8, addend: 0x0, symName: __RNvNtCs39Y7jx17GSw_12serde_derive2de37deserialize_internally_tagged_variant, symObjAddr: 0x1CBAC, symBinAddr: 0x1D934, symSize: 0x704 }
  - { offsetInCU: 0xA512, offset: 0xA512, size: 0x8, addend: 0x0, symName: __RNCNvNtCs39Y7jx17GSw_12serde_derive2de37deserialize_internally_tagged_variant0B5_, symObjAddr: 0x1D2B0, symBinAddr: 0x1E038, symSize: 0x148 }
  - { offsetInCU: 0xA596, offset: 0xA596, size: 0x8, addend: 0x0, symName: __RNvNtCs39Y7jx17GSw_12serde_derive2de28deserialize_untagged_variant, symObjAddr: 0x1D3F8, symBinAddr: 0x1E180, symSize: 0xCBC }
  - { offsetInCU: 0xA78B, offset: 0xA78B, size: 0x8, addend: 0x0, symName: __RNCNvNtCs39Y7jx17GSw_12serde_derive2de28deserialize_untagged_variant0B5_, symObjAddr: 0x1E0B4, symBinAddr: 0x1EE3C, symSize: 0x148 }
  - { offsetInCU: 0xA80F, offset: 0xA80F, size: 0x8, addend: 0x0, symName: __RNvNtCs39Y7jx17GSw_12serde_derive2de45deserialize_externally_tagged_newtype_variant, symObjAddr: 0x1E1FC, symBinAddr: 0x1EF84, symSize: 0xB84 }
  - { offsetInCU: 0xAA42, offset: 0xAA42, size: 0x8, addend: 0x0, symName: __RNvNtCs39Y7jx17GSw_12serde_derive2de36deserialize_untagged_newtype_variant, symObjAddr: 0x1ED80, symBinAddr: 0x1FB08, symSize: 0x71C }
  - { offsetInCU: 0xABC7, offset: 0xABC7, size: 0x8, addend: 0x0, symName: __RNvNtCs39Y7jx17GSw_12serde_derive2de32deserialize_generated_identifier, symObjAddr: 0x1F49C, symBinAddr: 0x20224, symSize: 0x11BC }
  - { offsetInCU: 0xAE78, offset: 0xAE78, size: 0x8, addend: 0x0, symName: __RNCNvNtCs39Y7jx17GSw_12serde_derive2de32deserialize_generated_identifier0B5_, symObjAddr: 0x20658, symBinAddr: 0x213E0, symSize: 0x38 }
  - { offsetInCU: 0xAEB5, offset: 0xAEB5, size: 0x8, addend: 0x0, symName: __RNvNtCs39Y7jx17GSw_12serde_derive2de28deserialize_field_identifier, symObjAddr: 0x20690, symBinAddr: 0x21418, symSize: 0x77C }
  - { offsetInCU: 0xB03E, offset: 0xB03E, size: 0x8, addend: 0x0, symName: __RNvNtCs39Y7jx17GSw_12serde_derive2de29deserialize_custom_identifier, symObjAddr: 0x20E0C, symBinAddr: 0x21B94, symSize: 0x1DFC }
  - { offsetInCU: 0xB9B5, offset: 0xB9B5, size: 0x8, addend: 0x0, symName: __RNCNvNtCs39Y7jx17GSw_12serde_derive2de29deserialize_custom_identifier0B5_, symObjAddr: 0x22C08, symBinAddr: 0x23990, symSize: 0x3B8 }
  - { offsetInCU: 0xBA65, offset: 0xBA65, size: 0x8, addend: 0x0, symName: __RNCNvNtCs39Y7jx17GSw_12serde_derive2de29deserialize_custom_identifiers_0B5_, symObjAddr: 0x22FC0, symBinAddr: 0x23D48, symSize: 0xC8 }
  - { offsetInCU: 0xBA9E, offset: 0xBA9E, size: 0x8, addend: 0x0, symName: __RNCNvNtCs39Y7jx17GSw_12serde_derive2de29deserialize_custom_identifiers0_0B5_, symObjAddr: 0x23088, symBinAddr: 0x23E10, symSize: 0x30 }
  - { offsetInCU: 0xBB00, offset: 0xBB00, size: 0x8, addend: 0x0, symName: __RNvNtCs39Y7jx17GSw_12serde_derive2de22deserialize_identifier, symObjAddr: 0x230B8, symBinAddr: 0x23E40, symSize: 0x96CC }
  - { offsetInCU: 0xCB00, offset: 0xCB00, size: 0x8, addend: 0x0, symName: __RNCNvNtCs39Y7jx17GSw_12serde_derive2de22deserialize_identifier0B5_, symObjAddr: 0x2C784, symBinAddr: 0x2D50C, symSize: 0x2C0 }
  - { offsetInCU: 0xCC30, offset: 0xCC30, size: 0x8, addend: 0x0, symName: __RNCNvNtCs39Y7jx17GSw_12serde_derive2de22deserialize_identifiers_0B5_, symObjAddr: 0x2CA44, symBinAddr: 0x2D7CC, symSize: 0x358 }
  - { offsetInCU: 0xCD7D, offset: 0xCD7D, size: 0x8, addend: 0x0, symName: __RNCNCNvNtCs39Y7jx17GSw_12serde_derive2de22deserialize_identifiers_00B7_, symObjAddr: 0x2CD9C, symBinAddr: 0x2DB24, symSize: 0x4C }
  - { offsetInCU: 0xCDBE, offset: 0xCDBE, size: 0x8, addend: 0x0, symName: __RNCNvNtCs39Y7jx17GSw_12serde_derive2de22deserialize_identifiers0_0B5_, symObjAddr: 0x2CDE8, symBinAddr: 0x2DB70, symSize: 0x1A8 }
  - { offsetInCU: 0xCE9E, offset: 0xCE9E, size: 0x8, addend: 0x0, symName: __RNvNtCs39Y7jx17GSw_12serde_derive2de15deserialize_map, symObjAddr: 0x2CF90, symBinAddr: 0x2DD18, symSize: 0x3364 }
  - { offsetInCU: 0xD723, offset: 0xD723, size: 0x8, addend: 0x0, symName: __RNCNvNtCs39Y7jx17GSw_12serde_derive2de15deserialize_map0B5_, symObjAddr: 0x302F4, symBinAddr: 0x3107C, symSize: 0x74 }
  - { offsetInCU: 0xD77E, offset: 0xD77E, size: 0x8, addend: 0x0, symName: __RNCNvNtCs39Y7jx17GSw_12serde_derive2de15deserialize_maps_0B5_, symObjAddr: 0x30368, symBinAddr: 0x310F0, symSize: 0x90 }
  - { offsetInCU: 0xD7C9, offset: 0xD7C9, size: 0x8, addend: 0x0, symName: __RNCNvNtCs39Y7jx17GSw_12serde_derive2de15deserialize_maps0_0B5_, symObjAddr: 0x303F8, symBinAddr: 0x31180, symSize: 0x208 }
  - { offsetInCU: 0xD850, offset: 0xD850, size: 0x8, addend: 0x0, symName: __RNCNvNtCs39Y7jx17GSw_12serde_derive2de15deserialize_maps1_0B5_, symObjAddr: 0x30600, symBinAddr: 0x31388, symSize: 0x90 }
  - { offsetInCU: 0xD89B, offset: 0xD89B, size: 0x8, addend: 0x0, symName: __RNCNvNtCs39Y7jx17GSw_12serde_derive2de15deserialize_maps2_0B5_, symObjAddr: 0x30690, symBinAddr: 0x31418, symSize: 0x1008 }
  - { offsetInCU: 0xDB69, offset: 0xDB69, size: 0x8, addend: 0x0, symName: __RNCNvNtCs39Y7jx17GSw_12serde_derive2de15deserialize_maps3_0B5_, symObjAddr: 0x31698, symBinAddr: 0x32420, symSize: 0x40 }
  - { offsetInCU: 0xDBA2, offset: 0xDBA2, size: 0x8, addend: 0x0, symName: __RNCNvNtCs39Y7jx17GSw_12serde_derive2de15deserialize_maps4_0B5_, symObjAddr: 0x316D8, symBinAddr: 0x32460, symSize: 0x90 }
  - { offsetInCU: 0xDBED, offset: 0xDBED, size: 0x8, addend: 0x0, symName: __RNCNvNtCs39Y7jx17GSw_12serde_derive2de15deserialize_maps5_0B5_, symObjAddr: 0x31768, symBinAddr: 0x324F0, symSize: 0x340 }
  - { offsetInCU: 0xDCAA, offset: 0xDCAA, size: 0x8, addend: 0x0, symName: __RNCNvNtCs39Y7jx17GSw_12serde_derive2de15deserialize_maps6_0B5_, symObjAddr: 0x31AA8, symBinAddr: 0x32830, symSize: 0x90 }
  - { offsetInCU: 0xDCF5, offset: 0xDCF5, size: 0x8, addend: 0x0, symName: __RNCNvNtCs39Y7jx17GSw_12serde_derive2de15deserialize_maps7_0B5_, symObjAddr: 0x31B38, symBinAddr: 0x328C0, symSize: 0x500 }
  - { offsetInCU: 0xDE3C, offset: 0xDE3C, size: 0x8, addend: 0x0, symName: __RNCNvNtCs39Y7jx17GSw_12serde_derive2de15deserialize_maps8_0B5_, symObjAddr: 0x32038, symBinAddr: 0x32DC0, symSize: 0x1C4 }
  - { offsetInCU: 0xDF6A, offset: 0xDF6A, size: 0x8, addend: 0x0, symName: __RNvNtCs39Y7jx17GSw_12serde_derive2de7field_i, symObjAddr: 0x321FC, symBinAddr: 0x32F84, symSize: 0x110 }
  - { offsetInCU: 0xE008, offset: 0xE008, size: 0x8, addend: 0x0, symName: __RNvNtCs39Y7jx17GSw_12serde_derive2de21wrap_deserialize_with, symObjAddr: 0x3230C, symBinAddr: 0x33094, symSize: 0xCEC }
  - { offsetInCU: 0xE205, offset: 0xE205, size: 0x8, addend: 0x0, symName: __RNvNtCs39Y7jx17GSw_12serde_derive2de27wrap_deserialize_field_with, symObjAddr: 0x32FF8, symBinAddr: 0x33D80, symSize: 0xD8 }
  - { offsetInCU: 0xE267, offset: 0xE267, size: 0x8, addend: 0x0, symName: __RNvNtCs39Y7jx17GSw_12serde_derive2de29wrap_deserialize_variant_with, symObjAddr: 0x330D0, symBinAddr: 0x33E58, symSize: 0x358 }
  - { offsetInCU: 0xE3EC, offset: 0xE3EC, size: 0x8, addend: 0x0, symName: __RNCNvNtCs39Y7jx17GSw_12serde_derive2de29wrap_deserialize_variant_with0B5_, symObjAddr: 0x33428, symBinAddr: 0x341B0, symSize: 0x2C }
  - { offsetInCU: 0xE42D, offset: 0xE42D, size: 0x8, addend: 0x0, symName: __RNvNtCs39Y7jx17GSw_12serde_derive2de25unwrap_to_variant_closure, symObjAddr: 0x33454, symBinAddr: 0x341DC, symSize: 0x105C }
  - { offsetInCU: 0xE9B1, offset: 0xE9B1, size: 0x8, addend: 0x0, symName: __RNCNvNtCs39Y7jx17GSw_12serde_derive2de25unwrap_to_variant_closure0B5_, symObjAddr: 0x344B0, symBinAddr: 0x35238, symSize: 0x2C }
  - { offsetInCU: 0xE9EA, offset: 0xE9EA, size: 0x8, addend: 0x0, symName: __RNCNvNtCs39Y7jx17GSw_12serde_derive2de25unwrap_to_variant_closures_0B5_, symObjAddr: 0x344DC, symBinAddr: 0x35264, symSize: 0x68 }
  - { offsetInCU: 0xEA23, offset: 0xEA23, size: 0x8, addend: 0x0, symName: __RNCNvNtCs39Y7jx17GSw_12serde_derive2de25unwrap_to_variant_closures0_0B5_, symObjAddr: 0x34544, symBinAddr: 0x352CC, symSize: 0x28 }
  - { offsetInCU: 0xEA72, offset: 0xEA72, size: 0x8, addend: 0x0, symName: __RNvNtCs39Y7jx17GSw_12serde_derive2de15expr_is_missing, symObjAddr: 0x3456C, symBinAddr: 0x352F4, symSize: 0x918 }
  - { offsetInCU: 0xEC65, offset: 0xEC65, size: 0x8, addend: 0x0, symName: __RNvNtCs39Y7jx17GSw_12serde_derive2de19expr_is_missing_seq, symObjAddr: 0x34E84, symBinAddr: 0x35C0C, symSize: 0x6B4 }
  - { offsetInCU: 0xEDE1, offset: 0xEDE1, size: 0x8, addend: 0x0, symName: __RNvNtCs39Y7jx17GSw_12serde_derive2de15effective_style, symObjAddr: 0x35538, symBinAddr: 0x362C0, symSize: 0xD0 }
  - { offsetInCU: 0xEE31, offset: 0xEE31, size: 0x8, addend: 0x0, symName: __RNvXs0_NtCs39Y7jx17GSw_12serde_derive2deNtB5_14DeImplGenericsNtNtCshYXbwB3frNp_5quote9to_tokens8ToTokens9to_tokens, symObjAddr: 0x35608, symBinAddr: 0x36390, symSize: 0x224 }
  - { offsetInCU: 0xEEB7, offset: 0xEEB7, size: 0x8, addend: 0x0, symName: __RNvNtCs39Y7jx17GSw_12serde_derive2de26de_type_generics_to_tokens, symObjAddr: 0x3582C, symBinAddr: 0x365B4, symSize: 0x2C0 }
  - { offsetInCU: 0xEF43, offset: 0xEF43, size: 0x8, addend: 0x0, symName: __RNvXs1_NtCs39Y7jx17GSw_12serde_derive2deNtB5_14DeTypeGenericsNtNtCshYXbwB3frNp_5quote9to_tokens8ToTokens9to_tokens, symObjAddr: 0x35AEC, symBinAddr: 0x36874, symSize: 0x64 }
  - { offsetInCU: 0xEF7D, offset: 0xEF7D, size: 0x8, addend: 0x0, symName: __RNvNtCs39Y7jx17GSw_12serde_derive2de22split_with_de_lifetime, symObjAddr: 0x35B50, symBinAddr: 0x368D8, symSize: 0x70 }
  - { offsetInCU: 0xF219, offset: 0xF219, size: 0x8, addend: 0x0, symName: __RNvYNtNtCs39Y7jx17GSw_12serde_derive2de14DeImplGenericsNtNtCshYXbwB3frNp_5quote9to_tokens8ToTokens15to_token_streamB6_, symObjAddr: 0x6B4, symBinAddr: 0x143C, symSize: 0x8C }
  - { offsetInCU: 0xF263, offset: 0xF263, size: 0x8, addend: 0x0, symName: __RNvYNtNtCs39Y7jx17GSw_12serde_derive2de14DeImplGenericsNtNtCshYXbwB3frNp_5quote9to_tokens8ToTokens17into_token_streamB6_, symObjAddr: 0x740, symBinAddr: 0x14C8, symSize: 0x54 }
  - { offsetInCU: 0xF298, offset: 0xF298, size: 0x8, addend: 0x0, symName: __RNvYNtNtCs39Y7jx17GSw_12serde_derive2de14DeTypeGenericsNtNtCshYXbwB3frNp_5quote9to_tokens8ToTokens15to_token_streamB6_, symObjAddr: 0x794, symBinAddr: 0x151C, symSize: 0x8C }
  - { offsetInCU: 0xF2E2, offset: 0xF2E2, size: 0x8, addend: 0x0, symName: __RNvYNtNtCs39Y7jx17GSw_12serde_derive2de14DeTypeGenericsNtNtCshYXbwB3frNp_5quote9to_tokens8ToTokens17into_token_streamB6_, symObjAddr: 0x820, symBinAddr: 0x15A8, symSize: 0x54 }
  - { offsetInCU: 0x138B3, offset: 0x138B3, size: 0x8, addend: 0x0, symName: __RNvMNtCs39Y7jx17GSw_12serde_derive2deNtB2_10Parameters3new, symObjAddr: 0x1DB8, symBinAddr: 0x2B40, symSize: 0x248 }
  - { offsetInCU: 0x139EB, offset: 0x139EB, size: 0x8, addend: 0x0, symName: __RNvMNtCs39Y7jx17GSw_12serde_derive2deNtB2_10Parameters9type_name, symObjAddr: 0x2000, symBinAddr: 0x2D88, symSize: 0x64 }
  - { offsetInCU: 0x13A37, offset: 0x13A37, size: 0x8, addend: 0x0, symName: __RNvMs_NtCs39Y7jx17GSw_12serde_derive2deNtB4_17BorrowedLifetimes11de_lifetime, symObjAddr: 0x28E4, symBinAddr: 0x366C, symSize: 0x9C }
  - { offsetInCU: 0x13A59, offset: 0x13A59, size: 0x8, addend: 0x0, symName: __RNvMs_NtCs39Y7jx17GSw_12serde_derive2deNtB4_17BorrowedLifetimes17de_lifetime_param, symObjAddr: 0x2980, symBinAddr: 0x3708, symSize: 0x188 }
  - { offsetInCU: 0x1E, offset: 0x14655, size: 0x8, addend: 0x0, symName: __RINvMNtNtNtCsltZDfVD1VKL_5alloc11collections5btree4nodeINtB3_8LeafNodeNtNtB9_6string6StringNtNtB5_7set_val9SetValZSTE3newNtNtB9_5alloc6GlobalECs39Y7jx17GSw_12serde_derive, symObjAddr: 0x0, symBinAddr: 0x36954, symSize: 0x60 }
  - { offsetInCU: 0xBF00, offset: 0x20537, size: 0x8, addend: 0x0, symName: __RINvNtNtNtCsltZDfVD1VKL_5alloc11collections5btree4node12slice_insertINtNtNtCs5fsojcNSbun_4core3ptr8non_null7NonNullINtB2_8LeafNodeNtNtB8_6string6StringNtNtB4_7set_val9SetValZSTEEECs39Y7jx17GSw_12serde_derive, symObjAddr: 0x527C, symBinAddr: 0x3BBD0, symSize: 0xF4 }
  - { offsetInCU: 0xC112, offset: 0x20749, size: 0x8, addend: 0x0, symName: __RINvNtNtNtCsltZDfVD1VKL_5alloc11collections5btree4node12slice_insertINtNtNtCs5fsojcNSbun_4core3ptr8non_null7NonNullINtB2_8LeafNodeNtNtCs5GBHJSLTkJw_3syn8lifetime8LifetimeNtNtB4_7set_val9SetValZSTEEECs39Y7jx17GSw_12serde_derive, symObjAddr: 0x5370, symBinAddr: 0x3BCC4, symSize: 0xF4 }
  - { offsetInCU: 0xC324, offset: 0x2095B, size: 0x8, addend: 0x0, symName: __RINvNtNtNtCsltZDfVD1VKL_5alloc11collections5btree4node12slice_insertNtNtB4_7set_val9SetValZSTECs39Y7jx17GSw_12serde_derive, symObjAddr: 0x5464, symBinAddr: 0x3BDB8, symSize: 0xB8 }
  - { offsetInCU: 0xC471, offset: 0x20AA8, size: 0x8, addend: 0x0, symName: __RINvNtNtNtCsltZDfVD1VKL_5alloc11collections5btree4node12slice_insertNtNtB8_6string6StringECs39Y7jx17GSw_12serde_derive, symObjAddr: 0x551C, symBinAddr: 0x3BE70, symSize: 0x120 }
  - { offsetInCU: 0xC64C, offset: 0x20C83, size: 0x8, addend: 0x0, symName: __RINvNtNtNtCsltZDfVD1VKL_5alloc11collections5btree4node12slice_insertNtNtCs5GBHJSLTkJw_3syn8lifetime8LifetimeECs39Y7jx17GSw_12serde_derive, symObjAddr: 0x563C, symBinAddr: 0x3BF90, symSize: 0x134 }
  - { offsetInCU: 0xC82B, offset: 0x20E62, size: 0x8, addend: 0x0, symName: __RINvNtNtNtCsltZDfVD1VKL_5alloc11collections5btree4node13move_to_sliceINtNtNtCs5fsojcNSbun_4core3ptr8non_null7NonNullINtB2_8LeafNodeNtNtB8_6string6StringNtNtB4_7set_val9SetValZSTEEECs39Y7jx17GSw_12serde_derive, symObjAddr: 0x5770, symBinAddr: 0x3C0C4, symSize: 0xAC }
  - { offsetInCU: 0xC901, offset: 0x20F38, size: 0x8, addend: 0x0, symName: __RINvNtNtNtCsltZDfVD1VKL_5alloc11collections5btree4node13move_to_sliceINtNtNtCs5fsojcNSbun_4core3ptr8non_null7NonNullINtB2_8LeafNodeNtNtCs5GBHJSLTkJw_3syn8lifetime8LifetimeNtNtB4_7set_val9SetValZSTEEECs39Y7jx17GSw_12serde_derive, symObjAddr: 0x581C, symBinAddr: 0x3C170, symSize: 0xAC }
  - { offsetInCU: 0xC9D7, offset: 0x2100E, size: 0x8, addend: 0x0, symName: __RINvNtNtNtCsltZDfVD1VKL_5alloc11collections5btree4node13move_to_sliceNtNtB4_7set_val9SetValZSTECs39Y7jx17GSw_12serde_derive, symObjAddr: 0x58C8, symBinAddr: 0x3C21C, symSize: 0xB0 }
  - { offsetInCU: 0xCAAD, offset: 0x210E4, size: 0x8, addend: 0x0, symName: __RINvNtNtNtCsltZDfVD1VKL_5alloc11collections5btree4node13move_to_sliceNtNtB8_6string6StringECs39Y7jx17GSw_12serde_derive, symObjAddr: 0x5978, symBinAddr: 0x3C2CC, symSize: 0xB4 }
  - { offsetInCU: 0xCB83, offset: 0x211BA, size: 0x8, addend: 0x0, symName: __RINvNtNtNtCsltZDfVD1VKL_5alloc11collections5btree4node13move_to_sliceNtNtCs5GBHJSLTkJw_3syn8lifetime8LifetimeECs39Y7jx17GSw_12serde_derive, symObjAddr: 0x5A2C, symBinAddr: 0x3C380, symSize: 0xB4 }
  - { offsetInCU: 0xCC63, offset: 0x2129A, size: 0x8, addend: 0x0, symName: __RNCINvMss_NtNtNtCsltZDfVD1VKL_5alloc11collections5btree4nodeINtB8_7NodeRefNtNtB8_6marker5OwnedNtNtBe_6string6StringNtNtBa_7set_val9SetValZSTNtB1c_14LeafOrInternalE19push_internal_levelNtNtBe_5alloc6GlobalE0Cs39Y7jx17GSw_12serde_derive, symObjAddr: 0x5AE0, symBinAddr: 0x3C434, symSize: 0x44 }
  - { offsetInCU: 0xCCE7, offset: 0x2131E, size: 0x8, addend: 0x0, symName: __RNCINvMss_NtNtNtCsltZDfVD1VKL_5alloc11collections5btree4nodeINtB8_7NodeRefNtNtB8_6marker5OwnedNtNtCs5GBHJSLTkJw_3syn8lifetime8LifetimeNtNtBa_7set_val9SetValZSTNtB1c_14LeafOrInternalE19push_internal_levelNtNtBe_5alloc6GlobalE0Cs39Y7jx17GSw_12serde_derive, symObjAddr: 0x5B24, symBinAddr: 0x3C478, symSize: 0x44 }
  - { offsetInCU: 0xE8D7, offset: 0x22F0E, size: 0x8, addend: 0x0, symName: __RINvMNtNtNtCsltZDfVD1VKL_5alloc11collections5btree4nodeINtB3_8LeafNodeNtNtB9_6string6StringNtNtB5_7set_val9SetValZSTE3newNtNtB9_5alloc6GlobalECs39Y7jx17GSw_12serde_derive, symObjAddr: 0x0, symBinAddr: 0x36954, symSize: 0x60 }
  - { offsetInCU: 0xED23, offset: 0x2335A, size: 0x8, addend: 0x0, symName: __RINvMNtNtNtCsltZDfVD1VKL_5alloc11collections5btree4nodeINtB3_8LeafNodeNtNtCs5GBHJSLTkJw_3syn8lifetime8LifetimeNtNtB5_7set_val9SetValZSTE3newNtNtB9_5alloc6GlobalECs39Y7jx17GSw_12serde_derive, symObjAddr: 0x60, symBinAddr: 0x369B4, symSize: 0x60 }
  - { offsetInCU: 0xEF0B, offset: 0x23542, size: 0x8, addend: 0x0, symName: __RINvMs0_NtNtNtCsltZDfVD1VKL_5alloc11collections5btree6searchINtNtB8_4node7NodeRefNtNtBZ_6marker3MutNtNtBc_6string6StringNtNtB8_7set_val9SetValZSTNtB1j_14LeafOrInternalE11search_nodeB1z_ECs39Y7jx17GSw_12serde_derive, symObjAddr: 0xC0, symBinAddr: 0x36A14, symSize: 0xCC }
  - { offsetInCU: 0xF18E, offset: 0x237C5, size: 0x8, addend: 0x0, symName: __RINvMs0_NtNtNtCsltZDfVD1VKL_5alloc11collections5btree6searchINtNtB8_4node7NodeRefNtNtBZ_6marker3MutNtNtBc_6string6StringNtNtB8_7set_val9SetValZSTNtB1j_14LeafOrInternalE14find_key_indexB1z_ECs39Y7jx17GSw_12serde_derive, symObjAddr: 0x18C, symBinAddr: 0x36AE0, symSize: 0x21C }
  - { offsetInCU: 0xF73E, offset: 0x23D75, size: 0x8, addend: 0x0, symName: __RINvMs0_NtNtNtCsltZDfVD1VKL_5alloc11collections5btree6searchINtNtB8_4node7NodeRefNtNtBZ_6marker3MutNtNtCs5GBHJSLTkJw_3syn8lifetime8LifetimeNtNtB8_7set_val9SetValZSTNtB1j_14LeafOrInternalE11search_nodeB1z_ECs39Y7jx17GSw_12serde_derive, symObjAddr: 0x3A8, symBinAddr: 0x36CFC, symSize: 0xCC }
  - { offsetInCU: 0xF989, offset: 0x23FC0, size: 0x8, addend: 0x0, symName: __RINvMs0_NtNtNtCsltZDfVD1VKL_5alloc11collections5btree6searchINtNtB8_4node7NodeRefNtNtBZ_6marker3MutNtNtCs5GBHJSLTkJw_3syn8lifetime8LifetimeNtNtB8_7set_val9SetValZSTNtB1j_14LeafOrInternalE14find_key_indexB1z_ECs39Y7jx17GSw_12serde_derive, symObjAddr: 0x474, symBinAddr: 0x36DC8, symSize: 0x21C }
  - { offsetInCU: 0xFF2C, offset: 0x24563, size: 0x8, addend: 0x0, symName: __RINvMs0_NtNtNtCsltZDfVD1VKL_5alloc11collections5btree6searchINtNtB8_4node7NodeRefNtNtBZ_6marker5ImmutNtNtCs5GBHJSLTkJw_3syn8lifetime8LifetimeNtNtB8_7set_val9SetValZSTNtB1j_14LeafOrInternalE11search_nodeB1B_ECs39Y7jx17GSw_12serde_derive, symObjAddr: 0x690, symBinAddr: 0x36FE4, symSize: 0xCC }
  - { offsetInCU: 0x10118, offset: 0x2474F, size: 0x8, addend: 0x0, symName: __RINvMs0_NtNtNtCsltZDfVD1VKL_5alloc11collections5btree6searchINtNtB8_4node7NodeRefNtNtBZ_6marker5ImmutNtNtCs5GBHJSLTkJw_3syn8lifetime8LifetimeNtNtB8_7set_val9SetValZSTNtB1j_14LeafOrInternalE14find_key_indexB1B_ECs39Y7jx17GSw_12serde_derive, symObjAddr: 0x75C, symBinAddr: 0x370B0, symSize: 0x21C }
  - { offsetInCU: 0x10697, offset: 0x24CCE, size: 0x8, addend: 0x0, symName: __RINvMs8_NtNtNtCsltZDfVD1VKL_5alloc11collections5btree4nodeINtB6_7NodeRefNtNtB6_6marker5OwnedNtNtBc_6string6StringNtNtB8_7set_val9SetValZSTNtB1a_4LeafE13from_new_leafNtNtBc_5alloc6GlobalECs39Y7jx17GSw_12serde_derive, symObjAddr: 0x978, symBinAddr: 0x372CC, symSize: 0x60 }
  - { offsetInCU: 0x1083A, offset: 0x24E71, size: 0x8, addend: 0x0, symName: __RINvMs8_NtNtNtCsltZDfVD1VKL_5alloc11collections5btree4nodeINtB6_7NodeRefNtNtB6_6marker5OwnedNtNtCs5GBHJSLTkJw_3syn8lifetime8LifetimeNtNtB8_7set_val9SetValZSTNtB1a_4LeafE13from_new_leafNtNtBc_5alloc6GlobalECs39Y7jx17GSw_12serde_derive, symObjAddr: 0x9D8, symBinAddr: 0x3732C, symSize: 0x60 }
  - { offsetInCU: 0x10A50, offset: 0x25087, size: 0x8, addend: 0x0, symName: __RINvMs9_NtNtNtCsltZDfVD1VKL_5alloc11collections5btree4nodeINtB6_7NodeRefNtNtB6_6marker5OwnedNtNtBc_6string6StringNtNtB8_7set_val9SetValZSTNtB1a_8InternalE12new_internalNtNtBc_5alloc6GlobalECs39Y7jx17GSw_12serde_derive, symObjAddr: 0xA38, symBinAddr: 0x3738C, symSize: 0xA0 }
  - { offsetInCU: 0x10D14, offset: 0x2534B, size: 0x8, addend: 0x0, symName: __RINvMs9_NtNtNtCsltZDfVD1VKL_5alloc11collections5btree4nodeINtB6_7NodeRefNtNtB6_6marker5OwnedNtNtBc_6string6StringNtNtB8_7set_val9SetValZSTNtB1a_8InternalE17from_new_internalNtNtBc_5alloc6GlobalECs39Y7jx17GSw_12serde_derive, symObjAddr: 0xAD8, symBinAddr: 0x3742C, symSize: 0x10C }
  - { offsetInCU: 0x11055, offset: 0x2568C, size: 0x8, addend: 0x0, symName: __RINvMs9_NtNtNtCsltZDfVD1VKL_5alloc11collections5btree4nodeINtB6_7NodeRefNtNtB6_6marker5OwnedNtNtCs5GBHJSLTkJw_3syn8lifetime8LifetimeNtNtB8_7set_val9SetValZSTNtB1a_8InternalE12new_internalNtNtBc_5alloc6GlobalECs39Y7jx17GSw_12serde_derive, symObjAddr: 0xBE4, symBinAddr: 0x37538, symSize: 0xA0 }
  - { offsetInCU: 0x112FB, offset: 0x25932, size: 0x8, addend: 0x0, symName: __RINvMs9_NtNtNtCsltZDfVD1VKL_5alloc11collections5btree4nodeINtB6_7NodeRefNtNtB6_6marker5OwnedNtNtCs5GBHJSLTkJw_3syn8lifetime8LifetimeNtNtB8_7set_val9SetValZSTNtB1a_8InternalE17from_new_internalNtNtBc_5alloc6GlobalECs39Y7jx17GSw_12serde_derive, symObjAddr: 0xC84, symBinAddr: 0x375D8, symSize: 0x10C }
  - { offsetInCU: 0x118D6, offset: 0x25F0D, size: 0x8, addend: 0x0, symName: __RINvMsK_NtNtNtCsltZDfVD1VKL_5alloc11collections5btree4nodeINtB6_6HandleINtB6_7NodeRefNtNtB6_6marker3MutNtNtBc_6string6StringNtNtB8_7set_val9SetValZSTNtB1n_4LeafENtB1n_4EdgeE6insertNtNtBc_5alloc6GlobalECs39Y7jx17GSw_12serde_derive, symObjAddr: 0xD90, symBinAddr: 0x376E4, symSize: 0x560 }
  - { offsetInCU: 0x11F02, offset: 0x26539, size: 0x8, addend: 0x0, symName: __RINvMsK_NtNtNtCsltZDfVD1VKL_5alloc11collections5btree4nodeINtB6_6HandleINtB6_7NodeRefNtNtB6_6marker3MutNtNtCs5GBHJSLTkJw_3syn8lifetime8LifetimeNtNtB8_7set_val9SetValZSTNtB1n_4LeafENtB1n_4EdgeE6insertNtNtBc_5alloc6GlobalECs39Y7jx17GSw_12serde_derive, symObjAddr: 0x12F0, symBinAddr: 0x37C44, symSize: 0x574 }
  - { offsetInCU: 0x12439, offset: 0x26A70, size: 0x8, addend: 0x0, symName: __RINvMsM_NtNtNtCsltZDfVD1VKL_5alloc11collections5btree4nodeINtB6_6HandleINtB6_7NodeRefNtNtB6_6marker3MutNtNtBc_6string6StringNtNtB8_7set_val9SetValZSTNtB1n_8InternalENtB1n_4EdgeE6insertNtNtBc_5alloc6GlobalECs39Y7jx17GSw_12serde_derive, symObjAddr: 0x1864, symBinAddr: 0x381B8, symSize: 0x594 }
  - { offsetInCU: 0x12862, offset: 0x26E99, size: 0x8, addend: 0x0, symName: __RINvMsM_NtNtNtCsltZDfVD1VKL_5alloc11collections5btree4nodeINtB6_6HandleINtB6_7NodeRefNtNtB6_6marker3MutNtNtCs5GBHJSLTkJw_3syn8lifetime8LifetimeNtNtB8_7set_val9SetValZSTNtB1n_8InternalENtB1n_4EdgeE6insertNtNtBc_5alloc6GlobalECs39Y7jx17GSw_12serde_derive, symObjAddr: 0x1DF8, symBinAddr: 0x3874C, symSize: 0x5A0 }
  - { offsetInCU: 0x12CB0, offset: 0x272E7, size: 0x8, addend: 0x0, symName: __RINvMsN_NtNtNtCsltZDfVD1VKL_5alloc11collections5btree4nodeINtB6_6HandleINtB6_7NodeRefNtNtB6_6marker3MutNtNtBc_6string6StringNtNtB8_7set_val9SetValZSTNtB1n_4LeafENtB1n_4EdgeE16insert_recursingNtNtBc_5alloc6GlobalNCNvMs6_NtNtB8_3map5entryINtB3v_11VacantEntryB1D_B1Y_E6insert0ECs39Y7jx17GSw_12serde_derive, symObjAddr: 0x2398, symBinAddr: 0x38CEC, symSize: 0x50C }
  - { offsetInCU: 0x132CB, offset: 0x27902, size: 0x8, addend: 0x0, symName: __RINvMsN_NtNtNtCsltZDfVD1VKL_5alloc11collections5btree4nodeINtB6_6HandleINtB6_7NodeRefNtNtB6_6marker3MutNtNtCs5GBHJSLTkJw_3syn8lifetime8LifetimeNtNtB8_7set_val9SetValZSTNtB1n_4LeafENtB1n_4EdgeE16insert_recursingNtNtBc_5alloc6GlobalNCNvMs6_NtNtB8_3map5entryINtB3O_11VacantEntryB1D_B2h_E6insert0ECs39Y7jx17GSw_12serde_derive, symObjAddr: 0x28A4, symBinAddr: 0x391F8, symSize: 0x568 }
  - { offsetInCU: 0x136F7, offset: 0x27D2E, size: 0x8, addend: 0x0, symName: __RINvMsV_NtNtNtCsltZDfVD1VKL_5alloc11collections5btree4nodeINtB6_6HandleINtB6_7NodeRefNtNtB6_6marker3MutNtNtBc_6string6StringNtNtB8_7set_val9SetValZSTNtB1n_4LeafENtB1n_2KVE5splitNtNtBc_5alloc6GlobalECs39Y7jx17GSw_12serde_derive, symObjAddr: 0x2E0C, symBinAddr: 0x39760, symSize: 0x104 }
  - { offsetInCU: 0x1378F, offset: 0x27DC6, size: 0x8, addend: 0x0, symName: __RINvMsV_NtNtNtCsltZDfVD1VKL_5alloc11collections5btree4nodeINtB6_6HandleINtB6_7NodeRefNtNtB6_6marker3MutNtNtCs5GBHJSLTkJw_3syn8lifetime8LifetimeNtNtB8_7set_val9SetValZSTNtB1n_4LeafENtB1n_2KVE5splitNtNtBc_5alloc6GlobalECs39Y7jx17GSw_12serde_derive, symObjAddr: 0x2F10, symBinAddr: 0x39864, symSize: 0x124 }
  - { offsetInCU: 0x138CF, offset: 0x27F06, size: 0x8, addend: 0x0, symName: __RINvMsW_NtNtNtCsltZDfVD1VKL_5alloc11collections5btree4nodeINtB6_6HandleINtB6_7NodeRefNtNtB6_6marker3MutNtNtBc_6string6StringNtNtB8_7set_val9SetValZSTNtB1n_8InternalENtB1n_2KVE5splitNtNtBc_5alloc6GlobalECs39Y7jx17GSw_12serde_derive, symObjAddr: 0x3034, symBinAddr: 0x39988, symSize: 0x1FC }
  - { offsetInCU: 0x13BAC, offset: 0x281E3, size: 0x8, addend: 0x0, symName: __RINvMsW_NtNtNtCsltZDfVD1VKL_5alloc11collections5btree4nodeINtB6_6HandleINtB6_7NodeRefNtNtB6_6marker3MutNtNtCs5GBHJSLTkJw_3syn8lifetime8LifetimeNtNtB8_7set_val9SetValZSTNtB1n_8InternalENtB1n_2KVE5splitNtNtBc_5alloc6GlobalECs39Y7jx17GSw_12serde_derive, symObjAddr: 0x3230, symBinAddr: 0x39B84, symSize: 0x21C }
  - { offsetInCU: 0x13E09, offset: 0x28440, size: 0x8, addend: 0x0, symName: __RINvMs_NtNtNtCsltZDfVD1VKL_5alloc11collections5btree4nodeINtB5_12InternalNodeNtNtBb_6string6StringNtNtB7_7set_val9SetValZSTE3newNtNtBb_5alloc6GlobalECs39Y7jx17GSw_12serde_derive, symObjAddr: 0x344C, symBinAddr: 0x39DA0, symSize: 0x60 }
  - { offsetInCU: 0x13F2A, offset: 0x28561, size: 0x8, addend: 0x0, symName: __RINvMs_NtNtNtCsltZDfVD1VKL_5alloc11collections5btree4nodeINtB5_12InternalNodeNtNtCs5GBHJSLTkJw_3syn8lifetime8LifetimeNtNtB7_7set_val9SetValZSTE3newNtNtBb_5alloc6GlobalECs39Y7jx17GSw_12serde_derive, symObjAddr: 0x34AC, symBinAddr: 0x39E00, symSize: 0x60 }
  - { offsetInCU: 0x140AE, offset: 0x286E5, size: 0x8, addend: 0x0, symName: __RINvMs_NtNtNtCsltZDfVD1VKL_5alloc11collections5btree6searchINtNtB7_4node7NodeRefNtNtBY_6marker3MutNtNtBb_6string6StringNtNtB7_7set_val9SetValZSTNtB1i_14LeafOrInternalE11search_treeB1y_ECs39Y7jx17GSw_12serde_derive, symObjAddr: 0x350C, symBinAddr: 0x39E60, symSize: 0x1D4 }
  - { offsetInCU: 0x1427C, offset: 0x288B3, size: 0x8, addend: 0x0, symName: __RINvMs_NtNtNtCsltZDfVD1VKL_5alloc11collections5btree6searchINtNtB7_4node7NodeRefNtNtBY_6marker3MutNtNtCs5GBHJSLTkJw_3syn8lifetime8LifetimeNtNtB7_7set_val9SetValZSTNtB1i_14LeafOrInternalE11search_treeB1y_ECs39Y7jx17GSw_12serde_derive, symObjAddr: 0x36E0, symBinAddr: 0x3A034, symSize: 0x1D4 }
  - { offsetInCU: 0x14486, offset: 0x28ABD, size: 0x8, addend: 0x0, symName: __RINvMs_NtNtNtCsltZDfVD1VKL_5alloc11collections5btree6searchINtNtB7_4node7NodeRefNtNtBY_6marker5ImmutNtNtCs5GBHJSLTkJw_3syn8lifetime8LifetimeNtNtB7_7set_val9SetValZSTNtB1i_14LeafOrInternalE11search_treeB1A_ECs39Y7jx17GSw_12serde_derive, symObjAddr: 0x38B4, symBinAddr: 0x3A208, symSize: 0x1D4 }
  - { offsetInCU: 0x1470D, offset: 0x28D44, size: 0x8, addend: 0x0, symName: __RINvMsh_NtNtNtCsltZDfVD1VKL_5alloc11collections5btree4nodeINtB6_7NodeRefNtNtB6_6marker5DyingNtNtBc_6string6StringNtNtB8_7set_val9SetValZSTNtB1a_14LeafOrInternalE21deallocate_and_ascendNtNtBc_5alloc6GlobalECs39Y7jx17GSw_12serde_derive, symObjAddr: 0x3A88, symBinAddr: 0x3A3DC, symSize: 0x148 }
  - { offsetInCU: 0x14A48, offset: 0x2907F, size: 0x8, addend: 0x0, symName: __RINvMsh_NtNtNtCsltZDfVD1VKL_5alloc11collections5btree4nodeINtB6_7NodeRefNtNtB6_6marker5DyingNtNtCs5GBHJSLTkJw_3syn8lifetime8LifetimeNtNtB8_7set_val9SetValZSTNtB1a_14LeafOrInternalE21deallocate_and_ascendNtNtBc_5alloc6GlobalECs39Y7jx17GSw_12serde_derive, symObjAddr: 0x3BD0, symBinAddr: 0x3A524, symSize: 0x148 }
  - { offsetInCU: 0x14DDC, offset: 0x29413, size: 0x8, addend: 0x0, symName: __RINvMsj_NtNtNtCsltZDfVD1VKL_5alloc11collections5btree8navigateINtNtB8_4node6HandleINtB11_7NodeRefNtNtB11_6marker5DyingNtNtBc_6string6StringNtNtB8_7set_val9SetValZSTNtB1z_4LeafENtB1z_4EdgeE16deallocating_endNtNtBc_5alloc6GlobalECs39Y7jx17GSw_12serde_derive, symObjAddr: 0x3D18, symBinAddr: 0x3A66C, symSize: 0x10C }
  - { offsetInCU: 0x15212, offset: 0x29849, size: 0x8, addend: 0x0, symName: __RINvMsj_NtNtNtCsltZDfVD1VKL_5alloc11collections5btree8navigateINtNtB8_4node6HandleINtB11_7NodeRefNtNtB11_6marker5DyingNtNtBc_6string6StringNtNtB8_7set_val9SetValZSTNtB1z_4LeafENtB1z_4EdgeE17deallocating_nextNtNtBc_5alloc6GlobalECs39Y7jx17GSw_12serde_derive, symObjAddr: 0x3E24, symBinAddr: 0x3A778, symSize: 0x284 }
  - { offsetInCU: 0x1560F, offset: 0x29C46, size: 0x8, addend: 0x0, symName: __RINvMsj_NtNtNtCsltZDfVD1VKL_5alloc11collections5btree8navigateINtNtB8_4node6HandleINtB11_7NodeRefNtNtB11_6marker5DyingNtNtCs5GBHJSLTkJw_3syn8lifetime8LifetimeNtNtB8_7set_val9SetValZSTNtB1z_4LeafENtB1z_4EdgeE16deallocating_endNtNtBc_5alloc6GlobalECs39Y7jx17GSw_12serde_derive, symObjAddr: 0x40A8, symBinAddr: 0x3A9FC, symSize: 0x10C }
  - { offsetInCU: 0x15A45, offset: 0x2A07C, size: 0x8, addend: 0x0, symName: __RINvMsj_NtNtNtCsltZDfVD1VKL_5alloc11collections5btree8navigateINtNtB8_4node6HandleINtB11_7NodeRefNtNtB11_6marker5DyingNtNtCs5GBHJSLTkJw_3syn8lifetime8LifetimeNtNtB8_7set_val9SetValZSTNtB1z_4LeafENtB1z_4EdgeE17deallocating_nextNtNtBc_5alloc6GlobalECs39Y7jx17GSw_12serde_derive, symObjAddr: 0x41B4, symBinAddr: 0x3AB08, symSize: 0x284 }
  - { offsetInCU: 0x15DE9, offset: 0x2A420, size: 0x8, addend: 0x0, symName: __RINvMsl_NtNtNtCsltZDfVD1VKL_5alloc11collections5btree4nodeINtB6_7NodeRefNtNtB6_6marker3MutNtNtBc_6string6StringNtNtB8_7set_val9SetValZSTNtB1a_4LeafE12key_area_mutINtNtNtCs5fsojcNSbun_4core3ops5range5RangejESINtNtNtB2H_3mem12maybe_uninit11MaybeUninitB1q_EECs39Y7jx17GSw_12serde_derive, symObjAddr: 0x4438, symBinAddr: 0x3AD8C, symSize: 0x64 }
  - { offsetInCU: 0x15FC2, offset: 0x2A5F9, size: 0x8, addend: 0x0, symName: __RINvMsl_NtNtNtCsltZDfVD1VKL_5alloc11collections5btree4nodeINtB6_7NodeRefNtNtB6_6marker3MutNtNtBc_6string6StringNtNtB8_7set_val9SetValZSTNtB1a_4LeafE12key_area_mutINtNtNtCs5fsojcNSbun_4core3ops5range7RangeTojESINtNtNtB2H_3mem12maybe_uninit11MaybeUninitB1q_EECs39Y7jx17GSw_12serde_derive, symObjAddr: 0x449C, symBinAddr: 0x3ADF0, symSize: 0x5C }
  - { offsetInCU: 0x161A8, offset: 0x2A7DF, size: 0x8, addend: 0x0, symName: __RINvMsl_NtNtNtCsltZDfVD1VKL_5alloc11collections5btree4nodeINtB6_7NodeRefNtNtB6_6marker3MutNtNtBc_6string6StringNtNtB8_7set_val9SetValZSTNtB1a_4LeafE12key_area_mutjINtNtNtCs5fsojcNSbun_4core3mem12maybe_uninit11MaybeUninitB1q_EECs39Y7jx17GSw_12serde_derive, symObjAddr: 0x44F8, symBinAddr: 0x3AE4C, symSize: 0x5C }
  - { offsetInCU: 0x163B5, offset: 0x2A9EC, size: 0x8, addend: 0x0, symName: __RINvMsl_NtNtNtCsltZDfVD1VKL_5alloc11collections5btree4nodeINtB6_7NodeRefNtNtB6_6marker3MutNtNtBc_6string6StringNtNtB8_7set_val9SetValZSTNtB1a_4LeafE12val_area_mutINtNtNtCs5fsojcNSbun_4core3ops5range5RangejESINtNtNtB2H_3mem12maybe_uninit11MaybeUninitB1L_EECs39Y7jx17GSw_12serde_derive, symObjAddr: 0x4554, symBinAddr: 0x3AEA8, symSize: 0x64 }
  - { offsetInCU: 0x1658E, offset: 0x2ABC5, size: 0x8, addend: 0x0, symName: __RINvMsl_NtNtNtCsltZDfVD1VKL_5alloc11collections5btree4nodeINtB6_7NodeRefNtNtB6_6marker3MutNtNtBc_6string6StringNtNtB8_7set_val9SetValZSTNtB1a_4LeafE12val_area_mutINtNtNtCs5fsojcNSbun_4core3ops5range7RangeTojESINtNtNtB2H_3mem12maybe_uninit11MaybeUninitB1L_EECs39Y7jx17GSw_12serde_derive, symObjAddr: 0x45B8, symBinAddr: 0x3AF0C, symSize: 0x5C }
  - { offsetInCU: 0x16774, offset: 0x2ADAB, size: 0x8, addend: 0x0, symName: __RINvMsl_NtNtNtCsltZDfVD1VKL_5alloc11collections5btree4nodeINtB6_7NodeRefNtNtB6_6marker3MutNtNtBc_6string6StringNtNtB8_7set_val9SetValZSTNtB1a_4LeafE12val_area_mutjINtNtNtCs5fsojcNSbun_4core3mem12maybe_uninit11MaybeUninitB1L_EECs39Y7jx17GSw_12serde_derive, symObjAddr: 0x4614, symBinAddr: 0x3AF68, symSize: 0x5C }
  - { offsetInCU: 0x1694D, offset: 0x2AF84, size: 0x8, addend: 0x0, symName: __RINvMsl_NtNtNtCsltZDfVD1VKL_5alloc11collections5btree4nodeINtB6_7NodeRefNtNtB6_6marker3MutNtNtBc_6string6StringNtNtB8_7set_val9SetValZSTNtB1a_8InternalE12key_area_mutINtNtNtCs5fsojcNSbun_4core3ops5range5RangejESINtNtNtB2L_3mem12maybe_uninit11MaybeUninitB1q_EECs39Y7jx17GSw_12serde_derive, symObjAddr: 0x4670, symBinAddr: 0x3AFC4, symSize: 0x64 }
  - { offsetInCU: 0x16B26, offset: 0x2B15D, size: 0x8, addend: 0x0, symName: __RINvMsl_NtNtNtCsltZDfVD1VKL_5alloc11collections5btree4nodeINtB6_7NodeRefNtNtB6_6marker3MutNtNtBc_6string6StringNtNtB8_7set_val9SetValZSTNtB1a_8InternalE12key_area_mutINtNtNtCs5fsojcNSbun_4core3ops5range7RangeTojESINtNtNtB2L_3mem12maybe_uninit11MaybeUninitB1q_EECs39Y7jx17GSw_12serde_derive, symObjAddr: 0x46D4, symBinAddr: 0x3B028, symSize: 0x5C }
  - { offsetInCU: 0x16CFF, offset: 0x2B336, size: 0x8, addend: 0x0, symName: __RINvMsl_NtNtNtCsltZDfVD1VKL_5alloc11collections5btree4nodeINtB6_7NodeRefNtNtB6_6marker3MutNtNtBc_6string6StringNtNtB8_7set_val9SetValZSTNtB1a_8InternalE12key_area_mutjINtNtNtCs5fsojcNSbun_4core3mem12maybe_uninit11MaybeUninitB1q_EECs39Y7jx17GSw_12serde_derive, symObjAddr: 0x4730, symBinAddr: 0x3B084, symSize: 0x5C }
  - { offsetInCU: 0x16ED8, offset: 0x2B50F, size: 0x8, addend: 0x0, symName: __RINvMsl_NtNtNtCsltZDfVD1VKL_5alloc11collections5btree4nodeINtB6_7NodeRefNtNtB6_6marker3MutNtNtBc_6string6StringNtNtB8_7set_val9SetValZSTNtB1a_8InternalE12val_area_mutINtNtNtCs5fsojcNSbun_4core3ops5range5RangejESINtNtNtB2L_3mem12maybe_uninit11MaybeUninitB1L_EECs39Y7jx17GSw_12serde_derive, symObjAddr: 0x478C, symBinAddr: 0x3B0E0, symSize: 0x64 }
  - { offsetInCU: 0x170B1, offset: 0x2B6E8, size: 0x8, addend: 0x0, symName: __RINvMsl_NtNtNtCsltZDfVD1VKL_5alloc11collections5btree4nodeINtB6_7NodeRefNtNtB6_6marker3MutNtNtBc_6string6StringNtNtB8_7set_val9SetValZSTNtB1a_8InternalE12val_area_mutINtNtNtCs5fsojcNSbun_4core3ops5range7RangeTojESINtNtNtB2L_3mem12maybe_uninit11MaybeUninitB1L_EECs39Y7jx17GSw_12serde_derive, symObjAddr: 0x47F0, symBinAddr: 0x3B144, symSize: 0x5C }
  - { offsetInCU: 0x1728A, offset: 0x2B8C1, size: 0x8, addend: 0x0, symName: __RINvMsl_NtNtNtCsltZDfVD1VKL_5alloc11collections5btree4nodeINtB6_7NodeRefNtNtB6_6marker3MutNtNtBc_6string6StringNtNtB8_7set_val9SetValZSTNtB1a_8InternalE12val_area_mutjINtNtNtCs5fsojcNSbun_4core3mem12maybe_uninit11MaybeUninitB1L_EECs39Y7jx17GSw_12serde_derive, symObjAddr: 0x484C, symBinAddr: 0x3B1A0, symSize: 0x5C }
  - { offsetInCU: 0x17497, offset: 0x2BACE, size: 0x8, addend: 0x0, symName: __RINvMsl_NtNtNtCsltZDfVD1VKL_5alloc11collections5btree4nodeINtB6_7NodeRefNtNtB6_6marker3MutNtNtCs5GBHJSLTkJw_3syn8lifetime8LifetimeNtNtB8_7set_val9SetValZSTNtB1a_4LeafE12key_area_mutINtNtNtCs5fsojcNSbun_4core3ops5range5RangejESINtNtNtB30_3mem12maybe_uninit11MaybeUninitB1q_EECs39Y7jx17GSw_12serde_derive, symObjAddr: 0x48A8, symBinAddr: 0x3B1FC, symSize: 0x64 }
  - { offsetInCU: 0x17670, offset: 0x2BCA7, size: 0x8, addend: 0x0, symName: __RINvMsl_NtNtNtCsltZDfVD1VKL_5alloc11collections5btree4nodeINtB6_7NodeRefNtNtB6_6marker3MutNtNtCs5GBHJSLTkJw_3syn8lifetime8LifetimeNtNtB8_7set_val9SetValZSTNtB1a_4LeafE12key_area_mutINtNtNtCs5fsojcNSbun_4core3ops5range7RangeTojESINtNtNtB30_3mem12maybe_uninit11MaybeUninitB1q_EECs39Y7jx17GSw_12serde_derive, symObjAddr: 0x490C, symBinAddr: 0x3B260, symSize: 0x5C }
  - { offsetInCU: 0x17856, offset: 0x2BE8D, size: 0x8, addend: 0x0, symName: __RINvMsl_NtNtNtCsltZDfVD1VKL_5alloc11collections5btree4nodeINtB6_7NodeRefNtNtB6_6marker3MutNtNtCs5GBHJSLTkJw_3syn8lifetime8LifetimeNtNtB8_7set_val9SetValZSTNtB1a_4LeafE12key_area_mutjINtNtNtCs5fsojcNSbun_4core3mem12maybe_uninit11MaybeUninitB1q_EECs39Y7jx17GSw_12serde_derive, symObjAddr: 0x4968, symBinAddr: 0x3B2BC, symSize: 0x5C }
  - { offsetInCU: 0x17A2F, offset: 0x2C066, size: 0x8, addend: 0x0, symName: __RINvMsl_NtNtNtCsltZDfVD1VKL_5alloc11collections5btree4nodeINtB6_7NodeRefNtNtB6_6marker3MutNtNtCs5GBHJSLTkJw_3syn8lifetime8LifetimeNtNtB8_7set_val9SetValZSTNtB1a_4LeafE12val_area_mutINtNtNtCs5fsojcNSbun_4core3ops5range5RangejESINtNtNtB30_3mem12maybe_uninit11MaybeUninitB24_EECs39Y7jx17GSw_12serde_derive, symObjAddr: 0x49C4, symBinAddr: 0x3B318, symSize: 0x64 }
  - { offsetInCU: 0x17C08, offset: 0x2C23F, size: 0x8, addend: 0x0, symName: __RINvMsl_NtNtNtCsltZDfVD1VKL_5alloc11collections5btree4nodeINtB6_7NodeRefNtNtB6_6marker3MutNtNtCs5GBHJSLTkJw_3syn8lifetime8LifetimeNtNtB8_7set_val9SetValZSTNtB1a_4LeafE12val_area_mutINtNtNtCs5fsojcNSbun_4core3ops5range7RangeTojESINtNtNtB30_3mem12maybe_uninit11MaybeUninitB24_EECs39Y7jx17GSw_12serde_derive, symObjAddr: 0x4A28, symBinAddr: 0x3B37C, symSize: 0x5C }
  - { offsetInCU: 0x17DE1, offset: 0x2C418, size: 0x8, addend: 0x0, symName: __RINvMsl_NtNtNtCsltZDfVD1VKL_5alloc11collections5btree4nodeINtB6_7NodeRefNtNtB6_6marker3MutNtNtCs5GBHJSLTkJw_3syn8lifetime8LifetimeNtNtB8_7set_val9SetValZSTNtB1a_4LeafE12val_area_mutjINtNtNtCs5fsojcNSbun_4core3mem12maybe_uninit11MaybeUninitB24_EECs39Y7jx17GSw_12serde_derive, symObjAddr: 0x4A84, symBinAddr: 0x3B3D8, symSize: 0x5C }
  - { offsetInCU: 0x17FBA, offset: 0x2C5F1, size: 0x8, addend: 0x0, symName: __RINvMsl_NtNtNtCsltZDfVD1VKL_5alloc11collections5btree4nodeINtB6_7NodeRefNtNtB6_6marker3MutNtNtCs5GBHJSLTkJw_3syn8lifetime8LifetimeNtNtB8_7set_val9SetValZSTNtB1a_8InternalE12key_area_mutINtNtNtCs5fsojcNSbun_4core3ops5range5RangejESINtNtNtB34_3mem12maybe_uninit11MaybeUninitB1q_EECs39Y7jx17GSw_12serde_derive, symObjAddr: 0x4AE0, symBinAddr: 0x3B434, symSize: 0x64 }
  - { offsetInCU: 0x18193, offset: 0x2C7CA, size: 0x8, addend: 0x0, symName: __RINvMsl_NtNtNtCsltZDfVD1VKL_5alloc11collections5btree4nodeINtB6_7NodeRefNtNtB6_6marker3MutNtNtCs5GBHJSLTkJw_3syn8lifetime8LifetimeNtNtB8_7set_val9SetValZSTNtB1a_8InternalE12key_area_mutINtNtNtCs5fsojcNSbun_4core3ops5range7RangeTojESINtNtNtB34_3mem12maybe_uninit11MaybeUninitB1q_EECs39Y7jx17GSw_12serde_derive, symObjAddr: 0x4B44, symBinAddr: 0x3B498, symSize: 0x5C }
  - { offsetInCU: 0x1836C, offset: 0x2C9A3, size: 0x8, addend: 0x0, symName: __RINvMsl_NtNtNtCsltZDfVD1VKL_5alloc11collections5btree4nodeINtB6_7NodeRefNtNtB6_6marker3MutNtNtCs5GBHJSLTkJw_3syn8lifetime8LifetimeNtNtB8_7set_val9SetValZSTNtB1a_8InternalE12key_area_mutjINtNtNtCs5fsojcNSbun_4core3mem12maybe_uninit11MaybeUninitB1q_EECs39Y7jx17GSw_12serde_derive, symObjAddr: 0x4BA0, symBinAddr: 0x3B4F4, symSize: 0x5C }
  - { offsetInCU: 0x18545, offset: 0x2CB7C, size: 0x8, addend: 0x0, symName: __RINvMsl_NtNtNtCsltZDfVD1VKL_5alloc11collections5btree4nodeINtB6_7NodeRefNtNtB6_6marker3MutNtNtCs5GBHJSLTkJw_3syn8lifetime8LifetimeNtNtB8_7set_val9SetValZSTNtB1a_8InternalE12val_area_mutINtNtNtCs5fsojcNSbun_4core3ops5range5RangejESINtNtNtB34_3mem12maybe_uninit11MaybeUninitB24_EECs39Y7jx17GSw_12serde_derive, symObjAddr: 0x4BFC, symBinAddr: 0x3B550, symSize: 0x64 }
  - { offsetInCU: 0x1871E, offset: 0x2CD55, size: 0x8, addend: 0x0, symName: __RINvMsl_NtNtNtCsltZDfVD1VKL_5alloc11collections5btree4nodeINtB6_7NodeRefNtNtB6_6marker3MutNtNtCs5GBHJSLTkJw_3syn8lifetime8LifetimeNtNtB8_7set_val9SetValZSTNtB1a_8InternalE12val_area_mutINtNtNtCs5fsojcNSbun_4core3ops5range7RangeTojESINtNtNtB34_3mem12maybe_uninit11MaybeUninitB24_EECs39Y7jx17GSw_12serde_derive, symObjAddr: 0x4C60, symBinAddr: 0x3B5B4, symSize: 0x5C }
  - { offsetInCU: 0x188F7, offset: 0x2CF2E, size: 0x8, addend: 0x0, symName: __RINvMsl_NtNtNtCsltZDfVD1VKL_5alloc11collections5btree4nodeINtB6_7NodeRefNtNtB6_6marker3MutNtNtCs5GBHJSLTkJw_3syn8lifetime8LifetimeNtNtB8_7set_val9SetValZSTNtB1a_8InternalE12val_area_mutjINtNtNtCs5fsojcNSbun_4core3mem12maybe_uninit11MaybeUninitB24_EECs39Y7jx17GSw_12serde_derive, symObjAddr: 0x4CBC, symBinAddr: 0x3B610, symSize: 0x5C }
  - { offsetInCU: 0x18AA0, offset: 0x2D0D7, size: 0x8, addend: 0x0, symName: __RINvMsm_NtNtNtCsltZDfVD1VKL_5alloc11collections5btree4nodeINtB6_7NodeRefNtNtB6_6marker3MutNtNtBc_6string6StringNtNtB8_7set_val9SetValZSTNtB1a_8InternalE13edge_area_mutINtNtNtCs5fsojcNSbun_4core3ops5range5RangejESINtNtNtB2M_3mem12maybe_uninit11MaybeUninitINtNtNtB2M_3ptr8non_null7NonNullINtB6_8LeafNodeB1q_B1L_EEEECs39Y7jx17GSw_12serde_derive, symObjAddr: 0x4D18, symBinAddr: 0x3B66C, symSize: 0x64 }
  - { offsetInCU: 0x18C14, offset: 0x2D24B, size: 0x8, addend: 0x0, symName: __RINvMsm_NtNtNtCsltZDfVD1VKL_5alloc11collections5btree4nodeINtB6_7NodeRefNtNtB6_6marker3MutNtNtBc_6string6StringNtNtB8_7set_val9SetValZSTNtB1a_8InternalE13edge_area_mutINtNtNtCs5fsojcNSbun_4core3ops5range7RangeTojESINtNtNtB2M_3mem12maybe_uninit11MaybeUninitINtNtNtB2M_3ptr8non_null7NonNullINtB6_8LeafNodeB1q_B1L_EEEECs39Y7jx17GSw_12serde_derive, symObjAddr: 0x4D7C, symBinAddr: 0x3B6D0, symSize: 0x5C }
  - { offsetInCU: 0x18D88, offset: 0x2D3BF, size: 0x8, addend: 0x0, symName: __RINvMsm_NtNtNtCsltZDfVD1VKL_5alloc11collections5btree4nodeINtB6_7NodeRefNtNtB6_6marker3MutNtNtBc_6string6StringNtNtB8_7set_val9SetValZSTNtB1a_8InternalE13edge_area_mutjINtNtNtCs5fsojcNSbun_4core3mem12maybe_uninit11MaybeUninitINtNtNtB2N_3ptr8non_null7NonNullINtB6_8LeafNodeB1q_B1L_EEEECs39Y7jx17GSw_12serde_derive, symObjAddr: 0x4DD8, symBinAddr: 0x3B72C, symSize: 0x5C }
  - { offsetInCU: 0x18EFC, offset: 0x2D533, size: 0x8, addend: 0x0, symName: __RINvMsm_NtNtNtCsltZDfVD1VKL_5alloc11collections5btree4nodeINtB6_7NodeRefNtNtB6_6marker3MutNtNtCs5GBHJSLTkJw_3syn8lifetime8LifetimeNtNtB8_7set_val9SetValZSTNtB1a_8InternalE13edge_area_mutINtNtNtCs5fsojcNSbun_4core3ops5range5RangejESINtNtNtB35_3mem12maybe_uninit11MaybeUninitINtNtNtB35_3ptr8non_null7NonNullINtB6_8LeafNodeB1q_B24_EEEECs39Y7jx17GSw_12serde_derive, symObjAddr: 0x4E34, symBinAddr: 0x3B788, symSize: 0x64 }
  - { offsetInCU: 0x19070, offset: 0x2D6A7, size: 0x8, addend: 0x0, symName: __RINvMsm_NtNtNtCsltZDfVD1VKL_5alloc11collections5btree4nodeINtB6_7NodeRefNtNtB6_6marker3MutNtNtCs5GBHJSLTkJw_3syn8lifetime8LifetimeNtNtB8_7set_val9SetValZSTNtB1a_8InternalE13edge_area_mutINtNtNtCs5fsojcNSbun_4core3ops5range7RangeTojESINtNtNtB35_3mem12maybe_uninit11MaybeUninitINtNtNtB35_3ptr8non_null7NonNullINtB6_8LeafNodeB1q_B24_EEEECs39Y7jx17GSw_12serde_derive, symObjAddr: 0x4E98, symBinAddr: 0x3B7EC, symSize: 0x5C }
  - { offsetInCU: 0x191E4, offset: 0x2D81B, size: 0x8, addend: 0x0, symName: __RINvMsm_NtNtNtCsltZDfVD1VKL_5alloc11collections5btree4nodeINtB6_7NodeRefNtNtB6_6marker3MutNtNtCs5GBHJSLTkJw_3syn8lifetime8LifetimeNtNtB8_7set_val9SetValZSTNtB1a_8InternalE13edge_area_mutjINtNtNtCs5fsojcNSbun_4core3mem12maybe_uninit11MaybeUninitINtNtNtB36_3ptr8non_null7NonNullINtB6_8LeafNodeB1q_B24_EEEECs39Y7jx17GSw_12serde_derive, symObjAddr: 0x4EF4, symBinAddr: 0x3B848, symSize: 0x5C }
  - { offsetInCU: 0x19367, offset: 0x2D99E, size: 0x8, addend: 0x0, symName: __RINvMsp_NtNtNtCsltZDfVD1VKL_5alloc11collections5btree4nodeINtB6_7NodeRefNtNtB6_6marker3MutNtNtBc_6string6StringNtNtB8_7set_val9SetValZSTNtB1a_8InternalE30correct_childrens_parent_linksINtNtNtCs5fsojcNSbun_4core3ops5range14RangeInclusivejEECs39Y7jx17GSw_12serde_derive, symObjAddr: 0x4F50, symBinAddr: 0x3B8A4, symSize: 0xBC }
  - { offsetInCU: 0x194BE, offset: 0x2DAF5, size: 0x8, addend: 0x0, symName: __RINvMsp_NtNtNtCsltZDfVD1VKL_5alloc11collections5btree4nodeINtB6_7NodeRefNtNtB6_6marker3MutNtNtBc_6string6StringNtNtB8_7set_val9SetValZSTNtB1a_8InternalE30correct_childrens_parent_linksINtNtNtCs5fsojcNSbun_4core3ops5range5RangejEECs39Y7jx17GSw_12serde_derive, symObjAddr: 0x500C, symBinAddr: 0x3B960, symSize: 0xBC }
  - { offsetInCU: 0x19614, offset: 0x2DC4B, size: 0x8, addend: 0x0, symName: __RINvMsp_NtNtNtCsltZDfVD1VKL_5alloc11collections5btree4nodeINtB6_7NodeRefNtNtB6_6marker3MutNtNtCs5GBHJSLTkJw_3syn8lifetime8LifetimeNtNtB8_7set_val9SetValZSTNtB1a_8InternalE30correct_childrens_parent_linksINtNtNtCs5fsojcNSbun_4core3ops5range14RangeInclusivejEECs39Y7jx17GSw_12serde_derive, symObjAddr: 0x50C8, symBinAddr: 0x3BA1C, symSize: 0xBC }
  - { offsetInCU: 0x1976B, offset: 0x2DDA2, size: 0x8, addend: 0x0, symName: __RINvMsp_NtNtNtCsltZDfVD1VKL_5alloc11collections5btree4nodeINtB6_7NodeRefNtNtB6_6marker3MutNtNtCs5GBHJSLTkJw_3syn8lifetime8LifetimeNtNtB8_7set_val9SetValZSTNtB1a_8InternalE30correct_childrens_parent_linksINtNtNtCs5fsojcNSbun_4core3ops5range5RangejEECs39Y7jx17GSw_12serde_derive, symObjAddr: 0x5184, symBinAddr: 0x3BAD8, symSize: 0xBC }
  - { offsetInCU: 0x198AB, offset: 0x2DEE2, size: 0x8, addend: 0x0, symName: __RINvMss_NtNtNtCsltZDfVD1VKL_5alloc11collections5btree4nodeINtB6_7NodeRefNtNtB6_6marker5OwnedNtNtCs5GBHJSLTkJw_3syn8lifetime8LifetimeNtNtB8_7set_val9SetValZSTNtB1a_14LeafOrInternalE3newNtNtBc_5alloc6GlobalECs39Y7jx17GSw_12serde_derive, symObjAddr: 0x5240, symBinAddr: 0x3BB94, symSize: 0x3C }
  - { offsetInCU: 0x19D92, offset: 0x2E3C9, size: 0x8, addend: 0x0, symName: __RNvMsJ_NtNtNtCsltZDfVD1VKL_5alloc11collections5btree4nodeINtB5_6HandleINtB5_7NodeRefNtNtB5_6marker3MutNtNtBb_6string6StringNtNtB7_7set_val9SetValZSTNtB1m_4LeafENtB1m_4EdgeE10insert_fitCs39Y7jx17GSw_12serde_derive, symObjAddr: 0x5B68, symBinAddr: 0x3C4BC, symSize: 0x170 }
  - { offsetInCU: 0x1A0F1, offset: 0x2E728, size: 0x8, addend: 0x0, symName: __RNvMsJ_NtNtNtCsltZDfVD1VKL_5alloc11collections5btree4nodeINtB5_6HandleINtB5_7NodeRefNtNtB5_6marker3MutNtNtCs5GBHJSLTkJw_3syn8lifetime8LifetimeNtNtB7_7set_val9SetValZSTNtB1m_4LeafENtB1m_4EdgeE10insert_fitCs39Y7jx17GSw_12serde_derive, symObjAddr: 0x5CD8, symBinAddr: 0x3C62C, symSize: 0x184 }
  - { offsetInCU: 0x1A41B, offset: 0x2EA52, size: 0x8, addend: 0x0, symName: __RNvMsL_NtNtNtCsltZDfVD1VKL_5alloc11collections5btree4nodeINtB5_6HandleINtB5_7NodeRefNtNtB5_6marker3MutNtNtBb_6string6StringNtNtB7_7set_val9SetValZSTNtB1m_8InternalENtB1m_4EdgeE19correct_parent_linkCs39Y7jx17GSw_12serde_derive, symObjAddr: 0x5E5C, symBinAddr: 0x3C7B0, symSize: 0xD0 }
  - { offsetInCU: 0x1A7AF, offset: 0x2EDE6, size: 0x8, addend: 0x0, symName: __RNvMsL_NtNtNtCsltZDfVD1VKL_5alloc11collections5btree4nodeINtB5_6HandleINtB5_7NodeRefNtNtB5_6marker3MutNtNtCs5GBHJSLTkJw_3syn8lifetime8LifetimeNtNtB7_7set_val9SetValZSTNtB1m_8InternalENtB1m_4EdgeE19correct_parent_linkCs39Y7jx17GSw_12serde_derive, symObjAddr: 0x5F2C, symBinAddr: 0x3C880, symSize: 0xD0 }
  - { offsetInCU: 0x1AB23, offset: 0x2F15A, size: 0x8, addend: 0x0, symName: __RNvMsM_NtNtNtCsltZDfVD1VKL_5alloc11collections5btree4nodeINtB5_6HandleINtB5_7NodeRefNtNtB5_6marker3MutNtNtBb_6string6StringNtNtB7_7set_val9SetValZSTNtB1m_8InternalENtB1m_4EdgeE10insert_fitCs39Y7jx17GSw_12serde_derive, symObjAddr: 0x5FFC, symBinAddr: 0x3C950, symSize: 0x1CC }
  - { offsetInCU: 0x1ADFB, offset: 0x2F432, size: 0x8, addend: 0x0, symName: __RNvMsM_NtNtNtCsltZDfVD1VKL_5alloc11collections5btree4nodeINtB5_6HandleINtB5_7NodeRefNtNtB5_6marker3MutNtNtCs5GBHJSLTkJw_3syn8lifetime8LifetimeNtNtB7_7set_val9SetValZSTNtB1m_8InternalENtB1m_4EdgeE10insert_fitCs39Y7jx17GSw_12serde_derive, symObjAddr: 0x61C8, symBinAddr: 0x3CB1C, symSize: 0x1D8 }
  - { offsetInCU: 0x1B059, offset: 0x2F690, size: 0x8, addend: 0x0, symName: __RNvMsO_NtNtNtCsltZDfVD1VKL_5alloc11collections5btree4nodeINtB5_6HandleINtB5_7NodeRefNtNtB5_6marker3MutNtNtBb_6string6StringNtNtB7_7set_val9SetValZSTNtB1m_8InternalENtB1m_4EdgeE7descendCs39Y7jx17GSw_12serde_derive, symObjAddr: 0x63A0, symBinAddr: 0x3CCF4, symSize: 0xD4 }
  - { offsetInCU: 0x1B3A9, offset: 0x2F9E0, size: 0x8, addend: 0x0, symName: __RNvMsO_NtNtNtCsltZDfVD1VKL_5alloc11collections5btree4nodeINtB5_6HandleINtB5_7NodeRefNtNtB5_6marker3MutNtNtCs5GBHJSLTkJw_3syn8lifetime8LifetimeNtNtB7_7set_val9SetValZSTNtB1m_8InternalENtB1m_4EdgeE7descendCs39Y7jx17GSw_12serde_derive, symObjAddr: 0x6474, symBinAddr: 0x3CDC8, symSize: 0xD4 }
  - { offsetInCU: 0x1B6CE, offset: 0x2FD05, size: 0x8, addend: 0x0, symName: __RNvMsO_NtNtNtCsltZDfVD1VKL_5alloc11collections5btree4nodeINtB5_6HandleINtB5_7NodeRefNtNtB5_6marker5DyingNtNtBb_6string6StringNtNtB7_7set_val9SetValZSTNtB1m_8InternalENtB1m_4EdgeE7descendCs39Y7jx17GSw_12serde_derive, symObjAddr: 0x6548, symBinAddr: 0x3CE9C, symSize: 0xD4 }
  - { offsetInCU: 0x1B9F3, offset: 0x3002A, size: 0x8, addend: 0x0, symName: __RNvMsO_NtNtNtCsltZDfVD1VKL_5alloc11collections5btree4nodeINtB5_6HandleINtB5_7NodeRefNtNtB5_6marker5DyingNtNtCs5GBHJSLTkJw_3syn8lifetime8LifetimeNtNtB7_7set_val9SetValZSTNtB1m_8InternalENtB1m_4EdgeE7descendCs39Y7jx17GSw_12serde_derive, symObjAddr: 0x661C, symBinAddr: 0x3CF70, symSize: 0xD4 }
  - { offsetInCU: 0x1BD18, offset: 0x3034F, size: 0x8, addend: 0x0, symName: __RNvMsO_NtNtNtCsltZDfVD1VKL_5alloc11collections5btree4nodeINtB5_6HandleINtB5_7NodeRefNtNtB5_6marker5ImmutNtNtBb_6string6StringNtNtB7_7set_val9SetValZSTNtB1m_8InternalENtB1m_4EdgeE7descendCs39Y7jx17GSw_12serde_derive, symObjAddr: 0x66F0, symBinAddr: 0x3D044, symSize: 0xD4 }
  - { offsetInCU: 0x1C03D, offset: 0x30674, size: 0x8, addend: 0x0, symName: __RNvMsO_NtNtNtCsltZDfVD1VKL_5alloc11collections5btree4nodeINtB5_6HandleINtB5_7NodeRefNtNtB5_6marker5ImmutNtNtCs5GBHJSLTkJw_3syn8lifetime8LifetimeNtNtB7_7set_val9SetValZSTNtB1m_8InternalENtB1m_4EdgeE7descendCs39Y7jx17GSw_12serde_derive, symObjAddr: 0x67C4, symBinAddr: 0x3D118, symSize: 0xD4 }
  - { offsetInCU: 0x1C4BB, offset: 0x30AF2, size: 0x8, addend: 0x0, symName: __RNvMsP_NtNtNtCsltZDfVD1VKL_5alloc11collections5btree4nodeINtB5_6HandleINtB5_7NodeRefNtNtB5_6marker5ImmutNtNtBb_6string6StringNtNtB7_7set_val9SetValZSTNtB1m_14LeafOrInternalENtB1m_2KVE7into_kvCs39Y7jx17GSw_12serde_derive, symObjAddr: 0x6898, symBinAddr: 0x3D1EC, symSize: 0x16C }
  - { offsetInCU: 0x1CAE1, offset: 0x31118, size: 0x8, addend: 0x0, symName: __RNvMsP_NtNtNtCsltZDfVD1VKL_5alloc11collections5btree4nodeINtB5_6HandleINtB5_7NodeRefNtNtB5_6marker5ImmutNtNtCs5GBHJSLTkJw_3syn8lifetime8LifetimeNtNtB7_7set_val9SetValZSTNtB1m_14LeafOrInternalENtB1m_2KVE7into_kvCs39Y7jx17GSw_12serde_derive, symObjAddr: 0x6A04, symBinAddr: 0x3D358, symSize: 0x16C }
  - { offsetInCU: 0x1D0BE, offset: 0x316F5, size: 0x8, addend: 0x0, symName: __RNvMsP_NtNtNtCsltZDfVD1VKL_5alloc11collections5btree4nodeINtB5_6HandleINtB5_7NodeRefNtNtB5_6marker5ImmutNtNtCs5GBHJSLTkJw_3syn8lifetime8LifetimeNtNtB7_7set_val9SetValZSTNtB1m_4LeafENtB1m_2KVE7into_kvCs39Y7jx17GSw_12serde_derive, symObjAddr: 0x6B70, symBinAddr: 0x3D4C4, symSize: 0x16C }
  - { offsetInCU: 0x1D68E, offset: 0x31CC5, size: 0x8, addend: 0x0, symName: __RNvMsP_NtNtNtCsltZDfVD1VKL_5alloc11collections5btree4nodeINtB5_6HandleINtB5_7NodeRefNtNtB5_6marker5ImmutNtNtCs5GBHJSLTkJw_3syn8lifetime8LifetimeNtNtB7_7set_val9SetValZSTNtB1m_8InternalENtB1m_2KVE7into_kvCs39Y7jx17GSw_12serde_derive, symObjAddr: 0x6CDC, symBinAddr: 0x3D630, symSize: 0x16C }
  - { offsetInCU: 0x1DC2F, offset: 0x32266, size: 0x8, addend: 0x0, symName: __RNvMsQ_NtNtNtCsltZDfVD1VKL_5alloc11collections5btree4nodeINtB5_6HandleINtB5_7NodeRefNtNtB5_6marker3MutNtNtBb_6string6StringNtNtB7_7set_val9SetValZSTNtB1m_4LeafENtB1m_2KVE12into_val_mutCs39Y7jx17GSw_12serde_derive, symObjAddr: 0x6E48, symBinAddr: 0x3D79C, symSize: 0xB4 }
  - { offsetInCU: 0x1DEC1, offset: 0x324F8, size: 0x8, addend: 0x0, symName: __RNvMsQ_NtNtNtCsltZDfVD1VKL_5alloc11collections5btree4nodeINtB5_6HandleINtB5_7NodeRefNtNtB5_6marker3MutNtNtCs5GBHJSLTkJw_3syn8lifetime8LifetimeNtNtB7_7set_val9SetValZSTNtB1m_4LeafENtB1m_2KVE12into_val_mutCs39Y7jx17GSw_12serde_derive, symObjAddr: 0x6EFC, symBinAddr: 0x3D850, symSize: 0xB4 }
  - { offsetInCU: 0x1E23F, offset: 0x32876, size: 0x8, addend: 0x0, symName: __RNvMsS_NtNtNtCsltZDfVD1VKL_5alloc11collections5btree4nodeINtB5_6HandleINtB5_7NodeRefNtNtB5_6marker3MutNtNtBb_6string6StringNtNtB7_7set_val9SetValZSTNtB1m_14LeafOrInternalENtB1m_2KVE6kv_mutCs39Y7jx17GSw_12serde_derive, symObjAddr: 0x6FB0, symBinAddr: 0x3D904, symSize: 0x15C }
  - { offsetInCU: 0x1E7CE, offset: 0x32E05, size: 0x8, addend: 0x0, symName: __RNvMsS_NtNtNtCsltZDfVD1VKL_5alloc11collections5btree4nodeINtB5_6HandleINtB5_7NodeRefNtNtB5_6marker3MutNtNtCs5GBHJSLTkJw_3syn8lifetime8LifetimeNtNtB7_7set_val9SetValZSTNtB1m_14LeafOrInternalENtB1m_2KVE6kv_mutCs39Y7jx17GSw_12serde_derive, symObjAddr: 0x710C, symBinAddr: 0x3DA60, symSize: 0x15C }
  - { offsetInCU: 0x1ECC7, offset: 0x332FE, size: 0x8, addend: 0x0, symName: __RNvMsT_NtNtNtCsltZDfVD1VKL_5alloc11collections5btree4nodeINtB5_6HandleINtB5_7NodeRefNtNtB5_6marker5DyingNtNtBb_6string6StringNtNtB7_7set_val9SetValZSTNtB1m_14LeafOrInternalENtB1m_2KVE12drop_key_valCs39Y7jx17GSw_12serde_derive, symObjAddr: 0x7268, symBinAddr: 0x3DBBC, symSize: 0x144 }
  - { offsetInCU: 0x1F129, offset: 0x33760, size: 0x8, addend: 0x0, symName: __RNvMsT_NtNtNtCsltZDfVD1VKL_5alloc11collections5btree4nodeINtB5_6HandleINtB5_7NodeRefNtNtB5_6marker5DyingNtNtCs5GBHJSLTkJw_3syn8lifetime8LifetimeNtNtB7_7set_val9SetValZSTNtB1m_14LeafOrInternalENtB1m_2KVE12drop_key_valCs39Y7jx17GSw_12serde_derive, symObjAddr: 0x73AC, symBinAddr: 0x3DD00, symSize: 0x144 }
  - { offsetInCU: 0x1F65A, offset: 0x33C91, size: 0x8, addend: 0x0, symName: __RNvMsU_NtNtNtCsltZDfVD1VKL_5alloc11collections5btree4nodeINtB5_6HandleINtB5_7NodeRefNtNtB5_6marker3MutNtNtBb_6string6StringNtNtB7_7set_val9SetValZSTNtB1m_4LeafENtB1m_2KVE15split_leaf_dataCs39Y7jx17GSw_12serde_derive, symObjAddr: 0x74F0, symBinAddr: 0x3DE44, symSize: 0x278 }
  - { offsetInCU: 0x1FC62, offset: 0x34299, size: 0x8, addend: 0x0, symName: __RNvMsU_NtNtNtCsltZDfVD1VKL_5alloc11collections5btree4nodeINtB5_6HandleINtB5_7NodeRefNtNtB5_6marker3MutNtNtBb_6string6StringNtNtB7_7set_val9SetValZSTNtB1m_8InternalENtB1m_2KVE15split_leaf_dataCs39Y7jx17GSw_12serde_derive, symObjAddr: 0x7768, symBinAddr: 0x3E0BC, symSize: 0x278 }
  - { offsetInCU: 0x2026A, offset: 0x348A1, size: 0x8, addend: 0x0, symName: __RNvMsU_NtNtNtCsltZDfVD1VKL_5alloc11collections5btree4nodeINtB5_6HandleINtB5_7NodeRefNtNtB5_6marker3MutNtNtCs5GBHJSLTkJw_3syn8lifetime8LifetimeNtNtB7_7set_val9SetValZSTNtB1m_4LeafENtB1m_2KVE15split_leaf_dataCs39Y7jx17GSw_12serde_derive, symObjAddr: 0x79E0, symBinAddr: 0x3E334, symSize: 0x280 }
  - { offsetInCU: 0x20872, offset: 0x34EA9, size: 0x8, addend: 0x0, symName: __RNvMsU_NtNtNtCsltZDfVD1VKL_5alloc11collections5btree4nodeINtB5_6HandleINtB5_7NodeRefNtNtB5_6marker3MutNtNtCs5GBHJSLTkJw_3syn8lifetime8LifetimeNtNtB7_7set_val9SetValZSTNtB1m_8InternalENtB1m_2KVE15split_leaf_dataCs39Y7jx17GSw_12serde_derive, symObjAddr: 0x7C60, symBinAddr: 0x3E5B4, symSize: 0x280 }
  - { offsetInCU: 0x20E57, offset: 0x3548E, size: 0x8, addend: 0x0, symName: __RNvMse_NtNtNtCsltZDfVD1VKL_5alloc11collections5btree4nodeINtB5_7NodeRefNtNtB5_6marker3MutNtNtBb_6string6StringNtNtB7_7set_val9SetValZSTNtB19_14LeafOrInternalE6ascendCs39Y7jx17GSw_12serde_derive, symObjAddr: 0x7EE0, symBinAddr: 0x3E834, symSize: 0x1B0 }
  - { offsetInCU: 0x21207, offset: 0x3583E, size: 0x8, addend: 0x0, symName: __RNvMse_NtNtNtCsltZDfVD1VKL_5alloc11collections5btree4nodeINtB5_7NodeRefNtNtB5_6marker3MutNtNtCs5GBHJSLTkJw_3syn8lifetime8LifetimeNtNtB7_7set_val9SetValZSTNtB19_14LeafOrInternalE6ascendCs39Y7jx17GSw_12serde_derive, symObjAddr: 0x8090, symBinAddr: 0x3E9E4, symSize: 0x1B0 }
  - { offsetInCU: 0x21590, offset: 0x35BC7, size: 0x8, addend: 0x0, symName: __RNvMse_NtNtNtCsltZDfVD1VKL_5alloc11collections5btree4nodeINtB5_7NodeRefNtNtB5_6marker5DyingNtNtBb_6string6StringNtNtB7_7set_val9SetValZSTNtB19_14LeafOrInternalE6ascendCs39Y7jx17GSw_12serde_derive, symObjAddr: 0x8240, symBinAddr: 0x3EB94, symSize: 0x1B0 }
  - { offsetInCU: 0x21919, offset: 0x35F50, size: 0x8, addend: 0x0, symName: __RNvMse_NtNtNtCsltZDfVD1VKL_5alloc11collections5btree4nodeINtB5_7NodeRefNtNtB5_6marker5DyingNtNtCs5GBHJSLTkJw_3syn8lifetime8LifetimeNtNtB7_7set_val9SetValZSTNtB19_14LeafOrInternalE6ascendCs39Y7jx17GSw_12serde_derive, symObjAddr: 0x83F0, symBinAddr: 0x3ED44, symSize: 0x1B0 }
  - { offsetInCU: 0x21CA2, offset: 0x362D9, size: 0x8, addend: 0x0, symName: __RNvMse_NtNtNtCsltZDfVD1VKL_5alloc11collections5btree4nodeINtB5_7NodeRefNtNtB5_6marker5ImmutNtNtBb_6string6StringNtNtB7_7set_val9SetValZSTNtB19_14LeafOrInternalE6ascendCs39Y7jx17GSw_12serde_derive, symObjAddr: 0x85A0, symBinAddr: 0x3EEF4, symSize: 0x1B0 }
  - { offsetInCU: 0x2202B, offset: 0x36662, size: 0x8, addend: 0x0, symName: __RNvMse_NtNtNtCsltZDfVD1VKL_5alloc11collections5btree4nodeINtB5_7NodeRefNtNtB5_6marker5ImmutNtNtCs5GBHJSLTkJw_3syn8lifetime8LifetimeNtNtB7_7set_val9SetValZSTNtB19_14LeafOrInternalE6ascendCs39Y7jx17GSw_12serde_derive, symObjAddr: 0x8750, symBinAddr: 0x3F0A4, symSize: 0x1B0 }
  - { offsetInCU: 0x222D7, offset: 0x3690E, size: 0x8, addend: 0x0, symName: __RNvMsg_NtNtNtCsltZDfVD1VKL_5alloc11collections5btree4nodeINtB5_7NodeRefNtNtB5_6marker5ImmutNtNtBb_6string6StringNtNtB7_7set_val9SetValZSTNtB19_14LeafOrInternalE4keysCs39Y7jx17GSw_12serde_derive, symObjAddr: 0x8900, symBinAddr: 0x3F254, symSize: 0xD8 }
  - { offsetInCU: 0x22647, offset: 0x36C7E, size: 0x8, addend: 0x0, symName: __RNvMsg_NtNtNtCsltZDfVD1VKL_5alloc11collections5btree4nodeINtB5_7NodeRefNtNtB5_6marker5ImmutNtNtCs5GBHJSLTkJw_3syn8lifetime8LifetimeNtNtB7_7set_val9SetValZSTNtB19_14LeafOrInternalE4keysCs39Y7jx17GSw_12serde_derive, symObjAddr: 0x89D8, symBinAddr: 0x3F32C, symSize: 0xD8 }
  - { offsetInCU: 0x22B88, offset: 0x371BF, size: 0x8, addend: 0x0, symName: __RNvMsh_NtNtNtCsltZDfVD1VKL_5alloc11collections5btree8navigateINtNtB7_4node6HandleINtB10_7NodeRefNtNtB10_6marker5ImmutNtNtBb_6string6StringNtNtB7_7set_val9SetValZSTNtB1y_4LeafENtB1y_4EdgeE7next_kvCs39Y7jx17GSw_12serde_derive, symObjAddr: 0x8AB0, symBinAddr: 0x3F404, symSize: 0x1C4 }
  - { offsetInCU: 0x230BE, offset: 0x376F5, size: 0x8, addend: 0x0, symName: __RNvMsh_NtNtNtCsltZDfVD1VKL_5alloc11collections5btree8navigateINtNtB7_4node6HandleINtB10_7NodeRefNtNtB10_6marker5ImmutNtNtCs5GBHJSLTkJw_3syn8lifetime8LifetimeNtNtB7_7set_val9SetValZSTNtB1y_4LeafENtB1y_4EdgeE7next_kvCs39Y7jx17GSw_12serde_derive, symObjAddr: 0x8C74, symBinAddr: 0x3F5C8, symSize: 0x1C4 }
  - { offsetInCU: 0x234BC, offset: 0x37AF3, size: 0x8, addend: 0x0, symName: __RNvMsn_NtNtNtCsltZDfVD1VKL_5alloc11collections5btree8navigateINtNtB7_4node7NodeRefNtNtB10_6marker5DyingNtNtBb_6string6StringNtNtB7_7set_val9SetValZSTNtB1k_14LeafOrInternalE15first_leaf_edgeCs39Y7jx17GSw_12serde_derive, symObjAddr: 0x8E38, symBinAddr: 0x3F78C, symSize: 0x104 }
  - { offsetInCU: 0x23715, offset: 0x37D4C, size: 0x8, addend: 0x0, symName: __RNvMsn_NtNtNtCsltZDfVD1VKL_5alloc11collections5btree8navigateINtNtB7_4node7NodeRefNtNtB10_6marker5DyingNtNtCs5GBHJSLTkJw_3syn8lifetime8LifetimeNtNtB7_7set_val9SetValZSTNtB1k_14LeafOrInternalE15first_leaf_edgeCs39Y7jx17GSw_12serde_derive, symObjAddr: 0x8F3C, symBinAddr: 0x3F890, symSize: 0x104 }
  - { offsetInCU: 0x2396E, offset: 0x37FA5, size: 0x8, addend: 0x0, symName: __RNvMsn_NtNtNtCsltZDfVD1VKL_5alloc11collections5btree8navigateINtNtB7_4node7NodeRefNtNtB10_6marker5ImmutNtNtBb_6string6StringNtNtB7_7set_val9SetValZSTNtB1k_14LeafOrInternalE15first_leaf_edgeCs39Y7jx17GSw_12serde_derive, symObjAddr: 0x9040, symBinAddr: 0x3F994, symSize: 0x104 }
  - { offsetInCU: 0x23BC7, offset: 0x381FE, size: 0x8, addend: 0x0, symName: __RNvMsn_NtNtNtCsltZDfVD1VKL_5alloc11collections5btree8navigateINtNtB7_4node7NodeRefNtNtB10_6marker5ImmutNtNtCs5GBHJSLTkJw_3syn8lifetime8LifetimeNtNtB7_7set_val9SetValZSTNtB1k_14LeafOrInternalE15first_leaf_edgeCs39Y7jx17GSw_12serde_derive, symObjAddr: 0x9144, symBinAddr: 0x3FA98, symSize: 0x104 }
  - { offsetInCU: 0x23E78, offset: 0x384AF, size: 0x8, addend: 0x0, symName: __RNvMsp_NtNtNtCsltZDfVD1VKL_5alloc11collections5btree8navigateINtNtB7_4node6HandleINtB10_7NodeRefNtNtB10_6marker5DyingNtNtBb_6string6StringNtNtB7_7set_val9SetValZSTNtB1y_14LeafOrInternalENtB1y_2KVE14next_leaf_edgeCs39Y7jx17GSw_12serde_derive, symObjAddr: 0x9248, symBinAddr: 0x3FB9C, symSize: 0x180 }
  - { offsetInCU: 0x241F1, offset: 0x38828, size: 0x8, addend: 0x0, symName: __RNvMsp_NtNtNtCsltZDfVD1VKL_5alloc11collections5btree8navigateINtNtB7_4node6HandleINtB10_7NodeRefNtNtB10_6marker5DyingNtNtCs5GBHJSLTkJw_3syn8lifetime8LifetimeNtNtB7_7set_val9SetValZSTNtB1y_14LeafOrInternalENtB1y_2KVE14next_leaf_edgeCs39Y7jx17GSw_12serde_derive, symObjAddr: 0x93C8, symBinAddr: 0x3FD1C, symSize: 0x180 }
  - { offsetInCU: 0x2456A, offset: 0x38BA1, size: 0x8, addend: 0x0, symName: __RNvMsp_NtNtNtCsltZDfVD1VKL_5alloc11collections5btree8navigateINtNtB7_4node6HandleINtB10_7NodeRefNtNtB10_6marker5ImmutNtNtBb_6string6StringNtNtB7_7set_val9SetValZSTNtB1y_14LeafOrInternalENtB1y_2KVE14next_leaf_edgeCs39Y7jx17GSw_12serde_derive, symObjAddr: 0x9548, symBinAddr: 0x3FE9C, symSize: 0x180 }
  - { offsetInCU: 0x248E3, offset: 0x38F1A, size: 0x8, addend: 0x0, symName: __RNvMsp_NtNtNtCsltZDfVD1VKL_5alloc11collections5btree8navigateINtNtB7_4node6HandleINtB10_7NodeRefNtNtB10_6marker5ImmutNtNtCs5GBHJSLTkJw_3syn8lifetime8LifetimeNtNtB7_7set_val9SetValZSTNtB1y_14LeafOrInternalENtB1y_2KVE14next_leaf_edgeCs39Y7jx17GSw_12serde_derive, symObjAddr: 0x96C8, symBinAddr: 0x4001C, symSize: 0x180 }
  - { offsetInCU: 0x24C61, offset: 0x39298, size: 0x8, addend: 0x0, symName: __RNvMsu_NtNtNtCsltZDfVD1VKL_5alloc11collections5btree4nodeINtB5_7NodeRefNtNtB5_6marker3MutNtNtBb_6string6StringNtNtB7_7set_val9SetValZSTNtB19_4LeafE16push_with_handleCs39Y7jx17GSw_12serde_derive, symObjAddr: 0x9848, symBinAddr: 0x4019C, symSize: 0x198 }
  - { offsetInCU: 0x25014, offset: 0x3964B, size: 0x8, addend: 0x0, symName: __RNvMsu_NtNtNtCsltZDfVD1VKL_5alloc11collections5btree4nodeINtB5_7NodeRefNtNtB5_6marker3MutNtNtCs5GBHJSLTkJw_3syn8lifetime8LifetimeNtNtB7_7set_val9SetValZSTNtB19_4LeafE16push_with_handleCs39Y7jx17GSw_12serde_derive, symObjAddr: 0x99E0, symBinAddr: 0x40334, symSize: 0x1A4 }
  - { offsetInCU: 0x2545C, offset: 0x39A93, size: 0x8, addend: 0x0, symName: __RNvMsv_NtNtNtCsltZDfVD1VKL_5alloc11collections5btree4nodeINtB5_7NodeRefNtNtB5_6marker3MutNtNtBb_6string6StringNtNtB7_7set_val9SetValZSTNtB19_8InternalE4pushCs39Y7jx17GSw_12serde_derive, symObjAddr: 0x9B84, symBinAddr: 0x404D8, symSize: 0x244 }
  - { offsetInCU: 0x2596E, offset: 0x39FA5, size: 0x8, addend: 0x0, symName: __RNvMsv_NtNtNtCsltZDfVD1VKL_5alloc11collections5btree4nodeINtB5_7NodeRefNtNtB5_6marker3MutNtNtCs5GBHJSLTkJw_3syn8lifetime8LifetimeNtNtB7_7set_val9SetValZSTNtB19_8InternalE4pushCs39Y7jx17GSw_12serde_derive, symObjAddr: 0x9DC8, symBinAddr: 0x4071C, symSize: 0x250 }
  - { offsetInCU: 0x1E, offset: 0x3A2E8, size: 0x8, addend: 0x0, symName: __RINvXs2T_NtNtCs5fsojcNSbun_4core5slice4iterINtB7_4IterNtNtNtCs39Y7jx17GSw_12serde_derive9internals3ast5FieldENtNtNtNtBb_4iter6traits8iterator8Iterator3allNCNvNtBW_2de15deserialize_maps3_0EBW_, symObjAddr: 0x0, symBinAddr: 0x4096C, symSize: 0xB8 }
  - { offsetInCU: 0x12DD, offset: 0x3B5A7, size: 0x8, addend: 0x0, symName: __RINvXs2T_NtNtCs5fsojcNSbun_4core5slice4iterINtB7_4IterNtNtNtCs39Y7jx17GSw_12serde_derive9internals3ast5FieldENtNtNtNtBb_4iter6traits8iterator8Iterator3allNCNvNtBW_2de15deserialize_maps3_0EBW_, symObjAddr: 0x0, symBinAddr: 0x4096C, symSize: 0xB8 }
  - { offsetInCU: 0x1342, offset: 0x3B60C, size: 0x8, addend: 0x0, symName: __RINvXs2T_NtNtCs5fsojcNSbun_4core5slice4iterINtB7_4IterNtNtNtCs39Y7jx17GSw_12serde_derive9internals3ast5FieldENtNtNtNtBb_4iter6traits8iterator8Iterator3anyNCNvNtBW_3ser24serialize_struct_variant0EBW_, symObjAddr: 0xB8, symBinAddr: 0x40A24, symSize: 0xB8 }
  - { offsetInCU: 0x13A7, offset: 0x3B671, size: 0x8, addend: 0x0, symName: __RINvXs2T_NtNtCs5fsojcNSbun_4core5slice4iterINtB7_4IterNtNtNtCs39Y7jx17GSw_12serde_derive9internals3ast5FieldENtNtNtNtBb_4iter6traits8iterator8Iterator4findNCNvNtBW_2de23deserialize_transparent0EBW_, symObjAddr: 0x170, symBinAddr: 0x40ADC, symSize: 0xB8 }
  - { offsetInCU: 0x140C, offset: 0x3B6D6, size: 0x8, addend: 0x0, symName: __RINvXs2T_NtNtCs5fsojcNSbun_4core5slice4iterINtB7_4IterNtNtNtCs39Y7jx17GSw_12serde_derive9internals3ast5FieldENtNtNtNtBb_4iter6traits8iterator8Iterator4findNCNvNtBW_3ser21serialize_transparent0EBW_, symObjAddr: 0x228, symBinAddr: 0x40B94, symSize: 0xB8 }
  - { offsetInCU: 0x1471, offset: 0x3B73B, size: 0x8, addend: 0x0, symName: __RINvXs2T_NtNtCs5fsojcNSbun_4core5slice4iterINtB7_4IterNtNtNtCs39Y7jx17GSw_12serde_derive9internals3ast5FieldENtNtNtNtBb_4iter6traits8iterator8Iterator4findQNCNvNtBW_3ser23serialize_struct_as_map0EBW_, symObjAddr: 0x2E0, symBinAddr: 0x40C4C, symSize: 0xBC }
  - { offsetInCU: 0x14D6, offset: 0x3B7A0, size: 0x8, addend: 0x0, symName: __RINvXs2T_NtNtCs5fsojcNSbun_4core5slice4iterINtB7_4IterNtNtNtCs39Y7jx17GSw_12serde_derive9internals3ast5FieldENtNtNtNtBb_4iter6traits8iterator8Iterator4findQNCNvNtBW_3ser24serialize_struct_variants_0EBW_, symObjAddr: 0x39C, symBinAddr: 0x40D08, symSize: 0xBC }
  - { offsetInCU: 0x153B, offset: 0x3B805, size: 0x8, addend: 0x0, symName: __RINvXs2T_NtNtCs5fsojcNSbun_4core5slice4iterINtB7_4IterNtNtNtCs39Y7jx17GSw_12serde_derive9internals3ast5FieldENtNtNtNtBb_4iter6traits8iterator8Iterator4findQNCNvNtBW_3ser24serialize_struct_visitor0EBW_, symObjAddr: 0x458, symBinAddr: 0x40DC4, symSize: 0xBC }
  - { offsetInCU: 0x15A0, offset: 0x3B86A, size: 0x8, addend: 0x0, symName: __RINvXs2T_NtNtCs5fsojcNSbun_4core5slice4iterINtB7_4IterNtNtNtCs39Y7jx17GSw_12serde_derive9internals3ast5FieldENtNtNtNtBb_4iter6traits8iterator8Iterator4findQNCNvNtBW_3ser26serialize_struct_as_struct0EBW_, symObjAddr: 0x514, symBinAddr: 0x40E80, symSize: 0xBC }
  - { offsetInCU: 0x1605, offset: 0x3B8CF, size: 0x8, addend: 0x0, symName: __RINvXs2T_NtNtCs5fsojcNSbun_4core5slice4iterINtB7_4IterNtNtNtCs39Y7jx17GSw_12serde_derive9internals3ast5FieldENtNtNtNtBb_4iter6traits8iterator8Iterator4findQNCNvNtBW_3ser37serialize_struct_variant_with_flatten0EBW_, symObjAddr: 0x5D0, symBinAddr: 0x40F3C, symSize: 0xBC }
  - { offsetInCU: 0x166A, offset: 0x3B934, size: 0x8, addend: 0x0, symName: __RINvXs2T_NtNtCs5fsojcNSbun_4core5slice4iterINtB7_4IterNtNtNtCs39Y7jx17GSw_12serde_derive9internals3ast5FieldENtNtNtNtBb_4iter6traits8iterator8Iterator4findQNCNvNtBW_5bound10with_bounds0_0EBW_, symObjAddr: 0x68C, symBinAddr: 0x40FF8, symSize: 0xBC }
  - { offsetInCU: 0x16CF, offset: 0x3B999, size: 0x8, addend: 0x0, symName: __RINvXs2T_NtNtCs5fsojcNSbun_4core5slice4iterINtB7_4IterNtNtNtCs39Y7jx17GSw_12serde_derive9internals3ast5FieldENtNtNtNtBb_4iter6traits8iterator8Iterator4findQNCNvNtBW_5bound10with_bounds_0EBW_, symObjAddr: 0x748, symBinAddr: 0x410B4, symSize: 0xBC }
  - { offsetInCU: 0x1734, offset: 0x3B9FE, size: 0x8, addend: 0x0, symName: __RINvXs2T_NtNtCs5fsojcNSbun_4core5slice4iterINtB7_4IterNtNtNtCs39Y7jx17GSw_12serde_derive9internals3ast5FieldENtNtNtNtBb_4iter6traits8iterator8Iterator4foldNtCs5CKmLD4IrHZ_11proc_macro211TokenStreamNCINvNtNtB1P_8adapters6filter11filter_foldRBQ_B2t_NCNvNtBW_3ser23serialize_struct_as_map0NCINvNtB3g_3map8map_foldB3P_B2t_B2t_NCB3Z_s_0NCB3Z_s0_0E0E0EBW_, symObjAddr: 0x804, symBinAddr: 0x41170, symSize: 0x22C }
  - { offsetInCU: 0x18EB, offset: 0x3BBB5, size: 0x8, addend: 0x0, symName: __RINvXs2T_NtNtCs5fsojcNSbun_4core5slice4iterINtB7_4IterNtNtNtCs39Y7jx17GSw_12serde_derive9internals3ast5FieldENtNtNtNtBb_4iter6traits8iterator8Iterator4foldNtCs5CKmLD4IrHZ_11proc_macro211TokenStreamNCINvNtNtB1P_8adapters6filter11filter_foldRBQ_B2t_NCNvNtBW_3ser24serialize_struct_variants_0NCINvNtB3g_3map8map_foldB3P_B2t_B2t_NCB3Z_s0_0NCB3Z_s1_0E0E0EBW_, symObjAddr: 0xA30, symBinAddr: 0x4139C, symSize: 0x234 }
  - { offsetInCU: 0x1AA3, offset: 0x3BD6D, size: 0x8, addend: 0x0, symName: __RINvXs2T_NtNtCs5fsojcNSbun_4core5slice4iterINtB7_4IterNtNtNtCs39Y7jx17GSw_12serde_derive9internals3ast5FieldENtNtNtNtBb_4iter6traits8iterator8Iterator4foldNtCs5CKmLD4IrHZ_11proc_macro211TokenStreamNCINvNtNtB1P_8adapters6filter11filter_foldRBQ_B2t_NCNvNtBW_3ser26serialize_struct_as_struct0NCINvNtB3g_3map8map_foldB3P_B2t_B2t_NCB3Z_s_0NCB3Z_s0_0E0E0EBW_, symObjAddr: 0xC64, symBinAddr: 0x415D0, symSize: 0x22C }
  - { offsetInCU: 0x1C5A, offset: 0x3BF24, size: 0x8, addend: 0x0, symName: __RINvXs2T_NtNtCs5fsojcNSbun_4core5slice4iterINtB7_4IterNtNtNtCs39Y7jx17GSw_12serde_derive9internals3ast5FieldENtNtNtNtBb_4iter6traits8iterator8Iterator4foldNtCs5CKmLD4IrHZ_11proc_macro211TokenStreamNCINvNvXs_NtNtB1P_8adapters9enumerateINtB3j_9EnumeratepEB1J_4fold9enumerateRBQ_B2t_NCINvNtB3l_6filter11filter_foldTjB4m_EB2t_NCNvNtBW_3ser22serialize_tuple_struct0NCINvNtB3l_3map8map_foldB4Z_B2t_B2t_NCB5c_s_0NCB5c_s0_0E0E0E0EBW_, symObjAddr: 0xE90, symBinAddr: 0x417FC, symSize: 0x23C }
  - { offsetInCU: 0x1E12, offset: 0x3C0DC, size: 0x8, addend: 0x0, symName: __RINvXs2T_NtNtCs5fsojcNSbun_4core5slice4iterINtB7_4IterNtNtNtCs39Y7jx17GSw_12serde_derive9internals3ast5FieldENtNtNtNtBb_4iter6traits8iterator8Iterator4foldNtCs5CKmLD4IrHZ_11proc_macro211TokenStreamNCINvNvXs_NtNtB1P_8adapters9enumerateINtB3j_9EnumeratepEB1J_4fold9enumerateRBQ_B2t_NCINvNtB3l_6filter11filter_foldTjB4m_EB2t_NCNvNtBW_3ser23serialize_tuple_variant0NCINvNtB3l_3map8map_foldB4Z_B2t_B2t_NCB5c_s_0NCB5c_s0_0E0E0E0EBW_, symObjAddr: 0x10CC, symBinAddr: 0x41A38, symSize: 0x22C }
  - { offsetInCU: 0x1FC9, offset: 0x3C293, size: 0x8, addend: 0x0, symName: __RINvXs2T_NtNtCs5fsojcNSbun_4core5slice4iterINtB7_4IterNtNtNtCs39Y7jx17GSw_12serde_derive9internals3ast5FieldENtNtNtNtBb_4iter6traits8iterator8Iterator4foldjNCINvNtNtB1P_8adapters3map8map_foldRBQ_jjNCINvNvXs0_NtB2B_6filterINtB3k_6FilterppEB1J_5count8to_usizeB33_NCNvNtBW_2de15deserialize_seq0E0NCINvXsK_NtB1N_5accumjNtB4Q_3Sum3sumINtB2z_3MapBF_B39_EE0E0EBW_, symObjAddr: 0x12F8, symBinAddr: 0x41C64, symSize: 0x1D0 }
  - { offsetInCU: 0x2180, offset: 0x3C44A, size: 0x8, addend: 0x0, symName: __RINvXs2T_NtNtCs5fsojcNSbun_4core5slice4iterINtB7_4IterNtNtNtCs39Y7jx17GSw_12serde_derive9internals3ast5FieldENtNtNtNtBb_4iter6traits8iterator8Iterator4foldjNCINvNtNtB1P_8adapters3map8map_foldRBQ_jjNCINvNvXs0_NtB2B_6filterINtB3k_6FilterppEB1J_5count8to_usizeB33_NCNvNtBW_2de17deserialize_tuple0E0NCINvXsK_NtB1N_5accumjNtB4S_3Sum3sumINtB2z_3MapBF_B39_EE0E0EBW_, symObjAddr: 0x14C8, symBinAddr: 0x41E34, symSize: 0x1D0 }
  - { offsetInCU: 0x2337, offset: 0x3C601, size: 0x8, addend: 0x0, symName: __RINvXs2T_NtNtCs5fsojcNSbun_4core5slice4iterINtB7_4IterNtNtNtCs39Y7jx17GSw_12serde_derive9internals3ast5FieldENtNtNtNtBb_4iter6traits8iterator8Iterator4folduNCINvNtNtB1P_8adapters3map8map_foldRBQ_NtCs5CKmLD4IrHZ_11proc_macro211TokenStreamuNCNvNtBW_3ser27wrap_serialize_variant_withs_0NCINvNvB1J_8for_each4callB37_NCINvMsi_NtCsltZDfVD1VKL_5alloc3vecINtB59_3VecB37_E14extend_trustedINtB2z_3MapBF_B3O_EE0E0E0EBW_, symObjAddr: 0x1698, symBinAddr: 0x42004, symSize: 0x1BC }
  - { offsetInCU: 0x24E7, offset: 0x3C7B1, size: 0x8, addend: 0x0, symName: __RINvXs2T_NtNtCs5fsojcNSbun_4core5slice4iterINtB7_4IterNtNtNtCs39Y7jx17GSw_12serde_derive9internals3ast5FieldENtNtNtNtBb_4iter6traits8iterator8Iterator4folduNCINvNtNtB1P_8adapters3map8map_foldRBQ_NtNtCs5GBHJSLTkJw_3syn4expr6MemberuNCNvNtBW_3ser35serialize_adjacently_tagged_variants0_0NCINvNvB1J_8for_each4callB37_NCINvMsi_NtCsltZDfVD1VKL_5alloc3vecINtB5a_3VecB37_E14extend_trustedINtB2z_3MapBF_B3G_EE0E0E0EBW_, symObjAddr: 0x1854, symBinAddr: 0x421C0, symSize: 0x1BC }
  - { offsetInCU: 0x2697, offset: 0x3C961, size: 0x8, addend: 0x0, symName: __RINvXs2T_NtNtCs5fsojcNSbun_4core5slice4iterINtB7_4IterNtNtNtCs39Y7jx17GSw_12serde_derive9internals3ast5FieldENtNtNtNtBb_4iter6traits8iterator8Iterator4folduNCINvNtNtB1P_8adapters3map8map_foldRBQ_RNtNtCs5GBHJSLTkJw_3syn2ty4TypeuNCNvNtBW_3ser27wrap_serialize_variant_with0NCINvNvB1J_8for_each4callB37_NCINvMsi_NtCsltZDfVD1VKL_5alloc3vecINtB4W_3VecB37_E14extend_trustedINtB2z_3MapBF_B3D_EE0E0E0EBW_, symObjAddr: 0x1A10, symBinAddr: 0x4237C, symSize: 0x1BC }
  - { offsetInCU: 0x2847, offset: 0x3CB11, size: 0x8, addend: 0x0, symName: __RINvXs2T_NtNtCs5fsojcNSbun_4core5slice4iterINtB7_4IterNtNtNtCs39Y7jx17GSw_12serde_derive9internals3ast5FieldENtNtNtNtBb_4iter6traits8iterator8Iterator4folduNCINvNtNtB1P_8adapters3map8map_foldRBQ_RNtNtCs5GBHJSLTkJw_3syn4expr6MemberuNCNvNtBW_3ser37serialize_struct_variant_with_flattens0_0NCINvNvB1J_8for_each4callB37_NCINvMsi_NtCsltZDfVD1VKL_5alloc3vecINtB5d_3VecB37_E14extend_trustedINtB2z_3MapBF_B3H_EE0E0E0EBW_, symObjAddr: 0x1BCC, symBinAddr: 0x42538, symSize: 0x1BC }
  - { offsetInCU: 0x29F7, offset: 0x3CCC1, size: 0x8, addend: 0x0, symName: __RINvXs2T_NtNtCs5fsojcNSbun_4core5slice4iterINtB7_4IterNtNtNtCs39Y7jx17GSw_12serde_derive9internals3ast5FieldENtNtNtNtBb_4iter6traits8iterator8Iterator4folduNCINvNtNtB1P_8adapters3map8map_foldRBQ_RNtNtCs5GBHJSLTkJw_3syn4expr6MemberuNCNvNtBW_7pretend33pretend_fields_used_struct_packed0NCINvNvB1J_8for_each4callB37_NCINvMsi_NtCsltZDfVD1VKL_5alloc3vecINtB5a_3VecB37_E14extend_trustedINtB2z_3MapBF_B3H_EE0E0E0EBW_, symObjAddr: 0x1D88, symBinAddr: 0x426F4, symSize: 0x1BC }
  - { offsetInCU: 0x2BA7, offset: 0x3CE71, size: 0x8, addend: 0x0, symName: __RINvXs2T_NtNtCs5fsojcNSbun_4core5slice4iterINtB7_4IterNtNtNtCs39Y7jx17GSw_12serde_derive9internals3ast5FieldENtNtNtNtBb_4iter6traits8iterator8Iterator4folduNCINvNvXs_NtNtB1P_8adapters9enumerateINtB2E_9EnumeratepEB1J_4fold9enumerateRBQ_uNCINvNtB2G_3map8map_foldTjB3H_ETB3H_NtCs5CKmLD4IrHZ_11proc_macro25IdentEuNCNvNtBW_2de15deserialize_map0NCINvNvB1J_8for_each4callB4h_NCINvMsi_NtCsltZDfVD1VKL_5alloc3vecINtB63_3VecB4h_E14extend_trustedINtB3R_3MapIB36_BF_EB4X_EE0E0E0E0EBW_, symObjAddr: 0x1F44, symBinAddr: 0x428B0, symSize: 0x1BC }
  - { offsetInCU: 0x2D57, offset: 0x3D021, size: 0x8, addend: 0x0, symName: __RINvXs2T_NtNtCs5fsojcNSbun_4core5slice4iterINtB7_4IterNtNtNtCs39Y7jx17GSw_12serde_derive9internals3ast7VariantENtNtNtNtBb_4iter6traits8iterator8Iterator3allNCNvNtBW_2de34deserialize_externally_tagged_enums0_0EBW_, symObjAddr: 0x2100, symBinAddr: 0x42A6C, symSize: 0xB8 }
  - { offsetInCU: 0x2DBC, offset: 0x3D086, size: 0x8, addend: 0x0, symName: __RINvXs2T_NtNtCs5fsojcNSbun_4core5slice4iterINtB7_4IterNtNtNtCs39Y7jx17GSw_12serde_derive9internals3ast7VariantENtNtNtNtBb_4iter6traits8iterator8Iterator4findQNCNvNtBW_2de31deserialize_untagged_enum_after0EBW_, symObjAddr: 0x21B8, symBinAddr: 0x42B24, symSize: 0xBC }
  - { offsetInCU: 0x2E21, offset: 0x3D0EB, size: 0x8, addend: 0x0, symName: __RINvXs2T_NtNtCs5fsojcNSbun_4core5slice4iterINtB7_4IterNtNtNtCs39Y7jx17GSw_12serde_derive9internals3ast7VariantENtNtNtNtBb_4iter6traits8iterator8Iterator4folduNCINvNtNtB1R_8adapters3map8map_foldRBQ_TReNtCs5CKmLD4IrHZ_11proc_macro25IdentRINtNtNtNtCsltZDfVD1VKL_5alloc11collections5btree3set8BTreeSetNtNtB3V_6string6StringEEuNCNvNtBW_2de29deserialize_custom_identifiers_0NCINvNvB1L_8for_each4callB39_NCINvMsi_NtB3V_3vecINtB6w_3VecB39_E14extend_trustedINtB2B_3MapBF_B5a_EE0E0E0EBW_, symObjAddr: 0x2274, symBinAddr: 0x42BE0, symSize: 0x1BC }
  - { offsetInCU: 0x2FD1, offset: 0x3D29B, size: 0x8, addend: 0x0, symName: __RINvXs2T_NtNtCs5fsojcNSbun_4core5slice4iterINtB7_4IterNtNtNtCs39Y7jx17GSw_12serde_derive9internals3ast7VariantENtNtNtNtBb_4iter6traits8iterator8Iterator4folduNCINvNvXs_NtNtB1R_8adapters9enumerateINtB2G_9EnumeratepEB1L_4fold9enumerateRBQ_uNCINvNtB2I_3map8map_foldTjB3J_ENtCs5CKmLD4IrHZ_11proc_macro211TokenStreamuNCNvNtBW_3ser14serialize_enum0NCINvNvB1L_8for_each4callB4j_NCINvMsi_NtCsltZDfVD1VKL_5alloc3vecINtB66_3VecB4j_E14extend_trustedINtB3T_3MapIB38_BF_EB50_EE0E0E0E0EBW_, symObjAddr: 0x2430, symBinAddr: 0x42D9C, symSize: 0x1BC }
  - { offsetInCU: 0x3181, offset: 0x3D44B, size: 0x8, addend: 0x0, symName: __RINvXs2T_NtNtCs5fsojcNSbun_4core5slice4iterINtB7_4IterNtNtNtCs39Y7jx17GSw_12serde_derive9internals3ast7VariantENtNtNtNtBb_4iter6traits8iterator8Iterator8find_mapNtCs5CKmLD4IrHZ_11proc_macro211TokenStreamQNCNvNtBW_7pretend24pretend_fields_used_enum0EBW_, symObjAddr: 0x25EC, symBinAddr: 0x42F58, symSize: 0xF8 }
  - { offsetInCU: 0x3205, offset: 0x3D4CF, size: 0x8, addend: 0x0, symName: __RINvXs2T_NtNtCs5fsojcNSbun_4core5slice4iterINtB7_4IterNtNtNtCs39Y7jx17GSw_12serde_derive9internals3ast7VariantENtNtNtNtBb_4iter6traits8iterator8Iterator8find_mapRSNtNtCs5GBHJSLTkJw_3syn8generics14WherePredicateQNCNvNtBW_5bound35with_where_predicates_from_variants0EBW_, symObjAddr: 0x26E4, symBinAddr: 0x43050, symSize: 0xF0 }
  - { offsetInCU: 0x3289, offset: 0x3D553, size: 0x8, addend: 0x0, symName: __RINvXs2T_NtNtCs5fsojcNSbun_4core5slice4iterINtB7_4IterNtNtNtCs39Y7jx17GSw_12serde_derive9internals3ast7VariantENtNtNtNtBb_4iter6traits8iterator8Iterator8positionNCNvNtBW_2de16deserialize_enum0EBW_, symObjAddr: 0x27D4, symBinAddr: 0x43140, symSize: 0x194 }
  - { offsetInCU: 0x3371, offset: 0x3D63B, size: 0x8, addend: 0x0, symName: __RINvXs2T_NtNtCs5fsojcNSbun_4core5slice4iterINtB7_4IterNtNtNtCs39Y7jx17GSw_12serde_derive9internals3ast7VariantENtNtNtNtBb_4iter6traits8iterator8Iterator9rpositionNCNvBS_13enum_from_asts_0EBW_, symObjAddr: 0x2968, symBinAddr: 0x432D4, symSize: 0x174 }
  - { offsetInCU: 0x3468, offset: 0x3D732, size: 0x8, addend: 0x0, symName: __RINvXs2T_NtNtCs5fsojcNSbun_4core5slice4iterINtB7_4IterTRNtNtNtCs39Y7jx17GSw_12serde_derive9internals3ast5FieldNtCs5CKmLD4IrHZ_11proc_macro25IdentEENtNtNtNtBb_4iter6traits8iterator8Iterator4findQNCNvNtBY_2de15deserialize_maps1_0EBY_, symObjAddr: 0x2ADC, symBinAddr: 0x43448, symSize: 0xBC }
  - { offsetInCU: 0x34CD, offset: 0x3D797, size: 0x8, addend: 0x0, symName: __RINvXs2T_NtNtCs5fsojcNSbun_4core5slice4iterINtB7_4IterTRNtNtNtCs39Y7jx17GSw_12serde_derive9internals3ast5FieldNtCs5CKmLD4IrHZ_11proc_macro25IdentEENtNtNtNtBb_4iter6traits8iterator8Iterator4findQNCNvNtBY_2de15deserialize_maps4_0EBY_, symObjAddr: 0x2B98, symBinAddr: 0x43504, symSize: 0xBC }
  - { offsetInCU: 0x3532, offset: 0x3D7FC, size: 0x8, addend: 0x0, symName: __RINvXs2T_NtNtCs5fsojcNSbun_4core5slice4iterINtB7_4IterTRNtNtNtCs39Y7jx17GSw_12serde_derive9internals3ast5FieldNtCs5CKmLD4IrHZ_11proc_macro25IdentEENtNtNtNtBb_4iter6traits8iterator8Iterator4findQNCNvNtBY_2de15deserialize_maps6_0EBY_, symObjAddr: 0x2C54, symBinAddr: 0x435C0, symSize: 0xBC }
  - { offsetInCU: 0x3597, offset: 0x3D861, size: 0x8, addend: 0x0, symName: __RINvXs2T_NtNtCs5fsojcNSbun_4core5slice4iterINtB7_4IterTRNtNtNtCs39Y7jx17GSw_12serde_derive9internals3ast5FieldNtCs5CKmLD4IrHZ_11proc_macro25IdentEENtNtNtNtBb_4iter6traits8iterator8Iterator4findQNCNvNtBY_2de15deserialize_maps_0EBY_, symObjAddr: 0x2D10, symBinAddr: 0x4367C, symSize: 0xBC }
  - { offsetInCU: 0x35FC, offset: 0x3D8C6, size: 0x8, addend: 0x0, symName: __RINvXs2T_NtNtCs5fsojcNSbun_4core5slice4iterINtB7_4IterTReNtCs5CKmLD4IrHZ_11proc_macro25IdentRINtNtNtNtCsltZDfVD1VKL_5alloc11collections5btree3set8BTreeSetNtNtB1C_6string6StringEEENtNtNtNtBb_4iter6traits8iterator8Iterator4folduNCINvNtNtB2X_8adapters3map8map_foldRBQ_RBT_uNCNvNtCs39Y7jx17GSw_12serde_derive2de32deserialize_generated_identifier0NCINvNvB2R_8for_each4callB4f_NCINvMsi_NtB1C_3vecINtB66_3VecB4f_E14extend_trustedINtB3H_3MapBF_B4k_EE0E0E0EB4q_, symObjAddr: 0x2DCC, symBinAddr: 0x43738, symSize: 0x1BC }
  - { offsetInCU: 0x37AC, offset: 0x3DA76, size: 0x8, addend: 0x0, symName: __RNvXs2T_NtNtCs5fsojcNSbun_4core5slice4iterINtB6_4IterNtCs5CKmLD4IrHZ_11proc_macro211TokenStreamENtNtNtNtBa_4iter6traits8iterator8Iterator4nextCs39Y7jx17GSw_12serde_derive, symObjAddr: 0x4A34, symBinAddr: 0x453A0, symSize: 0x8C }
  - { offsetInCU: 0x385D, offset: 0x3DB27, size: 0x8, addend: 0x0, symName: __RNvXs2T_NtNtCs5fsojcNSbun_4core5slice4iterINtB6_4IterNtCs5CKmLD4IrHZ_11proc_macro25IdentENtNtNtNtBa_4iter6traits8iterator8Iterator4nextCs39Y7jx17GSw_12serde_derive, symObjAddr: 0x4AC0, symBinAddr: 0x4542C, symSize: 0x8C }
  - { offsetInCU: 0x390E, offset: 0x3DBD8, size: 0x8, addend: 0x0, symName: __RNvXs2T_NtNtCs5fsojcNSbun_4core5slice4iterINtB6_4IterNtNtCs5GBHJSLTkJw_3syn4expr6MemberENtNtNtNtBa_4iter6traits8iterator8Iterator4nextCs39Y7jx17GSw_12serde_derive, symObjAddr: 0x4B4C, symBinAddr: 0x454B8, symSize: 0x8C }
  - { offsetInCU: 0x39BF, offset: 0x3DC89, size: 0x8, addend: 0x0, symName: __RNvXs2T_NtNtCs5fsojcNSbun_4core5slice4iterINtB6_4IterNtNtCs5GBHJSLTkJw_3syn8generics14WherePredicateENtNtNtNtBa_4iter6traits8iterator8Iterator4nextCs39Y7jx17GSw_12serde_derive, symObjAddr: 0x4BD8, symBinAddr: 0x45544, symSize: 0x8C }
  - { offsetInCU: 0x3A70, offset: 0x3DD3A, size: 0x8, addend: 0x0, symName: __RNvXs2T_NtNtCs5fsojcNSbun_4core5slice4iterINtB6_4IterNtNtCs5GBHJSLTkJw_3syn8lifetime8LifetimeENtNtNtNtBa_4iter6traits8iterator8Iterator4nextCs39Y7jx17GSw_12serde_derive, symObjAddr: 0x4C64, symBinAddr: 0x455D0, symSize: 0x8C }
  - { offsetInCU: 0x3B21, offset: 0x3DDEB, size: 0x8, addend: 0x0, symName: __RNvXs2T_NtNtCs5fsojcNSbun_4core5slice4iterINtB6_4IterNtNtCsltZDfVD1VKL_5alloc6string6StringENtNtNtNtBa_4iter6traits8iterator8Iterator4nextCs39Y7jx17GSw_12serde_derive, symObjAddr: 0x4CF0, symBinAddr: 0x4565C, symSize: 0x8C }
  - { offsetInCU: 0x3BD2, offset: 0x3DE9C, size: 0x8, addend: 0x0, symName: __RNvXs2T_NtNtCs5fsojcNSbun_4core5slice4iterINtB6_4IterNtNtNtCs39Y7jx17GSw_12serde_derive9internals3ast5FieldENtNtNtNtBa_4iter6traits8iterator8Iterator10advance_byBV_, symObjAddr: 0x4D7C, symBinAddr: 0x456E8, symSize: 0xCC }
  - { offsetInCU: 0x3DA8, offset: 0x3E072, size: 0x8, addend: 0x0, symName: __RNvXs2T_NtNtCs5fsojcNSbun_4core5slice4iterINtB6_4IterNtNtNtCs39Y7jx17GSw_12serde_derive9internals3ast5FieldENtNtNtNtBa_4iter6traits8iterator8Iterator24___iterator_get_uncheckedBV_, symObjAddr: 0x4E48, symBinAddr: 0x457B4, symSize: 0x30 }
  - { offsetInCU: 0x3E4E, offset: 0x3E118, size: 0x8, addend: 0x0, symName: __RNvXs2T_NtNtCs5fsojcNSbun_4core5slice4iterINtB6_4IterNtNtNtCs39Y7jx17GSw_12serde_derive9internals3ast5FieldENtNtNtNtBa_4iter6traits8iterator8Iterator3nthBV_, symObjAddr: 0x4E78, symBinAddr: 0x457E4, symSize: 0xF4 }
  - { offsetInCU: 0x3FD0, offset: 0x3E29A, size: 0x8, addend: 0x0, symName: __RNvXs2T_NtNtCs5fsojcNSbun_4core5slice4iterINtB6_4IterNtNtNtCs39Y7jx17GSw_12serde_derive9internals3ast5FieldENtNtNtNtBa_4iter6traits8iterator8Iterator4nextBV_, symObjAddr: 0x4F6C, symBinAddr: 0x458D8, symSize: 0x8C }
  - { offsetInCU: 0x4081, offset: 0x3E34B, size: 0x8, addend: 0x0, symName: __RNvXs2T_NtNtCs5fsojcNSbun_4core5slice4iterINtB6_4IterNtNtNtCs39Y7jx17GSw_12serde_derive9internals3ast5FieldENtNtNtNtBa_4iter6traits8iterator8Iterator9size_hintBV_, symObjAddr: 0x4FF8, symBinAddr: 0x45964, symSize: 0x7C }
  - { offsetInCU: 0x4123, offset: 0x3E3ED, size: 0x8, addend: 0x0, symName: __RNvXs2T_NtNtCs5fsojcNSbun_4core5slice4iterINtB6_4IterNtNtNtCs39Y7jx17GSw_12serde_derive9internals3ast7VariantENtNtNtNtBa_4iter6traits8iterator8Iterator4nextBV_, symObjAddr: 0x5074, symBinAddr: 0x459E0, symSize: 0x8C }
  - { offsetInCU: 0x41D4, offset: 0x3E49E, size: 0x8, addend: 0x0, symName: __RNvXs2T_NtNtCs5fsojcNSbun_4core5slice4iterINtB6_4IterNtNtNtCs39Y7jx17GSw_12serde_derive9internals3ast7VariantENtNtNtNtBa_4iter6traits8iterator8Iterator9size_hintBV_, symObjAddr: 0x5100, symBinAddr: 0x45A6C, symSize: 0x7C }
  - { offsetInCU: 0x4276, offset: 0x3E540, size: 0x8, addend: 0x0, symName: __RNvXs2T_NtNtCs5fsojcNSbun_4core5slice4iterINtB6_4IterRNtCs5CKmLD4IrHZ_11proc_macro25IdentENtNtNtNtBa_4iter6traits8iterator8Iterator4nextCs39Y7jx17GSw_12serde_derive, symObjAddr: 0x517C, symBinAddr: 0x45AE8, symSize: 0x8C }
  - { offsetInCU: 0x4327, offset: 0x3E5F1, size: 0x8, addend: 0x0, symName: __RNvXs2T_NtNtCs5fsojcNSbun_4core5slice4iterINtB6_4IterRNtNtCs5GBHJSLTkJw_3syn2ty4TypeENtNtNtNtBa_4iter6traits8iterator8Iterator4nextCs39Y7jx17GSw_12serde_derive, symObjAddr: 0x5208, symBinAddr: 0x45B74, symSize: 0x8C }
  - { offsetInCU: 0x43D8, offset: 0x3E6A2, size: 0x8, addend: 0x0, symName: __RNvXs2T_NtNtCs5fsojcNSbun_4core5slice4iterINtB6_4IterRNtNtCs5GBHJSLTkJw_3syn4expr6MemberENtNtNtNtBa_4iter6traits8iterator8Iterator4nextCs39Y7jx17GSw_12serde_derive, symObjAddr: 0x5294, symBinAddr: 0x45C00, symSize: 0x8C }
  - { offsetInCU: 0x4489, offset: 0x3E753, size: 0x8, addend: 0x0, symName: __RNvXs2T_NtNtCs5fsojcNSbun_4core5slice4iterINtB6_4IterTRNtNtNtCs39Y7jx17GSw_12serde_derive9internals3ast5FieldNtCs5CKmLD4IrHZ_11proc_macro25IdentEENtNtNtNtBa_4iter6traits8iterator8Iterator4nextBX_, symObjAddr: 0x5320, symBinAddr: 0x45C8C, symSize: 0x8C }
  - { offsetInCU: 0x453A, offset: 0x3E804, size: 0x8, addend: 0x0, symName: __RNvXs2T_NtNtCs5fsojcNSbun_4core5slice4iterINtB6_4IterTReNtCs5CKmLD4IrHZ_11proc_macro25IdentRINtNtNtNtCsltZDfVD1VKL_5alloc11collections5btree3set8BTreeSetNtNtB1B_6string6StringEEENtNtNtNtBa_4iter6traits8iterator8Iterator4nextCs39Y7jx17GSw_12serde_derive, symObjAddr: 0x53AC, symBinAddr: 0x45D18, symSize: 0x8C }
  - { offsetInCU: 0x45EB, offset: 0x3E8B5, size: 0x8, addend: 0x0, symName: __RNvXs2T_NtNtCs5fsojcNSbun_4core5slice4iterINtB6_4IterTReNtCs5CKmLD4IrHZ_11proc_macro25IdentRINtNtNtNtCsltZDfVD1VKL_5alloc11collections5btree3set8BTreeSetNtNtB1B_6string6StringEEENtNtNtNtBa_4iter6traits8iterator8Iterator9size_hintCs39Y7jx17GSw_12serde_derive, symObjAddr: 0x5438, symBinAddr: 0x45DA4, symSize: 0x7C }
  - { offsetInCU: 0x468D, offset: 0x3E957, size: 0x8, addend: 0x0, symName: __RNvXs2T_NtNtCs5fsojcNSbun_4core5slice4iterINtB6_4IterTReNtNtNtCs39Y7jx17GSw_12serde_derive9internals4case10RenameRuleEENtNtNtNtBa_4iter6traits8iterator8Iterator4nextBY_, symObjAddr: 0x54B4, symBinAddr: 0x45E20, symSize: 0x8C }
  - { offsetInCU: 0x4942, offset: 0x3EC0C, size: 0x8, addend: 0x0, symName: __RNvXs2U_NtNtCs5fsojcNSbun_4core5slice4iterINtB6_4IterNtNtNtCs39Y7jx17GSw_12serde_derive9internals3ast7VariantENtNtNtNtBa_4iter6traits12double_ended19DoubleEndedIterator9next_backBV_, symObjAddr: 0x5540, symBinAddr: 0x45EAC, symSize: 0xDC }
  - { offsetInCU: 0x4B4F, offset: 0x3EE19, size: 0x8, addend: 0x0, symName: __RNvXs2U_NtNtCs5fsojcNSbun_4core5slice4iterINtB6_4IterTNtNtCs5GBHJSLTkJw_3syn2ty4TypeNtNtBU_5token5CommaEENtNtNtNtBa_4iter6traits12double_ended19DoubleEndedIterator9next_backCs39Y7jx17GSw_12serde_derive, symObjAddr: 0x561C, symBinAddr: 0x45F88, symSize: 0xDC }
  - { offsetInCU: 0x4D5C, offset: 0x3F026, size: 0x8, addend: 0x0, symName: __RNvXs2U_NtNtCs5fsojcNSbun_4core5slice4iterINtB6_4IterTNtNtCs5GBHJSLTkJw_3syn2ty9BareFnArgNtNtBU_5token5CommaEENtNtNtNtBa_4iter6traits12double_ended19DoubleEndedIterator9next_backCs39Y7jx17GSw_12serde_derive, symObjAddr: 0x56F8, symBinAddr: 0x46064, symSize: 0xDC }
  - { offsetInCU: 0x4F69, offset: 0x3F233, size: 0x8, addend: 0x0, symName: __RNvXs2U_NtNtCs5fsojcNSbun_4core5slice4iterINtB6_4IterTNtNtCs5GBHJSLTkJw_3syn4data7VariantNtNtBU_5token5CommaEENtNtNtNtBa_4iter6traits12double_ended19DoubleEndedIterator9next_backCs39Y7jx17GSw_12serde_derive, symObjAddr: 0x57D4, symBinAddr: 0x46140, symSize: 0xDC }
  - { offsetInCU: 0x5176, offset: 0x3F440, size: 0x8, addend: 0x0, symName: __RNvXs2U_NtNtCs5fsojcNSbun_4core5slice4iterINtB6_4IterTNtNtCs5GBHJSLTkJw_3syn4path15GenericArgumentNtNtBU_5token5CommaEENtNtNtNtBa_4iter6traits12double_ended19DoubleEndedIterator9next_backCs39Y7jx17GSw_12serde_derive, symObjAddr: 0x58B0, symBinAddr: 0x4621C, symSize: 0xDC }
  - { offsetInCU: 0x55BE, offset: 0x3F888, size: 0x8, addend: 0x0, symName: __RNvXs2X_NtNtCs5fsojcNSbun_4core5slice4iterINtB6_4IterNtCs5CKmLD4IrHZ_11proc_macro211TokenStreamENtNtNtNtBa_4iter6traits18unchecked_iterator17UncheckedIterator14next_uncheckedCs39Y7jx17GSw_12serde_derive, symObjAddr: 0x598C, symBinAddr: 0x462F8, symSize: 0x74 }
  - { offsetInCU: 0x5719, offset: 0x3F9E3, size: 0x8, addend: 0x0, symName: __RNvXs2X_NtNtCs5fsojcNSbun_4core5slice4iterINtB6_4IterNtCs5CKmLD4IrHZ_11proc_macro25IdentENtNtNtNtBa_4iter6traits18unchecked_iterator17UncheckedIterator14next_uncheckedCs39Y7jx17GSw_12serde_derive, symObjAddr: 0x5A00, symBinAddr: 0x4636C, symSize: 0x74 }
  - { offsetInCU: 0x5874, offset: 0x3FB3E, size: 0x8, addend: 0x0, symName: __RNvXs2X_NtNtCs5fsojcNSbun_4core5slice4iterINtB6_4IterNtNtCs5GBHJSLTkJw_3syn4expr6MemberENtNtNtNtBa_4iter6traits18unchecked_iterator17UncheckedIterator14next_uncheckedCs39Y7jx17GSw_12serde_derive, symObjAddr: 0x5A74, symBinAddr: 0x463E0, symSize: 0x74 }
  - { offsetInCU: 0x59CF, offset: 0x3FC99, size: 0x8, addend: 0x0, symName: __RNvXs2X_NtNtCs5fsojcNSbun_4core5slice4iterINtB6_4IterNtNtCs5GBHJSLTkJw_3syn8generics14WherePredicateENtNtNtNtBa_4iter6traits18unchecked_iterator17UncheckedIterator14next_uncheckedCs39Y7jx17GSw_12serde_derive, symObjAddr: 0x5AE8, symBinAddr: 0x46454, symSize: 0x74 }
  - { offsetInCU: 0x5B2A, offset: 0x3FDF4, size: 0x8, addend: 0x0, symName: __RNvXs2X_NtNtCs5fsojcNSbun_4core5slice4iterINtB6_4IterNtNtCs5GBHJSLTkJw_3syn8lifetime8LifetimeENtNtNtNtBa_4iter6traits18unchecked_iterator17UncheckedIterator14next_uncheckedCs39Y7jx17GSw_12serde_derive, symObjAddr: 0x5B5C, symBinAddr: 0x464C8, symSize: 0x74 }
  - { offsetInCU: 0x5C85, offset: 0x3FF4F, size: 0x8, addend: 0x0, symName: __RNvXs2X_NtNtCs5fsojcNSbun_4core5slice4iterINtB6_4IterNtNtCsltZDfVD1VKL_5alloc6string6StringENtNtNtNtBa_4iter6traits18unchecked_iterator17UncheckedIterator14next_uncheckedCs39Y7jx17GSw_12serde_derive, symObjAddr: 0x5BD0, symBinAddr: 0x4653C, symSize: 0x74 }
  - { offsetInCU: 0x5DE0, offset: 0x400AA, size: 0x8, addend: 0x0, symName: __RNvXs2X_NtNtCs5fsojcNSbun_4core5slice4iterINtB6_4IterNtNtNtCs39Y7jx17GSw_12serde_derive9internals3ast5FieldENtNtNtNtBa_4iter6traits18unchecked_iterator17UncheckedIterator14next_uncheckedBV_, symObjAddr: 0x5C44, symBinAddr: 0x465B0, symSize: 0x74 }
  - { offsetInCU: 0x5F3B, offset: 0x40205, size: 0x8, addend: 0x0, symName: __RNvXs2X_NtNtCs5fsojcNSbun_4core5slice4iterINtB6_4IterNtNtNtCs39Y7jx17GSw_12serde_derive9internals3ast7VariantENtNtNtNtBa_4iter6traits18unchecked_iterator17UncheckedIterator14next_uncheckedBV_, symObjAddr: 0x5CB8, symBinAddr: 0x46624, symSize: 0x74 }
  - { offsetInCU: 0x6096, offset: 0x40360, size: 0x8, addend: 0x0, symName: __RNvXs2X_NtNtCs5fsojcNSbun_4core5slice4iterINtB6_4IterRNtCs5CKmLD4IrHZ_11proc_macro25IdentENtNtNtNtBa_4iter6traits18unchecked_iterator17UncheckedIterator14next_uncheckedCs39Y7jx17GSw_12serde_derive, symObjAddr: 0x5D2C, symBinAddr: 0x46698, symSize: 0x74 }
  - { offsetInCU: 0x61F1, offset: 0x404BB, size: 0x8, addend: 0x0, symName: __RNvXs2X_NtNtCs5fsojcNSbun_4core5slice4iterINtB6_4IterRNtNtCs5GBHJSLTkJw_3syn2ty4TypeENtNtNtNtBa_4iter6traits18unchecked_iterator17UncheckedIterator14next_uncheckedCs39Y7jx17GSw_12serde_derive, symObjAddr: 0x5DA0, symBinAddr: 0x4670C, symSize: 0x74 }
  - { offsetInCU: 0x634C, offset: 0x40616, size: 0x8, addend: 0x0, symName: __RNvXs2X_NtNtCs5fsojcNSbun_4core5slice4iterINtB6_4IterRNtNtCs5GBHJSLTkJw_3syn4expr6MemberENtNtNtNtBa_4iter6traits18unchecked_iterator17UncheckedIterator14next_uncheckedCs39Y7jx17GSw_12serde_derive, symObjAddr: 0x5E14, symBinAddr: 0x46780, symSize: 0x74 }
  - { offsetInCU: 0x64A7, offset: 0x40771, size: 0x8, addend: 0x0, symName: __RNvXs2X_NtNtCs5fsojcNSbun_4core5slice4iterINtB6_4IterTRNtNtNtCs39Y7jx17GSw_12serde_derive9internals3ast5FieldNtCs5CKmLD4IrHZ_11proc_macro25IdentEENtNtNtNtBa_4iter6traits18unchecked_iterator17UncheckedIterator14next_uncheckedBX_, symObjAddr: 0x5E88, symBinAddr: 0x467F4, symSize: 0x74 }
  - { offsetInCU: 0x6602, offset: 0x408CC, size: 0x8, addend: 0x0, symName: __RNvXs2X_NtNtCs5fsojcNSbun_4core5slice4iterINtB6_4IterTReNtCs5CKmLD4IrHZ_11proc_macro25IdentRINtNtNtNtCsltZDfVD1VKL_5alloc11collections5btree3set8BTreeSetNtNtB1B_6string6StringEEENtNtNtNtBa_4iter6traits18unchecked_iterator17UncheckedIterator14next_uncheckedCs39Y7jx17GSw_12serde_derive, symObjAddr: 0x5EFC, symBinAddr: 0x46868, symSize: 0x74 }
  - { offsetInCU: 0x675D, offset: 0x40A27, size: 0x8, addend: 0x0, symName: __RNvXs2X_NtNtCs5fsojcNSbun_4core5slice4iterINtB6_4IterTReNtNtNtCs39Y7jx17GSw_12serde_derive9internals4case10RenameRuleEENtNtNtNtBa_4iter6traits18unchecked_iterator17UncheckedIterator14next_uncheckedBY_, symObjAddr: 0x5F70, symBinAddr: 0x468DC, symSize: 0x74 }
  - { offsetInCU: 0x6B86, offset: 0x40E50, size: 0x8, addend: 0x0, symName: __RNvXs31_NtNtCs5fsojcNSbun_4core5slice4iterINtB6_7IterMutNtNtNtCs39Y7jx17GSw_12serde_derive9internals3ast5FieldENtNtNtNtBa_4iter6traits8iterator8Iterator4nextBY_, symObjAddr: 0x5FE4, symBinAddr: 0x46950, symSize: 0x8C }
  - { offsetInCU: 0x6C37, offset: 0x40F01, size: 0x8, addend: 0x0, symName: __RNvXs31_NtNtCs5fsojcNSbun_4core5slice4iterINtB6_7IterMutNtNtNtCs39Y7jx17GSw_12serde_derive9internals3ast7VariantENtNtNtNtBa_4iter6traits8iterator8Iterator4nextBY_, symObjAddr: 0x6070, symBinAddr: 0x469DC, symSize: 0x8C }
  - { offsetInCU: 0x6CE8, offset: 0x40FB2, size: 0x8, addend: 0x0, symName: __RNvXs31_NtNtCs5fsojcNSbun_4core5slice4iterINtB6_7IterMutTNtNtCs5GBHJSLTkJw_3syn2ty4TypeNtNtBX_5token5CommaEENtNtNtNtBa_4iter6traits8iterator8Iterator4nextCs39Y7jx17GSw_12serde_derive, symObjAddr: 0x60FC, symBinAddr: 0x46A68, symSize: 0x8C }
  - { offsetInCU: 0x6D99, offset: 0x41063, size: 0x8, addend: 0x0, symName: __RNvXs31_NtNtCs5fsojcNSbun_4core5slice4iterINtB6_7IterMutTNtNtCs5GBHJSLTkJw_3syn2ty9BareFnArgNtNtBX_5token5CommaEENtNtNtNtBa_4iter6traits8iterator8Iterator4nextCs39Y7jx17GSw_12serde_derive, symObjAddr: 0x6188, symBinAddr: 0x46AF4, symSize: 0x8C }
  - { offsetInCU: 0x6E4A, offset: 0x41114, size: 0x8, addend: 0x0, symName: __RNvXs31_NtNtCs5fsojcNSbun_4core5slice4iterINtB6_7IterMutTNtNtCs5GBHJSLTkJw_3syn4data7VariantNtNtBX_5token5CommaEENtNtNtNtBa_4iter6traits8iterator8Iterator4nextCs39Y7jx17GSw_12serde_derive, symObjAddr: 0x6214, symBinAddr: 0x46B80, symSize: 0x8C }
  - { offsetInCU: 0x6EFB, offset: 0x411C5, size: 0x8, addend: 0x0, symName: __RNvXs31_NtNtCs5fsojcNSbun_4core5slice4iterINtB6_7IterMutTNtNtCs5GBHJSLTkJw_3syn4expr4ExprNtNtBX_5token5CommaEENtNtNtNtBa_4iter6traits8iterator8Iterator4nextCs39Y7jx17GSw_12serde_derive, symObjAddr: 0x62A0, symBinAddr: 0x46C0C, symSize: 0x8C }
  - { offsetInCU: 0x6FAC, offset: 0x41276, size: 0x8, addend: 0x0, symName: __RNvXs31_NtNtCs5fsojcNSbun_4core5slice4iterINtB6_7IterMutTNtNtCs5GBHJSLTkJw_3syn4path15GenericArgumentNtNtBX_5token5CommaEENtNtNtNtBa_4iter6traits8iterator8Iterator4nextCs39Y7jx17GSw_12serde_derive, symObjAddr: 0x632C, symBinAddr: 0x46C98, symSize: 0x8C }
  - { offsetInCU: 0x705D, offset: 0x41327, size: 0x8, addend: 0x0, symName: __RNvXs31_NtNtCs5fsojcNSbun_4core5slice4iterINtB6_7IterMutTNtNtCs5GBHJSLTkJw_3syn8generics14TypeParamBoundNtNtBX_5token4PlusEENtNtNtNtBa_4iter6traits8iterator8Iterator4nextCs39Y7jx17GSw_12serde_derive, symObjAddr: 0x63B8, symBinAddr: 0x46D24, symSize: 0x8C }
  - { offsetInCU: 0x710E, offset: 0x413D8, size: 0x8, addend: 0x0, symName: __RNvXs31_NtNtCs5fsojcNSbun_4core5slice4iterINtB6_7IterMutTNtNtCs5GBHJSLTkJw_3syn8generics14WherePredicateNtNtBX_5token5CommaEENtNtNtNtBa_4iter6traits8iterator8Iterator4nextCs39Y7jx17GSw_12serde_derive, symObjAddr: 0x6444, symBinAddr: 0x46DB0, symSize: 0x8C }
  - { offsetInCU: 0x725F, offset: 0x41529, size: 0x8, addend: 0x0, symName: __RNvXs32_NtNtCs5fsojcNSbun_4core5slice4iterINtB6_7IterMutTNtNtCs5GBHJSLTkJw_3syn2ty4TypeNtNtBX_5token5CommaEENtNtNtNtBa_4iter6traits12double_ended19DoubleEndedIterator9next_backCs39Y7jx17GSw_12serde_derive, symObjAddr: 0x64D0, symBinAddr: 0x46E3C, symSize: 0xDC }
  - { offsetInCU: 0x7440, offset: 0x4170A, size: 0x8, addend: 0x0, symName: __RNvXs32_NtNtCs5fsojcNSbun_4core5slice4iterINtB6_7IterMutTNtNtCs5GBHJSLTkJw_3syn2ty9BareFnArgNtNtBX_5token5CommaEENtNtNtNtBa_4iter6traits12double_ended19DoubleEndedIterator9next_backCs39Y7jx17GSw_12serde_derive, symObjAddr: 0x65AC, symBinAddr: 0x46F18, symSize: 0xDC }
  - { offsetInCU: 0x7621, offset: 0x418EB, size: 0x8, addend: 0x0, symName: __RNvXs32_NtNtCs5fsojcNSbun_4core5slice4iterINtB6_7IterMutTNtNtCs5GBHJSLTkJw_3syn4data7VariantNtNtBX_5token5CommaEENtNtNtNtBa_4iter6traits12double_ended19DoubleEndedIterator9next_backCs39Y7jx17GSw_12serde_derive, symObjAddr: 0x6688, symBinAddr: 0x46FF4, symSize: 0xDC }
  - { offsetInCU: 0x7802, offset: 0x41ACC, size: 0x8, addend: 0x0, symName: __RNvXs32_NtNtCs5fsojcNSbun_4core5slice4iterINtB6_7IterMutTNtNtCs5GBHJSLTkJw_3syn4expr4ExprNtNtBX_5token5CommaEENtNtNtNtBa_4iter6traits12double_ended19DoubleEndedIterator9next_backCs39Y7jx17GSw_12serde_derive, symObjAddr: 0x6764, symBinAddr: 0x470D0, symSize: 0xDC }
  - { offsetInCU: 0x79E3, offset: 0x41CAD, size: 0x8, addend: 0x0, symName: __RNvXs32_NtNtCs5fsojcNSbun_4core5slice4iterINtB6_7IterMutTNtNtCs5GBHJSLTkJw_3syn4path15GenericArgumentNtNtBX_5token5CommaEENtNtNtNtBa_4iter6traits12double_ended19DoubleEndedIterator9next_backCs39Y7jx17GSw_12serde_derive, symObjAddr: 0x6840, symBinAddr: 0x471AC, symSize: 0xDC }
  - { offsetInCU: 0x7BC4, offset: 0x41E8E, size: 0x8, addend: 0x0, symName: __RNvXs32_NtNtCs5fsojcNSbun_4core5slice4iterINtB6_7IterMutTNtNtCs5GBHJSLTkJw_3syn8generics14TypeParamBoundNtNtBX_5token4PlusEENtNtNtNtBa_4iter6traits12double_ended19DoubleEndedIterator9next_backCs39Y7jx17GSw_12serde_derive, symObjAddr: 0x691C, symBinAddr: 0x47288, symSize: 0xDC }
  - { offsetInCU: 0x7DA5, offset: 0x4206F, size: 0x8, addend: 0x0, symName: __RNvXs32_NtNtCs5fsojcNSbun_4core5slice4iterINtB6_7IterMutTNtNtCs5GBHJSLTkJw_3syn8generics14WherePredicateNtNtBX_5token5CommaEENtNtNtNtBa_4iter6traits12double_ended19DoubleEndedIterator9next_backCs39Y7jx17GSw_12serde_derive, symObjAddr: 0x69F8, symBinAddr: 0x47364, symSize: 0xDC }
  - { offsetInCU: 0x8381, offset: 0x4264B, size: 0x8, addend: 0x0, symName: __RNvXs35_NtNtCs5fsojcNSbun_4core5slice4iterINtB6_7IterMutNtNtNtCs39Y7jx17GSw_12serde_derive9internals3ast5FieldENtNtNtNtBa_4iter6traits18unchecked_iterator17UncheckedIterator14next_uncheckedBY_, symObjAddr: 0x6AD4, symBinAddr: 0x47440, symSize: 0x74 }
  - { offsetInCU: 0x84B0, offset: 0x4277A, size: 0x8, addend: 0x0, symName: __RNvXs35_NtNtCs5fsojcNSbun_4core5slice4iterINtB6_7IterMutNtNtNtCs39Y7jx17GSw_12serde_derive9internals3ast7VariantENtNtNtNtBa_4iter6traits18unchecked_iterator17UncheckedIterator14next_uncheckedBY_, symObjAddr: 0x6B48, symBinAddr: 0x474B4, symSize: 0x74 }
  - { offsetInCU: 0x85DF, offset: 0x428A9, size: 0x8, addend: 0x0, symName: __RNvXs35_NtNtCs5fsojcNSbun_4core5slice4iterINtB6_7IterMutTNtNtCs5GBHJSLTkJw_3syn2ty4TypeNtNtBX_5token5CommaEENtNtNtNtBa_4iter6traits18unchecked_iterator17UncheckedIterator14next_uncheckedCs39Y7jx17GSw_12serde_derive, symObjAddr: 0x6BBC, symBinAddr: 0x47528, symSize: 0x74 }
  - { offsetInCU: 0x870E, offset: 0x429D8, size: 0x8, addend: 0x0, symName: __RNvXs35_NtNtCs5fsojcNSbun_4core5slice4iterINtB6_7IterMutTNtNtCs5GBHJSLTkJw_3syn2ty9BareFnArgNtNtBX_5token5CommaEENtNtNtNtBa_4iter6traits18unchecked_iterator17UncheckedIterator14next_uncheckedCs39Y7jx17GSw_12serde_derive, symObjAddr: 0x6C30, symBinAddr: 0x4759C, symSize: 0x74 }
  - { offsetInCU: 0x883D, offset: 0x42B07, size: 0x8, addend: 0x0, symName: __RNvXs35_NtNtCs5fsojcNSbun_4core5slice4iterINtB6_7IterMutTNtNtCs5GBHJSLTkJw_3syn4data7VariantNtNtBX_5token5CommaEENtNtNtNtBa_4iter6traits18unchecked_iterator17UncheckedIterator14next_uncheckedCs39Y7jx17GSw_12serde_derive, symObjAddr: 0x6CA4, symBinAddr: 0x47610, symSize: 0x74 }
  - { offsetInCU: 0x896C, offset: 0x42C36, size: 0x8, addend: 0x0, symName: __RNvXs35_NtNtCs5fsojcNSbun_4core5slice4iterINtB6_7IterMutTNtNtCs5GBHJSLTkJw_3syn4expr4ExprNtNtBX_5token5CommaEENtNtNtNtBa_4iter6traits18unchecked_iterator17UncheckedIterator14next_uncheckedCs39Y7jx17GSw_12serde_derive, symObjAddr: 0x6D18, symBinAddr: 0x47684, symSize: 0x74 }
  - { offsetInCU: 0x8A9B, offset: 0x42D65, size: 0x8, addend: 0x0, symName: __RNvXs35_NtNtCs5fsojcNSbun_4core5slice4iterINtB6_7IterMutTNtNtCs5GBHJSLTkJw_3syn4path15GenericArgumentNtNtBX_5token5CommaEENtNtNtNtBa_4iter6traits18unchecked_iterator17UncheckedIterator14next_uncheckedCs39Y7jx17GSw_12serde_derive, symObjAddr: 0x6D8C, symBinAddr: 0x476F8, symSize: 0x74 }
  - { offsetInCU: 0x8BCA, offset: 0x42E94, size: 0x8, addend: 0x0, symName: __RNvXs35_NtNtCs5fsojcNSbun_4core5slice4iterINtB6_7IterMutTNtNtCs5GBHJSLTkJw_3syn8generics14TypeParamBoundNtNtBX_5token4PlusEENtNtNtNtBa_4iter6traits18unchecked_iterator17UncheckedIterator14next_uncheckedCs39Y7jx17GSw_12serde_derive, symObjAddr: 0x6E00, symBinAddr: 0x4776C, symSize: 0x74 }
  - { offsetInCU: 0x8CF9, offset: 0x42FC3, size: 0x8, addend: 0x0, symName: __RNvXs35_NtNtCs5fsojcNSbun_4core5slice4iterINtB6_7IterMutTNtNtCs5GBHJSLTkJw_3syn8generics14WherePredicateNtNtBX_5token5CommaEENtNtNtNtBa_4iter6traits18unchecked_iterator17UncheckedIterator14next_uncheckedCs39Y7jx17GSw_12serde_derive, symObjAddr: 0x6E74, symBinAddr: 0x477E0, symSize: 0x74 }
  - { offsetInCU: 0x8E87, offset: 0x43151, size: 0x8, addend: 0x0, symName: __RNvXs4_NtNtCs5fsojcNSbun_4core5slice4iterINtB5_4IterNtNtNtCs39Y7jx17GSw_12serde_derive9internals3ast7VariantENtNtB9_5clone5Clone5cloneBU_, symObjAddr: 0x6EE8, symBinAddr: 0x47854, symSize: 0x2C }
  - { offsetInCU: 0x8EBC, offset: 0x43186, size: 0x8, addend: 0x0, symName: __RNvXs4_NtNtCs5fsojcNSbun_4core5slice4iterINtB5_4IterTNtNtCs5GBHJSLTkJw_3syn2ty4TypeNtNtBT_5token5CommaEENtNtB9_5clone5Clone5cloneCs39Y7jx17GSw_12serde_derive, symObjAddr: 0x6F14, symBinAddr: 0x47880, symSize: 0x2C }
  - { offsetInCU: 0x8EF1, offset: 0x431BB, size: 0x8, addend: 0x0, symName: __RNvXs4_NtNtCs5fsojcNSbun_4core5slice4iterINtB5_4IterTNtNtCs5GBHJSLTkJw_3syn2ty9BareFnArgNtNtBT_5token5CommaEENtNtB9_5clone5Clone5cloneCs39Y7jx17GSw_12serde_derive, symObjAddr: 0x6F40, symBinAddr: 0x478AC, symSize: 0x2C }
  - { offsetInCU: 0x8F26, offset: 0x431F0, size: 0x8, addend: 0x0, symName: __RNvXs4_NtNtCs5fsojcNSbun_4core5slice4iterINtB5_4IterTNtNtCs5GBHJSLTkJw_3syn4data7VariantNtNtBT_5token5CommaEENtNtB9_5clone5Clone5cloneCs39Y7jx17GSw_12serde_derive, symObjAddr: 0x6F6C, symBinAddr: 0x478D8, symSize: 0x2C }
  - { offsetInCU: 0x8F5B, offset: 0x43225, size: 0x8, addend: 0x0, symName: __RNvXs4_NtNtCs5fsojcNSbun_4core5slice4iterINtB5_4IterTNtNtCs5GBHJSLTkJw_3syn4path15GenericArgumentNtNtBT_5token5CommaEENtNtB9_5clone5Clone5cloneCs39Y7jx17GSw_12serde_derive, symObjAddr: 0x6F98, symBinAddr: 0x47904, symSize: 0x2C }
  - { offsetInCU: 0x8F90, offset: 0x4325A, size: 0x8, addend: 0x0, symName: __RNvXs4_NtNtCs5fsojcNSbun_4core5slice4iterINtB5_4IterTReNtCs5CKmLD4IrHZ_11proc_macro25IdentRINtNtNtNtCsltZDfVD1VKL_5alloc11collections5btree3set8BTreeSetNtNtB1A_6string6StringEEENtNtB9_5clone5Clone5cloneCs39Y7jx17GSw_12serde_derive, symObjAddr: 0x6FC4, symBinAddr: 0x47930, symSize: 0x2C }
  - { offsetInCU: 0xF95B, offset: 0x49C25, size: 0x8, addend: 0x0, symName: __RNvXsC_NtNtNtCs5fsojcNSbun_4core4iter8adapters7flattenINtNtNtBb_5slice4iter4IterNtNtNtCs39Y7jx17GSw_12serde_derive9internals3ast5FieldENtB5_21ConstSizeIntoIterator4sizeB1m_, symObjAddr: 0x6FF0, symBinAddr: 0x4795C, symSize: 0x18 }
  - { offsetInCU: 0xFD61, offset: 0x4A02B, size: 0x8, addend: 0x0, symName: __RNvYINtNtNtCs5fsojcNSbun_4core5slice4iter4IterNtNtNtCs39Y7jx17GSw_12serde_derive9internals3ast5FieldENtNtNtNtB9_4iter8adapters3zip27TrustedRandomAccessNoCoerce4sizeBO_, symObjAddr: 0x704C, symBinAddr: 0x479B8, symSize: 0x2C }
  - { offsetInCU: 0xFDAA, offset: 0x4A074, size: 0x8, addend: 0x0, symName: __RINvYINtNtNtCs5fsojcNSbun_4core5slice4iter4IterNtNtCs5GBHJSLTkJw_3syn8generics14WherePredicateENtNtNtNtBa_4iter6traits8iterator8Iterator6clonedBJ_ECs39Y7jx17GSw_12serde_derive, symObjAddr: 0x2F88, symBinAddr: 0x438F4, symSize: 0x2C }
  - { offsetInCU: 0xFE16, offset: 0x4A0E0, size: 0x8, addend: 0x0, symName: __RINvYINtNtNtCs5fsojcNSbun_4core5slice4iter4IterNtNtNtCs39Y7jx17GSw_12serde_derive9internals3ast5FieldENtNtNtNtBa_4iter6traits8iterator8Iterator3mapNtCs5CKmLD4IrHZ_11proc_macro211TokenStreamNCNvNtBP_2de23deserialize_transparents_0EBP_, symObjAddr: 0x2FB4, symBinAddr: 0x43920, symSize: 0x30 }
  - { offsetInCU: 0xFEA2, offset: 0x4A16C, size: 0x8, addend: 0x0, symName: __RINvYINtNtNtCs5fsojcNSbun_4core5slice4iter4IterNtNtNtCs39Y7jx17GSw_12serde_derive9internals3ast5FieldENtNtNtNtBa_4iter6traits8iterator8Iterator3mapNtCs5CKmLD4IrHZ_11proc_macro211TokenStreamNCNvNtBP_3ser27wrap_serialize_variant_withs_0EBP_, symObjAddr: 0x2FE4, symBinAddr: 0x43950, symSize: 0x2C }
  - { offsetInCU: 0xFF2E, offset: 0x4A1F8, size: 0x8, addend: 0x0, symName: __RINvYINtNtNtCs5fsojcNSbun_4core5slice4iter4IterNtNtNtCs39Y7jx17GSw_12serde_derive9internals3ast5FieldENtNtNtNtBa_4iter6traits8iterator8Iterator3mapNtNtCs5GBHJSLTkJw_3syn4expr6MemberNCNvNtBP_3ser35serialize_adjacently_tagged_variants0_0EBP_, symObjAddr: 0x3010, symBinAddr: 0x4397C, symSize: 0x2C }
  - { offsetInCU: 0xFFBA, offset: 0x4A284, size: 0x8, addend: 0x0, symName: __RINvYINtNtNtCs5fsojcNSbun_4core5slice4iter4IterNtNtNtCs39Y7jx17GSw_12serde_derive9internals3ast5FieldENtNtNtNtBa_4iter6traits8iterator8Iterator3mapRNtNtCs5GBHJSLTkJw_3syn2ty4TypeNCNvNtBP_2de25unwrap_to_variant_closure0EBP_, symObjAddr: 0x303C, symBinAddr: 0x439A8, symSize: 0x2C }
  - { offsetInCU: 0x10046, offset: 0x4A310, size: 0x8, addend: 0x0, symName: __RINvYINtNtNtCs5fsojcNSbun_4core5slice4iter4IterNtNtNtCs39Y7jx17GSw_12serde_derive9internals3ast5FieldENtNtNtNtBa_4iter6traits8iterator8Iterator3mapRNtNtCs5GBHJSLTkJw_3syn2ty4TypeNCNvNtBP_2de29wrap_deserialize_variant_with0EBP_, symObjAddr: 0x3068, symBinAddr: 0x439D4, symSize: 0x2C }
  - { offsetInCU: 0x100D2, offset: 0x4A39C, size: 0x8, addend: 0x0, symName: __RINvYINtNtNtCs5fsojcNSbun_4core5slice4iter4IterNtNtNtCs39Y7jx17GSw_12serde_derive9internals3ast5FieldENtNtNtNtBa_4iter6traits8iterator8Iterator3mapRNtNtCs5GBHJSLTkJw_3syn2ty4TypeNCNvNtBP_3ser27wrap_serialize_variant_with0EBP_, symObjAddr: 0x3094, symBinAddr: 0x43A00, symSize: 0x2C }
  - { offsetInCU: 0x1015E, offset: 0x4A428, size: 0x8, addend: 0x0, symName: __RINvYINtNtNtCs5fsojcNSbun_4core5slice4iter4IterNtNtNtCs39Y7jx17GSw_12serde_derive9internals3ast5FieldENtNtNtNtBa_4iter6traits8iterator8Iterator3mapRNtNtCs5GBHJSLTkJw_3syn4expr6MemberNCNCNvNtBP_7pretend21pretend_variants_used0s_0EBP_, symObjAddr: 0x30C0, symBinAddr: 0x43A2C, symSize: 0x2C }
  - { offsetInCU: 0x101EA, offset: 0x4A4B4, size: 0x8, addend: 0x0, symName: __RINvYINtNtNtCs5fsojcNSbun_4core5slice4iter4IterNtNtNtCs39Y7jx17GSw_12serde_derive9internals3ast5FieldENtNtNtNtBa_4iter6traits8iterator8Iterator3mapRNtNtCs5GBHJSLTkJw_3syn4expr6MemberNCNCNvNtBP_7pretend24pretend_fields_used_enum00EBP_, symObjAddr: 0x30EC, symBinAddr: 0x43A58, symSize: 0x2C }
  - { offsetInCU: 0x10276, offset: 0x4A540, size: 0x8, addend: 0x0, symName: __RINvYINtNtNtCs5fsojcNSbun_4core5slice4iter4IterNtNtNtCs39Y7jx17GSw_12serde_derive9internals3ast5FieldENtNtNtNtBa_4iter6traits8iterator8Iterator3mapRNtNtCs5GBHJSLTkJw_3syn4expr6MemberNCNvNtBP_2de15deserialize_seqs0_0EBP_, symObjAddr: 0x3118, symBinAddr: 0x43A84, symSize: 0x2C }
  - { offsetInCU: 0x10302, offset: 0x4A5CC, size: 0x8, addend: 0x0, symName: __RINvYINtNtNtCs5fsojcNSbun_4core5slice4iter4IterNtNtNtCs39Y7jx17GSw_12serde_derive9internals3ast5FieldENtNtNtNtBa_4iter6traits8iterator8Iterator3mapRNtNtCs5GBHJSLTkJw_3syn4expr6MemberNCNvNtBP_2de25unwrap_to_variant_closures0_0EBP_, symObjAddr: 0x3144, symBinAddr: 0x43AB0, symSize: 0x2C }
  - { offsetInCU: 0x1038E, offset: 0x4A658, size: 0x8, addend: 0x0, symName: __RINvYINtNtNtCs5fsojcNSbun_4core5slice4iter4IterNtNtNtCs39Y7jx17GSw_12serde_derive9internals3ast5FieldENtNtNtNtBa_4iter6traits8iterator8Iterator3mapRNtNtCs5GBHJSLTkJw_3syn4expr6MemberNCNvNtBP_3ser17serialize_variants_0EBP_, symObjAddr: 0x3170, symBinAddr: 0x43ADC, symSize: 0x2C }
  - { offsetInCU: 0x1041A, offset: 0x4A6E4, size: 0x8, addend: 0x0, symName: __RINvYINtNtNtCs5fsojcNSbun_4core5slice4iter4IterNtNtNtCs39Y7jx17GSw_12serde_derive9internals3ast5FieldENtNtNtNtBa_4iter6traits8iterator8Iterator3mapRNtNtCs5GBHJSLTkJw_3syn4expr6MemberNCNvNtBP_3ser37serialize_struct_variant_with_flattens0_0EBP_, symObjAddr: 0x319C, symBinAddr: 0x43B08, symSize: 0x2C }
  - { offsetInCU: 0x104A6, offset: 0x4A770, size: 0x8, addend: 0x0, symName: __RINvYINtNtNtCs5fsojcNSbun_4core5slice4iter4IterNtNtNtCs39Y7jx17GSw_12serde_derive9internals3ast5FieldENtNtNtNtBa_4iter6traits8iterator8Iterator3mapRNtNtCs5GBHJSLTkJw_3syn4expr6MemberNCNvNtBP_7pretend26pretend_fields_used_struct0EBP_, symObjAddr: 0x31C8, symBinAddr: 0x43B34, symSize: 0x2C }
  - { offsetInCU: 0x10532, offset: 0x4A7FC, size: 0x8, addend: 0x0, symName: __RINvYINtNtNtCs5fsojcNSbun_4core5slice4iter4IterNtNtNtCs39Y7jx17GSw_12serde_derive9internals3ast5FieldENtNtNtNtBa_4iter6traits8iterator8Iterator3mapRNtNtCs5GBHJSLTkJw_3syn4expr6MemberNCNvNtBP_7pretend33pretend_fields_used_struct_packed0EBP_, symObjAddr: 0x31F4, symBinAddr: 0x43B60, symSize: 0x2C }
  - { offsetInCU: 0x105BE, offset: 0x4A888, size: 0x8, addend: 0x0, symName: __RINvYINtNtNtCs5fsojcNSbun_4core5slice4iter4IterNtNtNtCs39Y7jx17GSw_12serde_derive9internals3ast5FieldENtNtNtNtBa_4iter6traits8iterator8Iterator3mapRRNtNtCs5GBHJSLTkJw_3syn2ty4TypeNCNvNtBP_3ser35serialize_adjacently_tagged_variant0EBP_, symObjAddr: 0x3220, symBinAddr: 0x43B8C, symSize: 0x2C }
  - { offsetInCU: 0x1064A, offset: 0x4A914, size: 0x8, addend: 0x0, symName: __RINvYINtNtNtCs5fsojcNSbun_4core5slice4iter4IterNtNtNtCs39Y7jx17GSw_12serde_derive9internals3ast5FieldENtNtNtNtBa_4iter6traits8iterator8Iterator3mapRRNtNtCs5GBHJSLTkJw_3syn2ty4TypeNCNvNtBP_3ser37serialize_struct_variant_with_flattens_0EBP_, symObjAddr: 0x324C, symBinAddr: 0x43BB8, symSize: 0x2C }
  - { offsetInCU: 0x106D6, offset: 0x4A9A0, size: 0x8, addend: 0x0, symName: __RINvYINtNtNtCs5fsojcNSbun_4core5slice4iter4IterNtNtNtCs39Y7jx17GSw_12serde_derive9internals3ast5FieldENtNtNtNtBa_4iter6traits8iterator8Iterator3mapjNCINvNvXs0_NtNtB1I_8adapters6filterINtB2x_6FilterppEB1C_5count8to_usizeRBJ_NCNvNtBP_2de15deserialize_seq0E0EBP_, symObjAddr: 0x3278, symBinAddr: 0x43BE4, symSize: 0x2C }
  - { offsetInCU: 0x10762, offset: 0x4AA2C, size: 0x8, addend: 0x0, symName: __RINvYINtNtNtCs5fsojcNSbun_4core5slice4iter4IterNtNtNtCs39Y7jx17GSw_12serde_derive9internals3ast5FieldENtNtNtNtBa_4iter6traits8iterator8Iterator3mapjNCINvNvXs0_NtNtB1I_8adapters6filterINtB2x_6FilterppEB1C_5count8to_usizeRBJ_NCNvNtBP_2de17deserialize_tuple0E0EBP_, symObjAddr: 0x32A4, symBinAddr: 0x43C10, symSize: 0x2C }
  - { offsetInCU: 0x107EE, offset: 0x4AAB8, size: 0x8, addend: 0x0, symName: __RINvYINtNtNtCs5fsojcNSbun_4core5slice4iter4IterNtNtNtCs39Y7jx17GSw_12serde_derive9internals3ast5FieldENtNtNtNtBa_4iter6traits8iterator8Iterator6filterNCNvNtBP_2de15deserialize_seq0EBP_, symObjAddr: 0x32D0, symBinAddr: 0x43C3C, symSize: 0x2C }
  - { offsetInCU: 0x10871, offset: 0x4AB3B, size: 0x8, addend: 0x0, symName: __RINvYINtNtNtCs5fsojcNSbun_4core5slice4iter4IterNtNtNtCs39Y7jx17GSw_12serde_derive9internals3ast5FieldENtNtNtNtBa_4iter6traits8iterator8Iterator6filterNCNvNtBP_2de17deserialize_tuple0EBP_, symObjAddr: 0x32FC, symBinAddr: 0x43C68, symSize: 0x2C }
  - { offsetInCU: 0x108F4, offset: 0x4ABBE, size: 0x8, addend: 0x0, symName: __RINvYINtNtNtCs5fsojcNSbun_4core5slice4iter4IterNtNtNtCs39Y7jx17GSw_12serde_derive9internals3ast5FieldENtNtNtNtBa_4iter6traits8iterator8Iterator6filterNCNvNtBP_3ser23serialize_struct_as_map0EBP_, symObjAddr: 0x3328, symBinAddr: 0x43C94, symSize: 0x2C }
  - { offsetInCU: 0x10977, offset: 0x4AC41, size: 0x8, addend: 0x0, symName: __RINvYINtNtNtCs5fsojcNSbun_4core5slice4iter4IterNtNtNtCs39Y7jx17GSw_12serde_derive9internals3ast5FieldENtNtNtNtBa_4iter6traits8iterator8Iterator6filterNCNvNtBP_3ser24serialize_struct_variants_0EBP_, symObjAddr: 0x3354, symBinAddr: 0x43CC0, symSize: 0x2C }
  - { offsetInCU: 0x109FA, offset: 0x4ACC4, size: 0x8, addend: 0x0, symName: __RINvYINtNtNtCs5fsojcNSbun_4core5slice4iter4IterNtNtNtCs39Y7jx17GSw_12serde_derive9internals3ast5FieldENtNtNtNtBa_4iter6traits8iterator8Iterator6filterNCNvNtBP_3ser24serialize_struct_visitor0EBP_, symObjAddr: 0x3380, symBinAddr: 0x43CEC, symSize: 0x2C }
  - { offsetInCU: 0x10A7D, offset: 0x4AD47, size: 0x8, addend: 0x0, symName: __RINvYINtNtNtCs5fsojcNSbun_4core5slice4iter4IterNtNtNtCs39Y7jx17GSw_12serde_derive9internals3ast5FieldENtNtNtNtBa_4iter6traits8iterator8Iterator6filterNCNvNtBP_3ser26serialize_struct_as_struct0EBP_, symObjAddr: 0x33AC, symBinAddr: 0x43D18, symSize: 0x2C }
  - { offsetInCU: 0x10B00, offset: 0x4ADCA, size: 0x8, addend: 0x0, symName: __RINvYINtNtNtCs5fsojcNSbun_4core5slice4iter4IterNtNtNtCs39Y7jx17GSw_12serde_derive9internals3ast5FieldENtNtNtNtBa_4iter6traits8iterator8Iterator6filterNCNvNtBP_3ser37serialize_struct_variant_with_flatten0EBP_, symObjAddr: 0x33D8, symBinAddr: 0x43D44, symSize: 0x2C }
  - { offsetInCU: 0x10B83, offset: 0x4AE4D, size: 0x8, addend: 0x0, symName: __RINvYINtNtNtCs5fsojcNSbun_4core5slice4iter4IterNtNtNtCs39Y7jx17GSw_12serde_derive9internals3ast5FieldENtNtNtNtBa_4iter6traits8iterator8Iterator6filterNCNvNtBP_5bound10with_bounds0_0EBP_, symObjAddr: 0x3404, symBinAddr: 0x43D70, symSize: 0x30 }
  - { offsetInCU: 0x10C06, offset: 0x4AED0, size: 0x8, addend: 0x0, symName: __RINvYINtNtNtCs5fsojcNSbun_4core5slice4iter4IterNtNtNtCs39Y7jx17GSw_12serde_derive9internals3ast5FieldENtNtNtNtBa_4iter6traits8iterator8Iterator6filterNCNvNtBP_5bound10with_bounds_0EBP_, symObjAddr: 0x3434, symBinAddr: 0x43DA0, symSize: 0x3C }
  - { offsetInCU: 0x10C89, offset: 0x4AF53, size: 0x8, addend: 0x0, symName: __RINvYINtNtNtCs5fsojcNSbun_4core5slice4iter4IterNtNtNtCs39Y7jx17GSw_12serde_derive9internals3ast5FieldENtNtNtNtBa_4iter6traits8iterator8Iterator8try_folduNCINvNvXs_NtNtB1I_8adapters9enumerateINtB2B_9EnumeratepEB1C_8try_fold9enumerateRBJ_uINtNtNtBa_3ops12control_flow11ControlFlowTjB3I_EENCINvNvB1C_4find5checkB4s_QNCNvNtBP_2de18deserialize_struct0E0E0B3N_EBP_, symObjAddr: 0x3470, symBinAddr: 0x43DDC, symSize: 0x188 }
  - { offsetInCU: 0x10D43, offset: 0x4B00D, size: 0x8, addend: 0x0, symName: __RINvYINtNtNtCs5fsojcNSbun_4core5slice4iter4IterNtNtNtCs39Y7jx17GSw_12serde_derive9internals3ast5FieldENtNtNtNtBa_4iter6traits8iterator8Iterator8try_folduNCINvNvXs_NtNtB1I_8adapters9enumerateINtB2B_9EnumeratepEB1C_8try_fold9enumerateRBJ_uINtNtNtBa_3ops12control_flow11ControlFlowTjB3I_EENCINvNvB1C_4find5checkB4s_QNCNvNtBP_3ser22serialize_tuple_struct0E0E0B3N_EBP_, symObjAddr: 0x35F8, symBinAddr: 0x43F64, symSize: 0x188 }
  - { offsetInCU: 0x10DFD, offset: 0x4B0C7, size: 0x8, addend: 0x0, symName: __RINvYINtNtNtCs5fsojcNSbun_4core5slice4iter4IterNtNtNtCs39Y7jx17GSw_12serde_derive9internals3ast5FieldENtNtNtNtBa_4iter6traits8iterator8Iterator8try_folduNCINvNvXs_NtNtB1I_8adapters9enumerateINtB2B_9EnumeratepEB1C_8try_fold9enumerateRBJ_uINtNtNtBa_3ops12control_flow11ControlFlowTjB3I_EENCINvNvB1C_4find5checkB4s_QNCNvNtBP_3ser23serialize_tuple_variant0E0E0B3N_EBP_, symObjAddr: 0x3780, symBinAddr: 0x440EC, symSize: 0x188 }
  - { offsetInCU: 0x10EB7, offset: 0x4B181, size: 0x8, addend: 0x0, symName: __RINvYINtNtNtCs5fsojcNSbun_4core5slice4iter4IterNtNtNtCs39Y7jx17GSw_12serde_derive9internals3ast5FieldENtNtNtNtBa_4iter6traits8iterator8Iterator8try_folduNCINvNvXs_NtNtB1I_8adapters9enumerateINtB2B_9EnumeratepEB1C_8try_fold9enumerateRBJ_uINtNtNtBa_3ops12control_flow11ControlFlowTjB3I_EENCINvNvB1C_4find5checkB4s_QNCNvNtBP_3ser30serialize_tuple_struct_visitor0E0E0B3N_EBP_, symObjAddr: 0x3908, symBinAddr: 0x44274, symSize: 0x188 }
  - { offsetInCU: 0x10F71, offset: 0x4B23B, size: 0x8, addend: 0x0, symName: __RINvYINtNtNtCs5fsojcNSbun_4core5slice4iter4IterNtNtNtCs39Y7jx17GSw_12serde_derive9internals3ast7VariantENtNtNtNtBa_4iter6traits8iterator8Iterator10filter_mapNtCs5CKmLD4IrHZ_11proc_macro211TokenStreamNCNvNtBP_7pretend24pretend_fields_used_enum0EBP_, symObjAddr: 0x3A90, symBinAddr: 0x443FC, symSize: 0x30 }
  - { offsetInCU: 0x10FFD, offset: 0x4B2C7, size: 0x8, addend: 0x0, symName: __RINvYINtNtNtCs5fsojcNSbun_4core5slice4iter4IterNtNtNtCs39Y7jx17GSw_12serde_derive9internals3ast7VariantENtNtNtNtBa_4iter6traits8iterator8Iterator10filter_mapRSNtNtCs5GBHJSLTkJw_3syn8generics14WherePredicateNCNvNtBP_5bound35with_where_predicates_from_variants0EBP_, symObjAddr: 0x3AC0, symBinAddr: 0x4442C, symSize: 0x30 }
  - { offsetInCU: 0x11089, offset: 0x4B353, size: 0x8, addend: 0x0, symName: __RINvYINtNtNtCs5fsojcNSbun_4core5slice4iter4IterNtNtNtCs39Y7jx17GSw_12serde_derive9internals3ast7VariantENtNtNtNtBa_4iter6traits8iterator8Iterator3mapIB4_NtBL_5FieldENCNvMs_BL_NtBL_4Data10all_fields0EBP_, symObjAddr: 0x3AF0, symBinAddr: 0x4445C, symSize: 0x2C }
  - { offsetInCU: 0x11115, offset: 0x4B3DF, size: 0x8, addend: 0x0, symName: __RINvYINtNtNtCs5fsojcNSbun_4core5slice4iter4IterNtNtNtCs39Y7jx17GSw_12serde_derive9internals3ast7VariantENtNtNtNtBa_4iter6traits8iterator8Iterator3mapNtCs5CKmLD4IrHZ_11proc_macro211TokenStreamNCNvNtBP_7pretend21pretend_variants_used0EBP_, symObjAddr: 0x3B1C, symBinAddr: 0x44488, symSize: 0x3C }
  - { offsetInCU: 0x111A1, offset: 0x4B46B, size: 0x8, addend: 0x0, symName: __RINvYINtNtNtCs5fsojcNSbun_4core5slice4iter4IterNtNtNtCs39Y7jx17GSw_12serde_derive9internals3ast7VariantENtNtNtNtBa_4iter6traits8iterator8Iterator3mapTReNtCs5CKmLD4IrHZ_11proc_macro25IdentRINtNtNtNtCsltZDfVD1VKL_5alloc11collections5btree3set8BTreeSetNtNtB39_6string6StringEENCNvNtBP_2de29deserialize_custom_identifiers_0EBP_, symObjAddr: 0x3B58, symBinAddr: 0x444C4, symSize: 0x2C }
  - { offsetInCU: 0x1122D, offset: 0x4B4F7, size: 0x8, addend: 0x0, symName: __RINvYINtNtNtCs5fsojcNSbun_4core5slice4iter4IterNtNtNtCs39Y7jx17GSw_12serde_derive9internals3ast7VariantENtNtNtNtBa_4iter6traits8iterator8Iterator6filterNCNvNtBP_2de31deserialize_untagged_enum_after0EBP_, symObjAddr: 0x3B84, symBinAddr: 0x444F0, symSize: 0x2C }
  - { offsetInCU: 0x112D9, offset: 0x4B5A3, size: 0x8, addend: 0x0, symName: __RINvYINtNtNtCs5fsojcNSbun_4core5slice4iter4IterNtNtNtCs39Y7jx17GSw_12serde_derive9internals3ast7VariantENtNtNtNtBa_4iter6traits8iterator8Iterator8flat_mapIB4_NtBL_5FieldENCNvMs_BL_NtBL_4Data10all_fields0EBP_, symObjAddr: 0x3BB0, symBinAddr: 0x4451C, symSize: 0xA4 }
  - { offsetInCU: 0x113E8, offset: 0x4B6B2, size: 0x8, addend: 0x0, symName: __RINvYINtNtNtCs5fsojcNSbun_4core5slice4iter4IterNtNtNtCs39Y7jx17GSw_12serde_derive9internals3ast7VariantENtNtNtNtBa_4iter6traits8iterator8Iterator8try_foldjNCINvNtNtB1K_8adapters3map12map_try_foldRBJ_IB4_NtBL_5FieldEjINtNtNtBa_3ops12control_flow11ControlFlowujENCNvMs_BL_NtBL_4Data10all_fields0NCINvNvMsv_NtB2A_7flattenINtB4S_13FlattenCompatppE13iter_try_fold7flattenB3b_jB3s_INvNvXsx_B4S_B56_B1E_10advance_by7advanceB3b_EE0E0B3s_EBP_, symObjAddr: 0x3C54, symBinAddr: 0x445C0, symSize: 0x198 }
  - { offsetInCU: 0x114A4, offset: 0x4B76E, size: 0x8, addend: 0x0, symName: __RINvYINtNtNtCs5fsojcNSbun_4core5slice4iter4IterNtNtNtCs39Y7jx17GSw_12serde_derive9internals3ast7VariantENtNtNtNtBa_4iter6traits8iterator8Iterator8try_folduNCINvNvXs_NtNtB1K_8adapters9enumerateINtB2D_9EnumeratepEB1E_8try_fold9enumerateRBJ_uINtNtNtBa_3ops12control_flow11ControlFlowNtCs5CKmLD4IrHZ_11proc_macro211TokenStreamENCINvNtB2F_6filter15filter_try_foldTjB3K_EuB3P_NCNvNtBP_2de34deserialize_adjacently_tagged_enums0_0NCINvNvB1E_8find_map5checkB5K_B4u_QNCB5Y_s1_0E0E0E0B3P_EBP_, symObjAddr: 0x3DEC, symBinAddr: 0x44758, symSize: 0x144 }
  - { offsetInCU: 0x1155F, offset: 0x4B829, size: 0x8, addend: 0x0, symName: __RINvYINtNtNtCs5fsojcNSbun_4core5slice4iter4IterNtNtNtCs39Y7jx17GSw_12serde_derive9internals3ast7VariantENtNtNtNtBa_4iter6traits8iterator8Iterator8try_folduNCINvNvXs_NtNtB1K_8adapters9enumerateINtB2D_9EnumeratepEB1E_8try_fold9enumerateRBJ_uINtNtNtBa_3ops12control_flow11ControlFlowTjB3K_EENCINvNvB1E_4find5checkB4u_QNCNvNtBP_2de25prepare_enum_variant_enum0E0E0B3P_EBP_, symObjAddr: 0x3F30, symBinAddr: 0x4489C, symSize: 0x188 }
  - { offsetInCU: 0x11619, offset: 0x4B8E3, size: 0x8, addend: 0x0, symName: __RINvYINtNtNtCs5fsojcNSbun_4core5slice4iter4IterNtNtNtCs39Y7jx17GSw_12serde_derive9internals3ast7VariantENtNtNtNtBa_4iter6traits8iterator8Iterator8try_folduNCINvNvXs_NtNtB1K_8adapters9enumerateINtB2D_9EnumeratepEB1E_8try_fold9enumerateRBJ_uINtNtNtBa_3ops12control_flow11ControlFlowTjB3K_EENCINvNvB1E_4find5checkB4u_QNCNvNtBP_2de34deserialize_adjacently_tagged_enum0E0E0B3P_EBP_, symObjAddr: 0x40B8, symBinAddr: 0x44A24, symSize: 0x188 }
  - { offsetInCU: 0x116D3, offset: 0x4B99D, size: 0x8, addend: 0x0, symName: __RINvYINtNtNtCs5fsojcNSbun_4core5slice4iter4IterNtNtNtCs39Y7jx17GSw_12serde_derive9internals3ast7VariantENtNtNtNtBa_4iter6traits8iterator8Iterator8try_folduNCINvNvXs_NtNtB1K_8adapters9enumerateINtB2D_9EnumeratepEB1E_8try_fold9enumerateRBJ_uINtNtNtBa_3ops12control_flow11ControlFlowTjB3K_EENCINvNvB1E_4find5checkB4u_QNCNvNtBP_2de34deserialize_externally_tagged_enum0E0E0B3P_EBP_, symObjAddr: 0x4240, symBinAddr: 0x44BAC, symSize: 0x188 }
  - { offsetInCU: 0x1178D, offset: 0x4BA57, size: 0x8, addend: 0x0, symName: __RINvYINtNtNtCs5fsojcNSbun_4core5slice4iter4IterNtNtNtCs39Y7jx17GSw_12serde_derive9internals3ast7VariantENtNtNtNtBa_4iter6traits8iterator8Iterator8try_folduNCINvNvXs_NtNtB1K_8adapters9enumerateINtB2D_9EnumeratepEB1E_8try_fold9enumerateRBJ_uINtNtNtBa_3ops12control_flow11ControlFlowTjB3K_EENCINvNvB1E_4find5checkB4u_QNCNvNtBP_2de34deserialize_internally_tagged_enum0E0E0B3P_EBP_, symObjAddr: 0x43C8, symBinAddr: 0x44D34, symSize: 0x188 }
  - { offsetInCU: 0x11847, offset: 0x4BB11, size: 0x8, addend: 0x0, symName: __RINvYINtNtNtCs5fsojcNSbun_4core5slice4iter4IterNtNtNtCs39Y7jx17GSw_12serde_derive9internals3ast7VariantENtNtNtNtBa_4iter6traits8iterator8Iterator8try_folduNCINvNvXs_NtNtB1K_8adapters9enumerateINtB2D_9EnumeratepEB1E_8try_fold9enumerateRBJ_uINtNtNtBa_3ops12control_flow11ControlFlowjENCINvNtB2F_6filter15filter_try_foldTjB3K_EuB3P_NCNvNtBP_2de25prepare_enum_variant_enum0NCINvNvB1E_8position5checkB55_NCB5j_s0_0E0E0E0B3P_EBP_, symObjAddr: 0x4550, symBinAddr: 0x44EBC, symSize: 0x174 }
  - { offsetInCU: 0x11901, offset: 0x4BBCB, size: 0x8, addend: 0x0, symName: __RINvYINtNtNtCs5fsojcNSbun_4core5slice4iter4IterTRNtNtNtCs39Y7jx17GSw_12serde_derive9internals3ast5FieldNtCs5CKmLD4IrHZ_11proc_macro25IdentEENtNtNtNtBa_4iter6traits8iterator8Iterator3mapNtB1F_11TokenStreamNCNvNtBR_2de15deserialize_maps8_0EBR_, symObjAddr: 0x46C4, symBinAddr: 0x45030, symSize: 0x30 }
  - { offsetInCU: 0x1198D, offset: 0x4BC57, size: 0x8, addend: 0x0, symName: __RINvYINtNtNtCs5fsojcNSbun_4core5slice4iter4IterTRNtNtNtCs39Y7jx17GSw_12serde_derive9internals3ast5FieldNtCs5CKmLD4IrHZ_11proc_macro25IdentEENtNtNtNtBa_4iter6traits8iterator8Iterator6filterNCNvNtBR_2de15deserialize_maps1_0EBR_, symObjAddr: 0x46F4, symBinAddr: 0x45060, symSize: 0x2C }
  - { offsetInCU: 0x11A10, offset: 0x4BCDA, size: 0x8, addend: 0x0, symName: __RINvYINtNtNtCs5fsojcNSbun_4core5slice4iter4IterTRNtNtNtCs39Y7jx17GSw_12serde_derive9internals3ast5FieldNtCs5CKmLD4IrHZ_11proc_macro25IdentEENtNtNtNtBa_4iter6traits8iterator8Iterator6filterNCNvNtBR_2de15deserialize_maps4_0EBR_, symObjAddr: 0x4720, symBinAddr: 0x4508C, symSize: 0x2C }
  - { offsetInCU: 0x11A93, offset: 0x4BD5D, size: 0x8, addend: 0x0, symName: __RINvYINtNtNtCs5fsojcNSbun_4core5slice4iter4IterTRNtNtNtCs39Y7jx17GSw_12serde_derive9internals3ast5FieldNtCs5CKmLD4IrHZ_11proc_macro25IdentEENtNtNtNtBa_4iter6traits8iterator8Iterator6filterNCNvNtBR_2de15deserialize_maps6_0EBR_, symObjAddr: 0x474C, symBinAddr: 0x450B8, symSize: 0x2C }
  - { offsetInCU: 0x11B16, offset: 0x4BDE0, size: 0x8, addend: 0x0, symName: __RINvYINtNtNtCs5fsojcNSbun_4core5slice4iter4IterTRNtNtNtCs39Y7jx17GSw_12serde_derive9internals3ast5FieldNtCs5CKmLD4IrHZ_11proc_macro25IdentEENtNtNtNtBa_4iter6traits8iterator8Iterator6filterNCNvNtBR_2de15deserialize_maps_0EBR_, symObjAddr: 0x4778, symBinAddr: 0x450E4, symSize: 0x2C }
  - { offsetInCU: 0x11B99, offset: 0x4BE63, size: 0x8, addend: 0x0, symName: __RINvYINtNtNtCs5fsojcNSbun_4core5slice4iter4IterTReNtCs5CKmLD4IrHZ_11proc_macro25IdentRINtNtNtNtCsltZDfVD1VKL_5alloc11collections5btree3set8BTreeSetNtNtB1v_6string6StringEEENtNtNtNtBa_4iter6traits8iterator8Iterator3mapB1l_NCNvNtCs39Y7jx17GSw_12serde_derive2de18deserialize_structs0_0EB3D_, symObjAddr: 0x47A4, symBinAddr: 0x45110, symSize: 0x2C }
  - { offsetInCU: 0x11C25, offset: 0x4BEEF, size: 0x8, addend: 0x0, symName: __RINvYINtNtNtCs5fsojcNSbun_4core5slice4iter4IterTReNtCs5CKmLD4IrHZ_11proc_macro25IdentRINtNtNtNtCsltZDfVD1VKL_5alloc11collections5btree3set8BTreeSetNtNtB1v_6string6StringEEENtNtNtNtBa_4iter6traits8iterator8Iterator3mapB1l_NCNvNtCs39Y7jx17GSw_12serde_derive2de29deserialize_custom_identifiers0_0EB3D_, symObjAddr: 0x47D0, symBinAddr: 0x4513C, symSize: 0x2C }
  - { offsetInCU: 0x11CB1, offset: 0x4BF7B, size: 0x8, addend: 0x0, symName: __RINvYINtNtNtCs5fsojcNSbun_4core5slice4iter4IterTReNtCs5CKmLD4IrHZ_11proc_macro25IdentRINtNtNtNtCsltZDfVD1VKL_5alloc11collections5btree3set8BTreeSetNtNtB1v_6string6StringEEENtNtNtNtBa_4iter6traits8iterator8Iterator3mapNtBO_11TokenStreamNCNvNtCs39Y7jx17GSw_12serde_derive2de22deserialize_identifier0EB3R_, symObjAddr: 0x47FC, symBinAddr: 0x45168, symSize: 0x30 }
  - { offsetInCU: 0x11D3D, offset: 0x4C007, size: 0x8, addend: 0x0, symName: __RINvYINtNtNtCs5fsojcNSbun_4core5slice4iter4IterTReNtCs5CKmLD4IrHZ_11proc_macro25IdentRINtNtNtNtCsltZDfVD1VKL_5alloc11collections5btree3set8BTreeSetNtNtB1v_6string6StringEEENtNtNtNtBa_4iter6traits8iterator8Iterator3mapNtBO_11TokenStreamNCNvNtCs39Y7jx17GSw_12serde_derive2de22deserialize_identifiers_0EB3R_, symObjAddr: 0x482C, symBinAddr: 0x45198, symSize: 0x30 }
  - { offsetInCU: 0x11DC9, offset: 0x4C093, size: 0x8, addend: 0x0, symName: __RINvYINtNtNtCs5fsojcNSbun_4core5slice4iter4IterTReNtCs5CKmLD4IrHZ_11proc_macro25IdentRINtNtNtNtCsltZDfVD1VKL_5alloc11collections5btree3set8BTreeSetNtNtB1v_6string6StringEEENtNtNtNtBa_4iter6traits8iterator8Iterator3mapRBK_NCNvNtCs39Y7jx17GSw_12serde_derive2de25prepare_enum_variant_enums2_0EB3D_, symObjAddr: 0x485C, symBinAddr: 0x451C8, symSize: 0x2C }
  - { offsetInCU: 0x11E55, offset: 0x4C11F, size: 0x8, addend: 0x0, symName: __RINvYINtNtNtCs5fsojcNSbun_4core5slice4iter4IterTReNtCs5CKmLD4IrHZ_11proc_macro25IdentRINtNtNtNtCsltZDfVD1VKL_5alloc11collections5btree3set8BTreeSetNtNtB1v_6string6StringEEENtNtNtNtBa_4iter6traits8iterator8Iterator3mapRBM_NCNvNtCs39Y7jx17GSw_12serde_derive2de32deserialize_generated_identifier0EB3D_, symObjAddr: 0x4888, symBinAddr: 0x451F4, symSize: 0x2C }
  - { offsetInCU: 0x11F0A, offset: 0x4C1D4, size: 0x8, addend: 0x0, symName: __RINvYINtNtNtCs5fsojcNSbun_4core5slice4iter4IterTReNtCs5CKmLD4IrHZ_11proc_macro25IdentRINtNtNtNtCsltZDfVD1VKL_5alloc11collections5btree3set8BTreeSetNtNtB1v_6string6StringEEENtNtNtNtBa_4iter6traits8iterator8Iterator8flat_mapB1l_NCNvNtCs39Y7jx17GSw_12serde_derive2de18deserialize_structs0_0EB3I_, symObjAddr: 0x48B4, symBinAddr: 0x45220, symSize: 0xC0 }
  - { offsetInCU: 0x12042, offset: 0x4C30C, size: 0x8, addend: 0x0, symName: __RINvYINtNtNtCs5fsojcNSbun_4core5slice4iter4IterTReNtCs5CKmLD4IrHZ_11proc_macro25IdentRINtNtNtNtCsltZDfVD1VKL_5alloc11collections5btree3set8BTreeSetNtNtB1v_6string6StringEEENtNtNtNtBa_4iter6traits8iterator8Iterator8flat_mapB1l_NCNvNtCs39Y7jx17GSw_12serde_derive2de29deserialize_custom_identifiers0_0EB3I_, symObjAddr: 0x4974, symBinAddr: 0x452E0, symSize: 0xC0 }
  - { offsetInCU: 0x12151, offset: 0x4C41B, size: 0x8, addend: 0x0, symName: __RNvYINtNtNtCs5fsojcNSbun_4core5slice4iter4IterNtNtNtCs39Y7jx17GSw_12serde_derive9internals3ast5FieldENtNtNtNtB9_4iter6traits8iterator8Iterator9enumerateBO_, symObjAddr: 0x7024, symBinAddr: 0x47990, symSize: 0x28 }
  - { offsetInCU: 0x121B4, offset: 0x4C47E, size: 0x8, addend: 0x0, symName: __RNvYINtNtNtCs5fsojcNSbun_4core5slice4iter4IterNtNtNtCs39Y7jx17GSw_12serde_derive9internals3ast7VariantENtNtNtNtB9_4iter6traits8iterator8Iterator9enumerateBO_, symObjAddr: 0x7078, symBinAddr: 0x479E4, symSize: 0x28 }
  - { offsetInCU: 0x12217, offset: 0x4C4E1, size: 0x8, addend: 0x0, symName: __RNvYINtNtNtCs5fsojcNSbun_4core5slice4iter4IterTReNtCs5CKmLD4IrHZ_11proc_macro25IdentRINtNtNtNtCsltZDfVD1VKL_5alloc11collections5btree3set8BTreeSetNtNtB1u_6string6StringEEENtNtNtNtB9_4iter6traits8iterator8Iterator9enumerateCs39Y7jx17GSw_12serde_derive, symObjAddr: 0x70A0, symBinAddr: 0x47A0C, symSize: 0x28 }
  - { offsetInCU: 0x1227A, offset: 0x4C544, size: 0x8, addend: 0x0, symName: __RNvYINtNtNtCs5fsojcNSbun_4core5slice4iter4IterTReNtNtNtCs39Y7jx17GSw_12serde_derive9internals4case10RenameRuleEENtNtNtNtB9_4iter6traits8iterator8Iterator9enumerateBR_, symObjAddr: 0x70C8, symBinAddr: 0x47A34, symSize: 0x28 }
  - { offsetInCU: 0x1248D, offset: 0x4C757, size: 0x8, addend: 0x0, symName: __RNvXs_NtNtNtCs5fsojcNSbun_4core4iter6traits7collectINtNtNtBa_5slice4iter4IterNtNtNtCs39Y7jx17GSw_12serde_derive9internals3ast5FieldENtB4_12IntoIterator9into_iterB1j_, symObjAddr: 0x7008, symBinAddr: 0x47974, symSize: 0x1C }
  - { offsetInCU: 0x1E, offset: 0x54EA3, size: 0x8, addend: 0x0, symName: __RNvXs1_NtNtNtCs5fsojcNSbun_4core3ops8function5implsQNCNvNtCs39Y7jx17GSw_12serde_derive3ser22serialize_tuple_struct0INtB7_5FnMutTRTjRNtNtNtBU_9internals3ast5FieldEEE8call_mutBU_, symObjAddr: 0x0, symBinAddr: 0x47A5C, symSize: 0x30 }
  - { offsetInCU: 0x25A, offset: 0x550DF, size: 0x8, addend: 0x0, symName: __RNvXs1_NtNtNtCs5fsojcNSbun_4core3ops8function5implsQNCNvNtCs39Y7jx17GSw_12serde_derive3ser22serialize_tuple_struct0INtB7_5FnMutTRTjRNtNtNtBU_9internals3ast5FieldEEE8call_mutBU_, symObjAddr: 0x0, symBinAddr: 0x47A5C, symSize: 0x30 }
  - { offsetInCU: 0x2A9, offset: 0x5512E, size: 0x8, addend: 0x0, symName: __RNvXs1_NtNtNtCs5fsojcNSbun_4core3ops8function5implsQNCNvNtCs39Y7jx17GSw_12serde_derive3ser23serialize_struct_as_map0INtB7_5FnMutTRRNtNtNtBU_9internals3ast5FieldEE8call_mutBU_, symObjAddr: 0x30, symBinAddr: 0x47A8C, symSize: 0x30 }
  - { offsetInCU: 0x2F8, offset: 0x5517D, size: 0x8, addend: 0x0, symName: __RNvXs1_NtNtNtCs5fsojcNSbun_4core3ops8function5implsQNCNvNtCs39Y7jx17GSw_12serde_derive3ser23serialize_tuple_variant0INtB7_5FnMutTRTjRNtNtNtBU_9internals3ast5FieldEEE8call_mutBU_, symObjAddr: 0x60, symBinAddr: 0x47ABC, symSize: 0x30 }
  - { offsetInCU: 0x347, offset: 0x551CC, size: 0x8, addend: 0x0, symName: __RNvXs1_NtNtNtCs5fsojcNSbun_4core3ops8function5implsQNCNvNtCs39Y7jx17GSw_12serde_derive3ser24serialize_struct_variants_0INtB7_5FnMutTRRNtNtNtBU_9internals3ast5FieldEE8call_mutBU_, symObjAddr: 0x90, symBinAddr: 0x47AEC, symSize: 0x30 }
  - { offsetInCU: 0x396, offset: 0x5521B, size: 0x8, addend: 0x0, symName: __RNvXs1_NtNtNtCs5fsojcNSbun_4core3ops8function5implsQNCNvNtCs39Y7jx17GSw_12serde_derive3ser24serialize_struct_visitor0INtB7_5FnMutTRRNtNtNtBU_9internals3ast5FieldEE8call_mutBU_, symObjAddr: 0xC0, symBinAddr: 0x47B1C, symSize: 0x30 }
  - { offsetInCU: 0x3E5, offset: 0x5526A, size: 0x8, addend: 0x0, symName: __RNvXs1_NtNtNtCs5fsojcNSbun_4core3ops8function5implsQNCNvNtCs39Y7jx17GSw_12serde_derive3ser26serialize_struct_as_struct0INtB7_5FnMutTRRNtNtNtBU_9internals3ast5FieldEE8call_mutBU_, symObjAddr: 0xF0, symBinAddr: 0x47B4C, symSize: 0x30 }
  - { offsetInCU: 0x434, offset: 0x552B9, size: 0x8, addend: 0x0, symName: __RNvXs1_NtNtNtCs5fsojcNSbun_4core3ops8function5implsQNCNvNtCs39Y7jx17GSw_12serde_derive3ser30serialize_tuple_struct_visitor0INtB7_5FnMutTRTjRNtNtNtBU_9internals3ast5FieldEEE8call_mutBU_, symObjAddr: 0x120, symBinAddr: 0x47B7C, symSize: 0x30 }
  - { offsetInCU: 0x483, offset: 0x55308, size: 0x8, addend: 0x0, symName: __RNvXs1_NtNtNtCs5fsojcNSbun_4core3ops8function5implsQNCNvNtCs39Y7jx17GSw_12serde_derive3ser37serialize_struct_variant_with_flatten0INtB7_5FnMutTRRNtNtNtBU_9internals3ast5FieldEE8call_mutBU_, symObjAddr: 0x150, symBinAddr: 0x47BAC, symSize: 0x30 }
  - { offsetInCU: 0x4D8, offset: 0x5535D, size: 0x8, addend: 0x0, symName: __RNvXs2_NtNtNtCs5fsojcNSbun_4core3ops8function5implsQNCNvNtCs39Y7jx17GSw_12serde_derive3ser17serialize_variant0INtB7_6FnOnceTjEE9call_onceBU_, symObjAddr: 0x180, symBinAddr: 0x47BDC, symSize: 0x2C }
  - { offsetInCU: 0x527, offset: 0x553AC, size: 0x8, addend: 0x0, symName: __RNvXs2_NtNtNtCs5fsojcNSbun_4core3ops8function5implsQNCNvNtCs39Y7jx17GSw_12serde_derive3ser17serialize_variants_0INtB7_6FnOnceTRNtNtNtBU_9internals3ast5FieldEE9call_onceBU_, symObjAddr: 0x1AC, symBinAddr: 0x47C08, symSize: 0x2C }
  - { offsetInCU: 0x576, offset: 0x553FB, size: 0x8, addend: 0x0, symName: __RNvXs2_NtNtNtCs5fsojcNSbun_4core3ops8function5implsQNCNvNtCs39Y7jx17GSw_12serde_derive3ser19wrap_serialize_with0INtB7_6FnOnceTjEE9call_onceBU_, symObjAddr: 0x1D8, symBinAddr: 0x47C34, symSize: 0x2C }
  - { offsetInCU: 0x5C5, offset: 0x5544A, size: 0x8, addend: 0x0, symName: __RNvXs2_NtNtNtCs5fsojcNSbun_4core3ops8function5implsQNCNvNtCs39Y7jx17GSw_12serde_derive3ser24serialize_struct_visitors_0INtB7_6FnOnceTRNtNtNtBU_9internals3ast5FieldEE9call_onceBU_, symObjAddr: 0x204, symBinAddr: 0x47C60, symSize: 0x2C }
  - { offsetInCU: 0x614, offset: 0x55499, size: 0x8, addend: 0x0, symName: __RNvXs2_NtNtNtCs5fsojcNSbun_4core3ops8function5implsQNCNvNtCs39Y7jx17GSw_12serde_derive3ser30serialize_tuple_struct_visitors_0INtB7_6FnOnceTTjRNtNtNtBU_9internals3ast5FieldEEE9call_onceBU_, symObjAddr: 0x230, symBinAddr: 0x47C8C, symSize: 0x34 }
  - { offsetInCU: 0x663, offset: 0x554E8, size: 0x8, addend: 0x0, symName: __RNvXs2_NtNtNtCs5fsojcNSbun_4core3ops8function5implsQNCNvNtCs39Y7jx17GSw_12serde_derive3ser35serialize_adjacently_tagged_variant0INtB7_6FnOnceTRNtNtNtBU_9internals3ast5FieldEE9call_onceBU_, symObjAddr: 0x264, symBinAddr: 0x47CC0, symSize: 0x2C }
  - { offsetInCU: 0x6B2, offset: 0x55537, size: 0x8, addend: 0x0, symName: __RNvXs2_NtNtNtCs5fsojcNSbun_4core3ops8function5implsQNCNvNtCs39Y7jx17GSw_12serde_derive3ser37serialize_struct_variant_with_flattens_0INtB7_6FnOnceTRNtNtNtBU_9internals3ast5FieldEE9call_onceBU_, symObjAddr: 0x290, symBinAddr: 0x47CEC, symSize: 0x2C }
  - { offsetInCU: 0x3CF9, offset: 0x58B7E, size: 0x8, addend: 0x0, symName: __RNvNtCs39Y7jx17GSw_12serde_derive3ser23expand_derive_serialize, symObjAddr: 0x2BC, symBinAddr: 0x47D18, symSize: 0x1108 }
  - { offsetInCU: 0x3F56, offset: 0x58DDB, size: 0x8, addend: 0x0, symName: __RNvNtCs39Y7jx17GSw_12serde_derive3ser12precondition, symObjAddr: 0x13C4, symBinAddr: 0x48E20, symSize: 0xE4 }
  - { offsetInCU: 0x4007, offset: 0x58E8C, size: 0x8, addend: 0x0, symName: __RNvNtCs39Y7jx17GSw_12serde_derive3ser14build_generics, symObjAddr: 0x1724, symBinAddr: 0x49180, symSize: 0x258 }
  - { offsetInCU: 0x409F, offset: 0x58F24, size: 0x8, addend: 0x0, symName: __RNvNtCs39Y7jx17GSw_12serde_derive3ser21needs_serialize_bound, symObjAddr: 0x197C, symBinAddr: 0x493D8, symSize: 0x110 }
  - { offsetInCU: 0x40DE, offset: 0x58F63, size: 0x8, addend: 0x0, symName: __RNCNvNtCs39Y7jx17GSw_12serde_derive3ser21needs_serialize_bound0B5_, symObjAddr: 0x1A8C, symBinAddr: 0x494E8, symSize: 0xD8 }
  - { offsetInCU: 0x411C, offset: 0x58FA1, size: 0x8, addend: 0x0, symName: __RNvNtCs39Y7jx17GSw_12serde_derive3ser14serialize_body, symObjAddr: 0x1B64, symBinAddr: 0x495C0, symSize: 0x27C }
  - { offsetInCU: 0x41DF, offset: 0x59064, size: 0x8, addend: 0x0, symName: __RNvNtCs39Y7jx17GSw_12serde_derive3ser21serialize_transparent, symObjAddr: 0x1DE0, symBinAddr: 0x4983C, symSize: 0x3D0 }
  - { offsetInCU: 0x4349, offset: 0x591CE, size: 0x8, addend: 0x0, symName: __RNCNvNtCs39Y7jx17GSw_12serde_derive3ser21serialize_transparent0B5_, symObjAddr: 0x21B0, symBinAddr: 0x49C0C, symSize: 0x3C }
  - { offsetInCU: 0x4387, offset: 0x5920C, size: 0x8, addend: 0x0, symName: __RNvNtCs39Y7jx17GSw_12serde_derive3ser14serialize_into, symObjAddr: 0x21EC, symBinAddr: 0x49C48, symSize: 0x3B4 }
  - { offsetInCU: 0x442E, offset: 0x592B3, size: 0x8, addend: 0x0, symName: __RNvNtCs39Y7jx17GSw_12serde_derive3ser21serialize_unit_struct, symObjAddr: 0x25A0, symBinAddr: 0x49FFC, symSize: 0x1A0 }
  - { offsetInCU: 0x44A2, offset: 0x59327, size: 0x8, addend: 0x0, symName: __RNvNtCs39Y7jx17GSw_12serde_derive3ser24serialize_newtype_struct, symObjAddr: 0x2740, symBinAddr: 0x4A19C, symSize: 0x3E0 }
  - { offsetInCU: 0x45CC, offset: 0x59451, size: 0x8, addend: 0x0, symName: __RNvNtCs39Y7jx17GSw_12serde_derive3ser22serialize_tuple_struct, symObjAddr: 0x2B20, symBinAddr: 0x4A57C, symSize: 0x638 }
  - { offsetInCU: 0x4768, offset: 0x595ED, size: 0x8, addend: 0x0, symName: __RNCNvNtCs39Y7jx17GSw_12serde_derive3ser22serialize_tuple_struct0B5_, symObjAddr: 0x3158, symBinAddr: 0x4ABB4, symSize: 0x48 }
  - { offsetInCU: 0x47B3, offset: 0x59638, size: 0x8, addend: 0x0, symName: __RNCNvNtCs39Y7jx17GSw_12serde_derive3ser22serialize_tuple_structs_0B5_, symObjAddr: 0x31A0, symBinAddr: 0x4ABFC, symSize: 0x378 }
  - { offsetInCU: 0x48D3, offset: 0x59758, size: 0x8, addend: 0x0, symName: __RNCNvNtCs39Y7jx17GSw_12serde_derive3ser22serialize_tuple_structs0_0B5_, symObjAddr: 0x3518, symBinAddr: 0x4AF74, symSize: 0xF8 }
  - { offsetInCU: 0x4942, offset: 0x597C7, size: 0x8, addend: 0x0, symName: __RNvNtCs39Y7jx17GSw_12serde_derive3ser16serialize_struct, symObjAddr: 0x3610, symBinAddr: 0x4B06C, symSize: 0xF0 }
  - { offsetInCU: 0x498E, offset: 0x59813, size: 0x8, addend: 0x0, symName: __RNvNtCs39Y7jx17GSw_12serde_derive3ser26serialize_struct_tag_field, symObjAddr: 0x3700, symBinAddr: 0x4B15C, symSize: 0x220 }
  - { offsetInCU: 0x4A3A, offset: 0x598BF, size: 0x8, addend: 0x0, symName: __RNvNtCs39Y7jx17GSw_12serde_derive3ser26serialize_struct_as_struct, symObjAddr: 0x3920, symBinAddr: 0x4B37C, symSize: 0x718 }
  - { offsetInCU: 0x4C07, offset: 0x59A8C, size: 0x8, addend: 0x0, symName: __RNCNvNtCs39Y7jx17GSw_12serde_derive3ser26serialize_struct_as_struct0B5_, symObjAddr: 0x4038, symBinAddr: 0x4BA94, symSize: 0x44 }
  - { offsetInCU: 0x4C52, offset: 0x59AD7, size: 0x8, addend: 0x0, symName: __RNCNvNtCs39Y7jx17GSw_12serde_derive3ser26serialize_struct_as_structs_0B5_, symObjAddr: 0x407C, symBinAddr: 0x4BAD8, symSize: 0x30C }
  - { offsetInCU: 0x4D32, offset: 0x59BB7, size: 0x8, addend: 0x0, symName: __RNCNvNtCs39Y7jx17GSw_12serde_derive3ser26serialize_struct_as_structs0_0B5_, symObjAddr: 0x4388, symBinAddr: 0x4BDE4, symSize: 0xF8 }
  - { offsetInCU: 0x4DA1, offset: 0x59C26, size: 0x8, addend: 0x0, symName: __RNvNtCs39Y7jx17GSw_12serde_derive3ser23serialize_struct_as_map, symObjAddr: 0x4480, symBinAddr: 0x4BEDC, symSize: 0x8DC }
  - { offsetInCU: 0x4FB3, offset: 0x59E38, size: 0x8, addend: 0x0, symName: __RNCNvNtCs39Y7jx17GSw_12serde_derive3ser23serialize_struct_as_map0B5_, symObjAddr: 0x4D5C, symBinAddr: 0x4C7B8, symSize: 0x44 }
  - { offsetInCU: 0x4FFE, offset: 0x59E83, size: 0x8, addend: 0x0, symName: __RNCNvNtCs39Y7jx17GSw_12serde_derive3ser23serialize_struct_as_maps_0B5_, symObjAddr: 0x4DA0, symBinAddr: 0x4C7FC, symSize: 0x30C }
  - { offsetInCU: 0x50DE, offset: 0x59F63, size: 0x8, addend: 0x0, symName: __RNCNvNtCs39Y7jx17GSw_12serde_derive3ser23serialize_struct_as_maps0_0B5_, symObjAddr: 0x50AC, symBinAddr: 0x4CB08, symSize: 0xF8 }
  - { offsetInCU: 0x514D, offset: 0x59FD2, size: 0x8, addend: 0x0, symName: __RNvNtCs39Y7jx17GSw_12serde_derive3ser14serialize_enum, symObjAddr: 0x51A4, symBinAddr: 0x4CC00, symSize: 0x6E8 }
  - { offsetInCU: 0x52D8, offset: 0x5A15D, size: 0x8, addend: 0x0, symName: __RNCNvNtCs39Y7jx17GSw_12serde_derive3ser14serialize_enum0B5_, symObjAddr: 0x588C, symBinAddr: 0x4D2E8, symSize: 0x6C }
  - { offsetInCU: 0x534F, offset: 0x5A1D4, size: 0x8, addend: 0x0, symName: __RNvNtCs39Y7jx17GSw_12serde_derive3ser17serialize_variant, symObjAddr: 0x58F8, symBinAddr: 0x4D354, symSize: 0x1104 }
  - { offsetInCU: 0x5832, offset: 0x5A6B7, size: 0x8, addend: 0x0, symName: __RNCNvNtCs39Y7jx17GSw_12serde_derive3ser17serialize_variant0B5_, symObjAddr: 0x69FC, symBinAddr: 0x4E458, symSize: 0x11C }
  - { offsetInCU: 0x58DC, offset: 0x5A761, size: 0x8, addend: 0x0, symName: __RNCNvNtCs39Y7jx17GSw_12serde_derive3ser17serialize_variants_0B5_, symObjAddr: 0x6B18, symBinAddr: 0x4E574, symSize: 0x28 }
  - { offsetInCU: 0x5924, offset: 0x5A7A9, size: 0x8, addend: 0x0, symName: __RNvNtCs39Y7jx17GSw_12serde_derive3ser35serialize_externally_tagged_variant, symObjAddr: 0x6B40, symBinAddr: 0x4E59C, symSize: 0x9C8 }
  - { offsetInCU: 0x5B24, offset: 0x5A9A9, size: 0x8, addend: 0x0, symName: __RNvNtCs39Y7jx17GSw_12serde_derive3ser35serialize_internally_tagged_variant, symObjAddr: 0x7508, symBinAddr: 0x4EF64, symSize: 0xD84 }
  - { offsetInCU: 0x5D86, offset: 0x5AC0B, size: 0x8, addend: 0x0, symName: __RNvNtCs39Y7jx17GSw_12serde_derive3ser35serialize_adjacently_tagged_variant, symObjAddr: 0x828C, symBinAddr: 0x4FCE8, symSize: 0x2B8C }
  - { offsetInCU: 0x6426, offset: 0x5B2AB, size: 0x8, addend: 0x0, symName: __RNCNvNtCs39Y7jx17GSw_12serde_derive3ser35serialize_adjacently_tagged_variant0B5_, symObjAddr: 0xAE18, symBinAddr: 0x52874, symSize: 0x28 }
  - { offsetInCU: 0x645F, offset: 0x5B2E4, size: 0x8, addend: 0x0, symName: __RNCNvNtCs39Y7jx17GSw_12serde_derive3ser35serialize_adjacently_tagged_variants_0B5_, symObjAddr: 0xAE40, symBinAddr: 0x5289C, symSize: 0x140 }
  - { offsetInCU: 0x6509, offset: 0x5B38E, size: 0x8, addend: 0x0, symName: __RNCNvNtCs39Y7jx17GSw_12serde_derive3ser35serialize_adjacently_tagged_variants0_0B5_, symObjAddr: 0xAF80, symBinAddr: 0x529DC, symSize: 0x38 }
  - { offsetInCU: 0x6558, offset: 0x5B3DD, size: 0x8, addend: 0x0, symName: __RNvNtCs39Y7jx17GSw_12serde_derive3ser26serialize_untagged_variant, symObjAddr: 0xAFB8, symBinAddr: 0x52A14, symSize: 0x808 }
  - { offsetInCU: 0x6739, offset: 0x5B5BE, size: 0x8, addend: 0x0, symName: __RNvNtCs39Y7jx17GSw_12serde_derive3ser23serialize_tuple_variant, symObjAddr: 0xB7C0, symBinAddr: 0x5321C, symSize: 0xA5C }
  - { offsetInCU: 0x69D5, offset: 0x5B85A, size: 0x8, addend: 0x0, symName: __RNCNvNtCs39Y7jx17GSw_12serde_derive3ser23serialize_tuple_variant0B5_, symObjAddr: 0xC21C, symBinAddr: 0x53C78, symSize: 0x48 }
  - { offsetInCU: 0x6A20, offset: 0x5B8A5, size: 0x8, addend: 0x0, symName: __RNCNvNtCs39Y7jx17GSw_12serde_derive3ser23serialize_tuple_variants_0B5_, symObjAddr: 0xC264, symBinAddr: 0x53CC0, symSize: 0x3E4 }
  - { offsetInCU: 0x6B97, offset: 0x5BA1C, size: 0x8, addend: 0x0, symName: __RNCNvNtCs39Y7jx17GSw_12serde_derive3ser23serialize_tuple_variants0_0B5_, symObjAddr: 0xC648, symBinAddr: 0x540A4, symSize: 0xF8 }
  - { offsetInCU: 0x6C0D, offset: 0x5BA92, size: 0x8, addend: 0x0, symName: __RNvNtCs39Y7jx17GSw_12serde_derive3ser24serialize_struct_variant, symObjAddr: 0xC740, symBinAddr: 0x5419C, symSize: 0x10DC }
  - { offsetInCU: 0x6FAB, offset: 0x5BE30, size: 0x8, addend: 0x0, symName: __RNCNvNtCs39Y7jx17GSw_12serde_derive3ser24serialize_struct_variant0B5_, symObjAddr: 0xD81C, symBinAddr: 0x55278, symSize: 0x40 }
  - { offsetInCU: 0x6FE4, offset: 0x5BE69, size: 0x8, addend: 0x0, symName: __RNCNvNtCs39Y7jx17GSw_12serde_derive3ser24serialize_struct_variants_0B5_, symObjAddr: 0xD85C, symBinAddr: 0x552B8, symSize: 0x44 }
  - { offsetInCU: 0x702F, offset: 0x5BEB4, size: 0x8, addend: 0x0, symName: __RNCNvNtCs39Y7jx17GSw_12serde_derive3ser24serialize_struct_variants0_0B5_, symObjAddr: 0xD8A0, symBinAddr: 0x552FC, symSize: 0x2C4 }
  - { offsetInCU: 0x7106, offset: 0x5BF8B, size: 0x8, addend: 0x0, symName: __RNCNvNtCs39Y7jx17GSw_12serde_derive3ser24serialize_struct_variants1_0B5_, symObjAddr: 0xDB64, symBinAddr: 0x555C0, symSize: 0xF8 }
  - { offsetInCU: 0x7183, offset: 0x5C008, size: 0x8, addend: 0x0, symName: __RNvNtCs39Y7jx17GSw_12serde_derive3ser37serialize_struct_variant_with_flatten, symObjAddr: 0xDC5C, symBinAddr: 0x556B8, symSize: 0x1F10 }
  - { offsetInCU: 0x7817, offset: 0x5C69C, size: 0x8, addend: 0x0, symName: __RNCNvNtCs39Y7jx17GSw_12serde_derive3ser37serialize_struct_variant_with_flatten0B5_, symObjAddr: 0xFB6C, symBinAddr: 0x575C8, symSize: 0x44 }
  - { offsetInCU: 0x7862, offset: 0x5C6E7, size: 0x8, addend: 0x0, symName: __RNCNvNtCs39Y7jx17GSw_12serde_derive3ser37serialize_struct_variant_with_flattens_0B5_, symObjAddr: 0xFBB0, symBinAddr: 0x5760C, symSize: 0x28 }
  - { offsetInCU: 0x789B, offset: 0x5C720, size: 0x8, addend: 0x0, symName: __RNCNvNtCs39Y7jx17GSw_12serde_derive3ser37serialize_struct_variant_with_flattens0_0B5_, symObjAddr: 0xFBD8, symBinAddr: 0x57634, symSize: 0x28 }
  - { offsetInCU: 0x78EA, offset: 0x5C76F, size: 0x8, addend: 0x0, symName: __RNvNtCs39Y7jx17GSw_12serde_derive3ser30serialize_tuple_struct_visitor, symObjAddr: 0xFC00, symBinAddr: 0x5765C, symSize: 0xB4 }
  - { offsetInCU: 0x794D, offset: 0x5C7D2, size: 0x8, addend: 0x0, symName: __RNCNvNtCs39Y7jx17GSw_12serde_derive3ser30serialize_tuple_struct_visitor0B5_, symObjAddr: 0xFCB4, symBinAddr: 0x57710, symSize: 0x48 }
  - { offsetInCU: 0x7998, offset: 0x5C81D, size: 0x8, addend: 0x0, symName: __RNCNvNtCs39Y7jx17GSw_12serde_derive3ser30serialize_tuple_struct_visitors_0B5_, symObjAddr: 0xFCFC, symBinAddr: 0x57758, symSize: 0x6F4 }
  - { offsetInCU: 0x7BD4, offset: 0x5CA59, size: 0x8, addend: 0x0, symName: __RNCNCNvNtCs39Y7jx17GSw_12serde_derive3ser30serialize_tuple_struct_visitors_00B7_, symObjAddr: 0x103F0, symBinAddr: 0x57E4C, symSize: 0xF4 }
  - { offsetInCU: 0x7C71, offset: 0x5CAF6, size: 0x8, addend: 0x0, symName: __RNvNtCs39Y7jx17GSw_12serde_derive3ser24serialize_struct_visitor, symObjAddr: 0x104E4, symBinAddr: 0x57F40, symSize: 0x98 }
  - { offsetInCU: 0x7CD1, offset: 0x5CB56, size: 0x8, addend: 0x0, symName: __RNCNvNtCs39Y7jx17GSw_12serde_derive3ser24serialize_struct_visitor0B5_, symObjAddr: 0x1057C, symBinAddr: 0x57FD8, symSize: 0x44 }
  - { offsetInCU: 0x7D1C, offset: 0x5CBA1, size: 0x8, addend: 0x0, symName: __RNCNvNtCs39Y7jx17GSw_12serde_derive3ser24serialize_struct_visitors_0B5_, symObjAddr: 0x105C0, symBinAddr: 0x5801C, symSize: 0xCB8 }
  - { offsetInCU: 0x7FCA, offset: 0x5CE4F, size: 0x8, addend: 0x0, symName: __RNCNCNvNtCs39Y7jx17GSw_12serde_derive3ser24serialize_struct_visitors_00B7_, symObjAddr: 0x11278, symBinAddr: 0x58CD4, symSize: 0xF4 }
  - { offsetInCU: 0x8067, offset: 0x5CEEC, size: 0x8, addend: 0x0, symName: __RNvNtCs39Y7jx17GSw_12serde_derive3ser25wrap_serialize_field_with, symObjAddr: 0x1136C, symBinAddr: 0x58DC8, symSize: 0x104 }
  - { offsetInCU: 0x80D9, offset: 0x5CF5E, size: 0x8, addend: 0x0, symName: __RNvNtCs39Y7jx17GSw_12serde_derive3ser27wrap_serialize_variant_with, symObjAddr: 0x11470, symBinAddr: 0x58ECC, symSize: 0x15C }
  - { offsetInCU: 0x8157, offset: 0x5CFDC, size: 0x8, addend: 0x0, symName: __RNCNvNtCs39Y7jx17GSw_12serde_derive3ser27wrap_serialize_variant_with0B5_, symObjAddr: 0x115CC, symBinAddr: 0x59028, symSize: 0x2C }
  - { offsetInCU: 0x8190, offset: 0x5D015, size: 0x8, addend: 0x0, symName: __RNCNvNtCs39Y7jx17GSw_12serde_derive3ser27wrap_serialize_variant_withs_0B5_, symObjAddr: 0x115F8, symBinAddr: 0x59054, symSize: 0x1F0 }
  - { offsetInCU: 0x82AD, offset: 0x5D132, size: 0x8, addend: 0x0, symName: __RNvNtCs39Y7jx17GSw_12serde_derive3ser19wrap_serialize_with, symObjAddr: 0x117E8, symBinAddr: 0x59244, symSize: 0xF54 }
  - { offsetInCU: 0x8652, offset: 0x5D4D7, size: 0x8, addend: 0x0, symName: __RNCNvNtCs39Y7jx17GSw_12serde_derive3ser19wrap_serialize_with0B5_, symObjAddr: 0x1273C, symBinAddr: 0x5A198, symSize: 0x68 }
  - { offsetInCU: 0x8693, offset: 0x5D518, size: 0x8, addend: 0x0, symName: __RNvNtCs39Y7jx17GSw_12serde_derive3ser6mut_if, symObjAddr: 0x127A4, symBinAddr: 0x5A200, symSize: 0xD4 }
  - { offsetInCU: 0x86D7, offset: 0x5D55C, size: 0x8, addend: 0x0, symName: __RNvNtCs39Y7jx17GSw_12serde_derive3ser10get_member, symObjAddr: 0x12878, symBinAddr: 0x5A2D4, symSize: 0x7E4 }
  - { offsetInCU: 0x8894, offset: 0x5D719, size: 0x8, addend: 0x0, symName: __RNvNtCs39Y7jx17GSw_12serde_derive3ser15effective_style, symObjAddr: 0x1305C, symBinAddr: 0x5AAB8, symSize: 0xD0 }
  - { offsetInCU: 0xD153, offset: 0x61FD8, size: 0x8, addend: 0x0, symName: __RNvMNtCs39Y7jx17GSw_12serde_derive3serNtB2_10Parameters3new, symObjAddr: 0x14A8, symBinAddr: 0x48F04, symSize: 0x218 }
  - { offsetInCU: 0xD27D, offset: 0x62102, size: 0x8, addend: 0x0, symName: __RNvMNtCs39Y7jx17GSw_12serde_derive3serNtB2_10Parameters9type_name, symObjAddr: 0x16C0, symBinAddr: 0x4911C, symSize: 0x64 }
  - { offsetInCU: 0xD541, offset: 0x623C6, size: 0x8, addend: 0x0, symName: __RNvMs_NtCs39Y7jx17GSw_12serde_derive3serNtB4_11StructTrait15serialize_field, symObjAddr: 0x1312C, symBinAddr: 0x5AB88, symSize: 0x3C4 }
  - { offsetInCU: 0xD60E, offset: 0x62493, size: 0x8, addend: 0x0, symName: __RNvMs_NtCs39Y7jx17GSw_12serde_derive3serNtB4_11StructTrait10skip_field, symObjAddr: 0x134F0, symBinAddr: 0x5AF4C, symSize: 0x2E4 }
  - { offsetInCU: 0xD6B5, offset: 0x6253A, size: 0x8, addend: 0x0, symName: __RNvMs0_NtCs39Y7jx17GSw_12serde_derive3serNtB5_10TupleTrait17serialize_element, symObjAddr: 0x137D4, symBinAddr: 0x5B230, symSize: 0x3C4 }
  - { offsetInCU: 0x1E, offset: 0x62C09, size: 0x8, addend: 0x0, symName: __RNvXsf_NtCs5GBHJSLTkJw_3syn5parseNCNvMs4_NtNtCs39Y7jx17GSw_12serde_derive9internals4attrNtBD_9Container8from_asts_0NtB5_6Parser14___parse_scopedBH_, symObjAddr: 0x0, symBinAddr: 0x5B5F4, symSize: 0x3BC }
  - { offsetInCU: 0x3C0, offset: 0x62FAB, size: 0x8, addend: 0x0, symName: __RNvYNtNtNtCs39Y7jx17GSw_12serde_derive9internals4attr10IdentifierNtNtCs5fsojcNSbun_4core5clone5Clone10clone_fromB8_, symObjAddr: 0x7E4, symBinAddr: 0x5BDD8, symSize: 0x48 }
  - { offsetInCU: 0x3FF, offset: 0x62FEA, size: 0x8, addend: 0x0, symName: __RNvYNtNtNtCs39Y7jx17GSw_12serde_derive9internals4attr14RenameAllRulesNtNtCs5fsojcNSbun_4core5clone5Clone10clone_fromB8_, symObjAddr: 0x82C, symBinAddr: 0x5BE20, symSize: 0x54 }
  - { offsetInCU: 0x4D06, offset: 0x678F1, size: 0x8, addend: 0x0, symName: __RNvNtNtCs39Y7jx17GSw_12serde_derive9internals4attr5unraw, symObjAddr: 0x44F0, symBinAddr: 0x5FAE4, symSize: 0xC0 }
  - { offsetInCU: 0x4DE4, offset: 0x679CF, size: 0x8, addend: 0x0, symName: __RNCNvMs1_NtNtCs39Y7jx17GSw_12serde_derive9internals4attrNtB7_4Name10from_attrs0Bb_, symObjAddr: 0x4A3C, symBinAddr: 0x60030, symSize: 0x34 }
  - { offsetInCU: 0x51E5, offset: 0x67DD0, size: 0x8, addend: 0x0, symName: __RNCNvMs4_NtNtCs39Y7jx17GSw_12serde_derive9internals4attrNtB7_9Container8from_ast0Bb_, symObjAddr: 0x60A8, symBinAddr: 0x6169C, symSize: 0x2F80 }
  - { offsetInCU: 0x5B3E, offset: 0x68729, size: 0x8, addend: 0x0, symName: __RNCNvMs4_NtNtCs39Y7jx17GSw_12serde_derive9internals4attrNtB7_9Container8from_asts_0Bb_, symObjAddr: 0x9028, symBinAddr: 0x6461C, symSize: 0x2B4 }
  - { offsetInCU: 0x5C02, offset: 0x687ED, size: 0x8, addend: 0x0, symName: __RNCNvMs4_NtNtCs39Y7jx17GSw_12serde_derive9internals4attrNtB7_9Container9ser_bound0Bb_, symObjAddr: 0x9414, symBinAddr: 0x64A08, symSize: 0x3C }
  - { offsetInCU: 0x5C48, offset: 0x68833, size: 0x8, addend: 0x0, symName: __RNCNvMs4_NtNtCs39Y7jx17GSw_12serde_derive9internals4attrNtB7_9Container8de_bound0Bb_, symObjAddr: 0x9488, symBinAddr: 0x64A7C, symSize: 0x3C }
  - { offsetInCU: 0x5C8E, offset: 0x68879, size: 0x8, addend: 0x0, symName: __RNCNvMs4_NtNtCs39Y7jx17GSw_12serde_derive9internals4attrNtB7_9Container10serde_path0Bb_, symObjAddr: 0x96D8, symBinAddr: 0x64CCC, symSize: 0xB0 }
  - { offsetInCU: 0x5CD7, offset: 0x688C2, size: 0x8, addend: 0x0, symName: __RNvNtNtCs39Y7jx17GSw_12serde_derive9internals4attr10decide_tag, symObjAddr: 0x97EC, symBinAddr: 0x64DE0, symSize: 0xBEC }
  - { offsetInCU: 0x5EF8, offset: 0x68AE3, size: 0x8, addend: 0x0, symName: __RNvNtNtCs39Y7jx17GSw_12serde_derive9internals4attr17decide_identifier, symObjAddr: 0xA3D8, symBinAddr: 0x659CC, symSize: 0x5F8 }
  - { offsetInCU: 0x620C, offset: 0x68DF7, size: 0x8, addend: 0x0, symName: __RNCNvMs5_NtNtCs39Y7jx17GSw_12serde_derive9internals4attrNtB7_7Variant8from_ast0Bb_, symObjAddr: 0xB518, symBinAddr: 0x66B0C, symSize: 0x1B60 }
  - { offsetInCU: 0x67B4, offset: 0x6939F, size: 0x8, addend: 0x0, symName: __RNCNvMs5_NtNtCs39Y7jx17GSw_12serde_derive9internals4attrNtB7_7Variant9ser_bound0Bb_, symObjAddr: 0xD2E8, symBinAddr: 0x688DC, symSize: 0x3C }
  - { offsetInCU: 0x67FA, offset: 0x693E5, size: 0x8, addend: 0x0, symName: __RNCNvMs5_NtNtCs39Y7jx17GSw_12serde_derive9internals4attrNtB7_7Variant8de_bound0Bb_, symObjAddr: 0xD35C, symBinAddr: 0x68950, symSize: 0x3C }
  - { offsetInCU: 0x6A7D, offset: 0x69668, size: 0x8, addend: 0x0, symName: __RNCNvMs7_NtNtCs39Y7jx17GSw_12serde_derive9internals4attrNtB7_5Field8from_ast0Bb_, symObjAddr: 0xED6C, symBinAddr: 0x6A360, symSize: 0x34 }
  - { offsetInCU: 0x6AB6, offset: 0x696A1, size: 0x8, addend: 0x0, symName: __RNCNvMs7_NtNtCs39Y7jx17GSw_12serde_derive9internals4attrNtB7_5Field8from_asts_0Bb_, symObjAddr: 0xEDA0, symBinAddr: 0x6A394, symSize: 0x1F34 }
  - { offsetInCU: 0x7168, offset: 0x69D53, size: 0x8, addend: 0x0, symName: __RNCNvMs7_NtNtCs39Y7jx17GSw_12serde_derive9internals4attrNtB7_5Field9ser_bound0Bb_, symObjAddr: 0x11024, symBinAddr: 0x6C618, symSize: 0x3C }
  - { offsetInCU: 0x71AE, offset: 0x69D99, size: 0x8, addend: 0x0, symName: __RNCNvMs7_NtNtCs39Y7jx17GSw_12serde_derive9internals4attrNtB7_5Field8de_bound0Bb_, symObjAddr: 0x11098, symBinAddr: 0x6C68C, symSize: 0x3C }
  - { offsetInCU: 0x71F0, offset: 0x69DDB, size: 0x8, addend: 0x0, symName: __RINvNtNtCs39Y7jx17GSw_12serde_derive9internals4attr14get_ser_and_deINtNtCsltZDfVD1VKL_5alloc3vec3VecNtNtCs5GBHJSLTkJw_3syn8generics14WherePredicateENvB2_20parse_lit_into_whereB13_EB6_, symObjAddr: 0x111B0, symBinAddr: 0x6C7A4, symSize: 0x5F8 }
  - { offsetInCU: 0x7319, offset: 0x69F04, size: 0x8, addend: 0x0, symName: __RINvNtNtCs39Y7jx17GSw_12serde_derive9internals4attr14get_ser_and_deNtNtCs5GBHJSLTkJw_3syn3lit6LitStrNvB2_12get_lit_str2INtNtCs5fsojcNSbun_4core6option6OptionB13_EEB6_, symObjAddr: 0x117A8, symBinAddr: 0x6CD9C, symSize: 0x5CC }
  - { offsetInCU: 0x7447, offset: 0x6A032, size: 0x8, addend: 0x0, symName: __RNCINvNtNtCs39Y7jx17GSw_12serde_derive9internals4attr14get_ser_and_deINtNtCsltZDfVD1VKL_5alloc3vec3VecNtNtCs5GBHJSLTkJw_3syn8generics14WherePredicateENvB4_20parse_lit_into_whereB15_E0B8_, symObjAddr: 0x11D74, symBinAddr: 0x6D368, symSize: 0x650 }
  - { offsetInCU: 0x765F, offset: 0x6A24A, size: 0x8, addend: 0x0, symName: __RNCINvNtNtCs39Y7jx17GSw_12serde_derive9internals4attr14get_ser_and_deNtNtCs5GBHJSLTkJw_3syn3lit6LitStrNvB4_12get_lit_str2INtNtCs5fsojcNSbun_4core6option6OptionB15_EE0B8_, symObjAddr: 0x123C4, symBinAddr: 0x6D9B8, symSize: 0x60C }
  - { offsetInCU: 0x7878, offset: 0x6A463, size: 0x8, addend: 0x0, symName: __RNvNtNtCs39Y7jx17GSw_12serde_derive9internals4attr11get_renames, symObjAddr: 0x129D0, symBinAddr: 0x6DFC4, symSize: 0x224 }
  - { offsetInCU: 0x790B, offset: 0x6A4F6, size: 0x8, addend: 0x0, symName: __RNvNtNtCs39Y7jx17GSw_12serde_derive9internals4attr20get_multiple_renames, symObjAddr: 0x12BF4, symBinAddr: 0x6E1E8, symSize: 0x240 }
  - { offsetInCU: 0x798F, offset: 0x6A57A, size: 0x8, addend: 0x0, symName: __RNvNtNtCs39Y7jx17GSw_12serde_derive9internals4attr20get_where_predicates, symObjAddr: 0x12E34, symBinAddr: 0x6E428, symSize: 0x234 }
  - { offsetInCU: 0x7A13, offset: 0x6A5FE, size: 0x8, addend: 0x0, symName: __RNvNtNtCs39Y7jx17GSw_12serde_derive9internals4attr11get_lit_str, symObjAddr: 0x13068, symBinAddr: 0x6E65C, symSize: 0x60 }
  - { offsetInCU: 0x7A5F, offset: 0x6A64A, size: 0x8, addend: 0x0, symName: __RNvNtNtCs39Y7jx17GSw_12serde_derive9internals4attr12get_lit_str2, symObjAddr: 0x130C8, symBinAddr: 0x6E6BC, symSize: 0x508 }
  - { offsetInCU: 0x7C94, offset: 0x6A87F, size: 0x8, addend: 0x0, symName: __RNvNtNtCs39Y7jx17GSw_12serde_derive9internals4attr19parse_lit_into_path, symObjAddr: 0x135D0, symBinAddr: 0x6EBC4, symSize: 0x37C }
  - { offsetInCU: 0x7DC6, offset: 0x6A9B1, size: 0x8, addend: 0x0, symName: __RNvNtNtCs39Y7jx17GSw_12serde_derive9internals4attr24parse_lit_into_expr_path, symObjAddr: 0x1394C, symBinAddr: 0x6EF40, symSize: 0x37C }
  - { offsetInCU: 0x7EF8, offset: 0x6AAE3, size: 0x8, addend: 0x0, symName: __RNvNtNtCs39Y7jx17GSw_12serde_derive9internals4attr20parse_lit_into_where, symObjAddr: 0x13CC8, symBinAddr: 0x6F2BC, symSize: 0x2A0 }
  - { offsetInCU: 0x7FD6, offset: 0x6ABC1, size: 0x8, addend: 0x0, symName: __RNvNtNtCs39Y7jx17GSw_12serde_derive9internals4attr17parse_lit_into_ty, symObjAddr: 0x13F68, symBinAddr: 0x6F55C, symSize: 0x3B8 }
  - { offsetInCU: 0x8159, offset: 0x6AD44, size: 0x8, addend: 0x0, symName: __RNvNtNtCs39Y7jx17GSw_12serde_derive9internals4attr24parse_lit_into_lifetimes, symObjAddr: 0x14320, symBinAddr: 0x6F914, symSize: 0x3FC }
  - { offsetInCU: 0x8277, offset: 0x6AE62, size: 0x8, addend: 0x0, symName: __RNCNvNtNtCs39Y7jx17GSw_12serde_derive9internals4attr24parse_lit_into_lifetimes0B7_, symObjAddr: 0x1471C, symBinAddr: 0x6FD10, symSize: 0x3C4 }
  - { offsetInCU: 0x83C1, offset: 0x6AFAC, size: 0x8, addend: 0x0, symName: __RNvNtNtCs39Y7jx17GSw_12serde_derive9internals4attr22is_implicitly_borrowed, symObjAddr: 0x14AE0, symBinAddr: 0x700D4, symSize: 0x80 }
  - { offsetInCU: 0x83EF, offset: 0x6AFDA, size: 0x8, addend: 0x0, symName: __RNvNtNtCs39Y7jx17GSw_12serde_derive9internals4attr32is_implicitly_borrowed_reference, symObjAddr: 0x14B60, symBinAddr: 0x70154, symSize: 0x88 }
  - { offsetInCU: 0x841D, offset: 0x6B008, size: 0x8, addend: 0x0, symName: __RNvNtNtCs39Y7jx17GSw_12serde_derive9internals4attr6is_cow, symObjAddr: 0x14BE8, symBinAddr: 0x701DC, symSize: 0x288 }
  - { offsetInCU: 0x84F6, offset: 0x6B0E1, size: 0x8, addend: 0x0, symName: __RNvNtNtCs39Y7jx17GSw_12serde_derive9internals4attr9is_option, symObjAddr: 0x14E70, symBinAddr: 0x70464, symSize: 0x220 }
  - { offsetInCU: 0x85D0, offset: 0x6B1BB, size: 0x8, addend: 0x0, symName: __RNvNtNtCs39Y7jx17GSw_12serde_derive9internals4attr12is_reference, symObjAddr: 0x15090, symBinAddr: 0x70684, symSize: 0xE4 }
  - { offsetInCU: 0x8623, offset: 0x6B20E, size: 0x8, addend: 0x0, symName: __RNvNtNtCs39Y7jx17GSw_12serde_derive9internals4attr6is_str, symObjAddr: 0x15174, symBinAddr: 0x70768, symSize: 0x44 }
  - { offsetInCU: 0x8651, offset: 0x6B23C, size: 0x8, addend: 0x0, symName: __RNvNtNtCs39Y7jx17GSw_12serde_derive9internals4attr11is_slice_u8, symObjAddr: 0x151B8, symBinAddr: 0x707AC, symSize: 0xA4 }
  - { offsetInCU: 0x869D, offset: 0x6B288, size: 0x8, addend: 0x0, symName: __RNvNtNtCs39Y7jx17GSw_12serde_derive9internals4attr17is_primitive_type, symObjAddr: 0x1525C, symBinAddr: 0x70850, symSize: 0xF0 }
  - { offsetInCU: 0x86F0, offset: 0x6B2DB, size: 0x8, addend: 0x0, symName: __RNvNtNtCs39Y7jx17GSw_12serde_derive9internals4attr17is_primitive_path, symObjAddr: 0x1534C, symBinAddr: 0x70940, symSize: 0x10C }
  - { offsetInCU: 0x872D, offset: 0x6B318, size: 0x8, addend: 0x0, symName: __RNvNtNtCs39Y7jx17GSw_12serde_derive9internals4attr20borrowable_lifetimes, symObjAddr: 0x15458, symBinAddr: 0x70A4C, symSize: 0x1AC }
  - { offsetInCU: 0x8802, offset: 0x6B3ED, size: 0x8, addend: 0x0, symName: __RNvNtNtCs39Y7jx17GSw_12serde_derive9internals4attr17collect_lifetimes, symObjAddr: 0x15604, symBinAddr: 0x70BF8, symSize: 0x5EC }
  - { offsetInCU: 0x8A3B, offset: 0x6B626, size: 0x8, addend: 0x0, symName: __RNvNtNtCs39Y7jx17GSw_12serde_derive9internals4attr29collect_lifetimes_from_tokens, symObjAddr: 0x15BF0, symBinAddr: 0x711E4, symSize: 0x454 }
  - { offsetInCU: 0x8B1B, offset: 0x6B706, size: 0x8, addend: 0x0, symName: __RNvXs9_NtNtCs39Y7jx17GSw_12serde_derive9internals4attrNtB5_14RenameAllRulesNtNtCs5fsojcNSbun_4core5clone5Clone5cloneB9_, symObjAddr: 0x16044, symBinAddr: 0x71638, symSize: 0x20 }
  - { offsetInCU: 0x8B4D, offset: 0x6B738, size: 0x8, addend: 0x0, symName: __RNvXsb_NtNtCs39Y7jx17GSw_12serde_derive9internals4attrNtB5_10IdentifierNtNtCs5fsojcNSbun_4core5clone5Clone5cloneB9_, symObjAddr: 0x16064, symBinAddr: 0x71658, symSize: 0x18 }
  - { offsetInCU: 0x8C21, offset: 0x6B80C, size: 0x8, addend: 0x0, symName: __RNvXsf_NtCs5GBHJSLTkJw_3syn5parseNCNvMs4_NtNtCs39Y7jx17GSw_12serde_derive9internals4attrNtBD_9Container8from_asts_0NtB5_6Parser14___parse_scopedBH_, symObjAddr: 0x0, symBinAddr: 0x5B5F4, symSize: 0x3BC }
  - { offsetInCU: 0x8D79, offset: 0x6B964, size: 0x8, addend: 0x0, symName: __RNvXsf_NtCs5GBHJSLTkJw_3syn5parseNCNvNtNtCs39Y7jx17GSw_12serde_derive9internals4attr24parse_lit_into_lifetimes0NtB5_6Parser14___parse_scopedBD_, symObjAddr: 0x3BC, symBinAddr: 0x5B9B0, symSize: 0x428 }
  - { offsetInCU: 0xD4FB, offset: 0x700E6, size: 0x8, addend: 0x0, symName: __RNvMNtNtCs39Y7jx17GSw_12serde_derive9internals4attrINtB2_4AttrINtNtCsltZDfVD1VKL_5alloc3vec3VecNtNtCs5GBHJSLTkJw_3syn8generics14WherePredicateEE4noneB6_, symObjAddr: 0x880, symBinAddr: 0x5BE74, symSize: 0x90 }
  - { offsetInCU: 0xD5C5, offset: 0x701B0, size: 0x8, addend: 0x0, symName: __RNvMNtNtCs39Y7jx17GSw_12serde_derive9internals4attrINtB2_4AttrINtNtNtNtCsltZDfVD1VKL_5alloc11collections5btree3set8BTreeSetNtNtCs5GBHJSLTkJw_3syn8lifetime8LifetimeEE4noneB6_, symObjAddr: 0x910, symBinAddr: 0x5BF04, symSize: 0x8C }
  - { offsetInCU: 0xD5FE, offset: 0x701E9, size: 0x8, addend: 0x0, symName: __RNvMNtNtCs39Y7jx17GSw_12serde_derive9internals4attrINtB2_4AttrNtB2_15BorrowAttributeE4noneB6_, symObjAddr: 0x99C, symBinAddr: 0x5BF90, symSize: 0x90 }
  - { offsetInCU: 0xD637, offset: 0x70222, size: 0x8, addend: 0x0, symName: __RNvMNtNtCs39Y7jx17GSw_12serde_derive9internals4attrINtB2_4AttrNtB2_7DefaultE4noneB6_, symObjAddr: 0xA2C, symBinAddr: 0x5C020, symSize: 0x98 }
  - { offsetInCU: 0xD670, offset: 0x7025B, size: 0x8, addend: 0x0, symName: __RNvMNtNtCs39Y7jx17GSw_12serde_derive9internals4attrINtB2_4AttrNtNtB4_4case10RenameRuleE4noneB6_, symObjAddr: 0xAC4, symBinAddr: 0x5C0B8, symSize: 0x88 }
  - { offsetInCU: 0xD6A9, offset: 0x70294, size: 0x8, addend: 0x0, symName: __RNvMNtNtCs39Y7jx17GSw_12serde_derive9internals4attrINtB2_4AttrNtNtCs5GBHJSLTkJw_3syn2ty4TypeE4noneB6_, symObjAddr: 0xB4C, symBinAddr: 0x5C140, symSize: 0x98 }
  - { offsetInCU: 0xD6E2, offset: 0x702CD, size: 0x8, addend: 0x0, symName: __RNvMNtNtCs39Y7jx17GSw_12serde_derive9internals4attrINtB2_4AttrNtNtCs5GBHJSLTkJw_3syn4expr8ExprPathE4noneB6_, symObjAddr: 0xBE4, symBinAddr: 0x5C1D8, symSize: 0x94 }
  - { offsetInCU: 0xD71B, offset: 0x70306, size: 0x8, addend: 0x0, symName: __RNvMNtNtCs39Y7jx17GSw_12serde_derive9internals4attrINtB2_4AttrNtNtCs5GBHJSLTkJw_3syn4path4PathE4noneB6_, symObjAddr: 0xC78, symBinAddr: 0x5C26C, symSize: 0x94 }
  - { offsetInCU: 0xD754, offset: 0x7033F, size: 0x8, addend: 0x0, symName: __RNvMNtNtCs39Y7jx17GSw_12serde_derive9internals4attrINtB2_4AttrNtNtCsltZDfVD1VKL_5alloc6string6StringE4noneB6_, symObjAddr: 0xD0C, symBinAddr: 0x5C300, symSize: 0x90 }
  - { offsetInCU: 0xD78D, offset: 0x70378, size: 0x8, addend: 0x0, symName: __RNvMNtNtCs39Y7jx17GSw_12serde_derive9internals4attrINtB2_4AttruE4noneB6_, symObjAddr: 0xD9C, symBinAddr: 0x5C390, symSize: 0x88 }
  - { offsetInCU: 0xD8CC, offset: 0x704B7, size: 0x8, addend: 0x0, symName: __RINvMNtNtCs39Y7jx17GSw_12serde_derive9internals4attrINtB3_4AttrINtNtCsltZDfVD1VKL_5alloc3vec3VecNtNtCs5GBHJSLTkJw_3syn8generics14WherePredicateEE3setRNtNtB1A_4path4PathEB7_, symObjAddr: 0xE24, symBinAddr: 0x5C418, symSize: 0x2B4 }
  - { offsetInCU: 0xD9AF, offset: 0x7059A, size: 0x8, addend: 0x0, symName: __RINvMNtNtCs39Y7jx17GSw_12serde_derive9internals4attrINtB3_4AttrINtNtNtNtCsltZDfVD1VKL_5alloc11collections5btree3set8BTreeSetNtNtCs5GBHJSLTkJw_3syn8lifetime8LifetimeEE3setRNtNtB22_4path4PathEB7_, symObjAddr: 0x10D8, symBinAddr: 0x5C6CC, symSize: 0x2BC }
  - { offsetInCU: 0xDA92, offset: 0x7067D, size: 0x8, addend: 0x0, symName: __RINvMNtNtCs39Y7jx17GSw_12serde_derive9internals4attrINtB3_4AttrNtB3_15BorrowAttributeE3setRNtNtCs5GBHJSLTkJw_3syn4path4PathEB7_, symObjAddr: 0x1394, symBinAddr: 0x5C988, symSize: 0x2B4 }
  - { offsetInCU: 0xDB75, offset: 0x70760, size: 0x8, addend: 0x0, symName: __RINvMNtNtCs39Y7jx17GSw_12serde_derive9internals4attrINtB3_4AttrNtB3_7DefaultE3setNtNtCs5GBHJSLTkJw_3syn4path4PathEB7_, symObjAddr: 0x1648, symBinAddr: 0x5CC3C, symSize: 0x2B8 }
  - { offsetInCU: 0xDC4B, offset: 0x70836, size: 0x8, addend: 0x0, symName: __RINvMNtNtCs39Y7jx17GSw_12serde_derive9internals4attrINtB3_4AttrNtB3_7DefaultE3setRNtNtCs5GBHJSLTkJw_3syn4path4PathEB7_, symObjAddr: 0x1900, symBinAddr: 0x5CEF4, symSize: 0x2C0 }
  - { offsetInCU: 0xDD2E, offset: 0x70919, size: 0x8, addend: 0x0, symName: __RINvMNtNtCs39Y7jx17GSw_12serde_derive9internals4attrINtB3_4AttrNtNtB5_4case10RenameRuleE3setRNtNtCs5GBHJSLTkJw_3syn4path4PathEB7_, symObjAddr: 0x1BC0, symBinAddr: 0x5D1B4, symSize: 0x24C }
  - { offsetInCU: 0xDE11, offset: 0x709FC, size: 0x8, addend: 0x0, symName: __RINvMNtNtCs39Y7jx17GSw_12serde_derive9internals4attrINtB3_4AttrNtNtCs5GBHJSLTkJw_3syn2ty4TypeE3setRNtNtB13_4path4PathEB7_, symObjAddr: 0x1E0C, symBinAddr: 0x5D400, symSize: 0x2B4 }
  - { offsetInCU: 0xDEF4, offset: 0x70ADF, size: 0x8, addend: 0x0, symName: __RINvMNtNtCs39Y7jx17GSw_12serde_derive9internals4attrINtB3_4AttrNtNtCs5GBHJSLTkJw_3syn4expr8ExprPathE3setRNtNtB13_4path4PathEB7_, symObjAddr: 0x20C0, symBinAddr: 0x5D6B4, symSize: 0x2C0 }
  - { offsetInCU: 0xDFD7, offset: 0x70BC2, size: 0x8, addend: 0x0, symName: __RINvMNtNtCs39Y7jx17GSw_12serde_derive9internals4attrINtB3_4AttrNtNtCs5GBHJSLTkJw_3syn4path4PathE3setRBZ_EB7_, symObjAddr: 0x2380, symBinAddr: 0x5D974, symSize: 0x2C0 }
  - { offsetInCU: 0xE0BA, offset: 0x70CA5, size: 0x8, addend: 0x0, symName: __RINvMNtNtCs39Y7jx17GSw_12serde_derive9internals4attrINtB3_4AttrNtNtCsltZDfVD1VKL_5alloc6string6StringE3setRNtNtCs5GBHJSLTkJw_3syn4path4PathEB7_, symObjAddr: 0x2640, symBinAddr: 0x5DC34, symSize: 0x2B4 }
  - { offsetInCU: 0xE19D, offset: 0x70D88, size: 0x8, addend: 0x0, symName: __RINvMNtNtCs39Y7jx17GSw_12serde_derive9internals4attrINtB3_4AttruE3setNtNtCs5GBHJSLTkJw_3syn4path4PathEB7_, symObjAddr: 0x28F4, symBinAddr: 0x5DEE8, symSize: 0x240 }
  - { offsetInCU: 0xE272, offset: 0x70E5D, size: 0x8, addend: 0x0, symName: __RINvMNtNtCs39Y7jx17GSw_12serde_derive9internals4attrINtB3_4AttruE3setRNtNtCs5GBHJSLTkJw_3syn4path4PathEB7_, symObjAddr: 0x2B34, symBinAddr: 0x5E128, symSize: 0x248 }
  - { offsetInCU: 0xE347, offset: 0x70F32, size: 0x8, addend: 0x0, symName: __RINvMNtNtCs39Y7jx17GSw_12serde_derive9internals4attrINtB3_4AttrINtNtCsltZDfVD1VKL_5alloc3vec3VecNtNtCs5GBHJSLTkJw_3syn8generics14WherePredicateEE7set_optRNtNtB1A_4path4PathEB7_, symObjAddr: 0x2D7C, symBinAddr: 0x5E370, symSize: 0x128 }
  - { offsetInCU: 0xE3AD, offset: 0x70F98, size: 0x8, addend: 0x0, symName: __RINvMNtNtCs39Y7jx17GSw_12serde_derive9internals4attrINtB3_4AttrNtNtCs5GBHJSLTkJw_3syn2ty4TypeE7set_optRNtNtB13_4path4PathEB7_, symObjAddr: 0x2EA4, symBinAddr: 0x5E498, symSize: 0x12C }
  - { offsetInCU: 0xE413, offset: 0x70FFE, size: 0x8, addend: 0x0, symName: __RINvMNtNtCs39Y7jx17GSw_12serde_derive9internals4attrINtB3_4AttrNtNtCsltZDfVD1VKL_5alloc6string6StringE7set_optRNtNtCs5GBHJSLTkJw_3syn4path4PathEB7_, symObjAddr: 0x2FD0, symBinAddr: 0x5E5C4, symSize: 0x128 }
  - { offsetInCU: 0xE479, offset: 0x71064, size: 0x8, addend: 0x0, symName: __RNvMNtNtCs39Y7jx17GSw_12serde_derive9internals4attrINtB2_4AttrNtB2_7DefaultE11set_if_noneB6_, symObjAddr: 0x30F8, symBinAddr: 0x5E6EC, symSize: 0x150 }
  - { offsetInCU: 0xE4B3, offset: 0x7109E, size: 0x8, addend: 0x0, symName: __RNvMNtNtCs39Y7jx17GSw_12serde_derive9internals4attrINtB2_4AttrNtNtCs5GBHJSLTkJw_3syn4expr8ExprPathE11set_if_noneB6_, symObjAddr: 0x3248, symBinAddr: 0x5E83C, symSize: 0x150 }
  - { offsetInCU: 0xE4ED, offset: 0x710D8, size: 0x8, addend: 0x0, symName: __RNvMNtNtCs39Y7jx17GSw_12serde_derive9internals4attrINtB2_4AttrNtNtCsltZDfVD1VKL_5alloc6string6StringE11set_if_noneB6_, symObjAddr: 0x3398, symBinAddr: 0x5E98C, symSize: 0x13C }
  - { offsetInCU: 0xE527, offset: 0x71112, size: 0x8, addend: 0x0, symName: __RNvMNtNtCs39Y7jx17GSw_12serde_derive9internals4attrINtB2_4AttrINtNtCsltZDfVD1VKL_5alloc3vec3VecNtNtCs5GBHJSLTkJw_3syn8generics14WherePredicateEE3getB6_, symObjAddr: 0x34D4, symBinAddr: 0x5EAC8, symSize: 0x38 }
  - { offsetInCU: 0xE553, offset: 0x7113E, size: 0x8, addend: 0x0, symName: __RNvMNtNtCs39Y7jx17GSw_12serde_derive9internals4attrINtB2_4AttrINtNtNtNtCsltZDfVD1VKL_5alloc11collections5btree3set8BTreeSetNtNtCs5GBHJSLTkJw_3syn8lifetime8LifetimeEE3getB6_, symObjAddr: 0x350C, symBinAddr: 0x5EB00, symSize: 0x38 }
  - { offsetInCU: 0xE57F, offset: 0x7116A, size: 0x8, addend: 0x0, symName: __RNvMNtNtCs39Y7jx17GSw_12serde_derive9internals4attrINtB2_4AttrNtB2_15BorrowAttributeE3getB6_, symObjAddr: 0x3544, symBinAddr: 0x5EB38, symSize: 0x50 }
  - { offsetInCU: 0xE5AB, offset: 0x71196, size: 0x8, addend: 0x0, symName: __RNvMNtNtCs39Y7jx17GSw_12serde_derive9internals4attrINtB2_4AttrNtB2_7DefaultE3getB6_, symObjAddr: 0x3594, symBinAddr: 0x5EB88, symSize: 0x50 }
  - { offsetInCU: 0xE5D7, offset: 0x711C2, size: 0x8, addend: 0x0, symName: __RNvMNtNtCs39Y7jx17GSw_12serde_derive9internals4attrINtB2_4AttrNtNtB4_4case10RenameRuleE3getB6_, symObjAddr: 0x35E4, symBinAddr: 0x5EBD8, symSize: 0x38 }
  - { offsetInCU: 0xE603, offset: 0x711EE, size: 0x8, addend: 0x0, symName: __RNvMNtNtCs39Y7jx17GSw_12serde_derive9internals4attrINtB2_4AttrNtNtCs5GBHJSLTkJw_3syn2ty4TypeE3getB6_, symObjAddr: 0x361C, symBinAddr: 0x5EC10, symSize: 0x50 }
  - { offsetInCU: 0xE62F, offset: 0x7121A, size: 0x8, addend: 0x0, symName: __RNvMNtNtCs39Y7jx17GSw_12serde_derive9internals4attrINtB2_4AttrNtNtCs5GBHJSLTkJw_3syn4expr8ExprPathE3getB6_, symObjAddr: 0x366C, symBinAddr: 0x5EC60, symSize: 0x50 }
  - { offsetInCU: 0xE65B, offset: 0x71246, size: 0x8, addend: 0x0, symName: __RNvMNtNtCs39Y7jx17GSw_12serde_derive9internals4attrINtB2_4AttrNtNtCs5GBHJSLTkJw_3syn4path4PathE3getB6_, symObjAddr: 0x36BC, symBinAddr: 0x5ECB0, symSize: 0x50 }
  - { offsetInCU: 0xE687, offset: 0x71272, size: 0x8, addend: 0x0, symName: __RNvMNtNtCs39Y7jx17GSw_12serde_derive9internals4attrINtB2_4AttrNtNtCsltZDfVD1VKL_5alloc6string6StringE3getB6_, symObjAddr: 0x370C, symBinAddr: 0x5ED00, symSize: 0x38 }
  - { offsetInCU: 0xE6D1, offset: 0x712BC, size: 0x8, addend: 0x0, symName: __RNvMNtNtCs39Y7jx17GSw_12serde_derive9internals4attrINtB2_4AttrNtNtCsltZDfVD1VKL_5alloc6string6StringE15get_with_tokensB6_, symObjAddr: 0x3744, symBinAddr: 0x5ED38, symSize: 0xF0 }
  - { offsetInCU: 0xE738, offset: 0x71323, size: 0x8, addend: 0x0, symName: __RNvMNtNtCs39Y7jx17GSw_12serde_derive9internals4attrINtB2_4AttruE15get_with_tokensB6_, symObjAddr: 0x3834, symBinAddr: 0x5EE28, symSize: 0xC4 }
  - { offsetInCU: 0xE780, offset: 0x7136B, size: 0x8, addend: 0x0, symName: __RNvMs_NtNtCs39Y7jx17GSw_12serde_derive9internals4attrNtB4_8BoolAttr4none, symObjAddr: 0x38F8, symBinAddr: 0x5EEEC, symSize: 0x60 }
  - { offsetInCU: 0xE7BD, offset: 0x713A8, size: 0x8, addend: 0x0, symName: __RINvMs_NtNtCs39Y7jx17GSw_12serde_derive9internals4attrNtB5_8BoolAttr8set_trueNtNtCs5GBHJSLTkJw_3syn4path4PathEB9_, symObjAddr: 0x3958, symBinAddr: 0x5EF4C, symSize: 0x34 }
  - { offsetInCU: 0xE7F7, offset: 0x713E2, size: 0x8, addend: 0x0, symName: __RINvMs_NtNtCs39Y7jx17GSw_12serde_derive9internals4attrNtB5_8BoolAttr8set_trueRNtNtCs5GBHJSLTkJw_3syn4path4PathEB9_, symObjAddr: 0x398C, symBinAddr: 0x5EF80, symSize: 0x3C }
  - { offsetInCU: 0xE83D, offset: 0x71428, size: 0x8, addend: 0x0, symName: __RNvMs_NtNtCs39Y7jx17GSw_12serde_derive9internals4attrNtB4_8BoolAttr3get, symObjAddr: 0x39C8, symBinAddr: 0x5EFBC, symSize: 0x34 }
  - { offsetInCU: 0xE86C, offset: 0x71457, size: 0x8, addend: 0x0, symName: __RNvMs0_NtNtCs39Y7jx17GSw_12serde_derive9internals4attrINtB5_7VecAttrINtNtCsltZDfVD1VKL_5alloc3vec3VecNtNtCs5GBHJSLTkJw_3syn8generics14WherePredicateEE4noneB9_, symObjAddr: 0x39FC, symBinAddr: 0x5EFF0, symSize: 0xBC }
  - { offsetInCU: 0xE8B2, offset: 0x7149D, size: 0x8, addend: 0x0, symName: __RNvMs0_NtNtCs39Y7jx17GSw_12serde_derive9internals4attrINtB5_7VecAttrNtNtCs5GBHJSLTkJw_3syn3lit6LitStrE4noneB9_, symObjAddr: 0x3AB8, symBinAddr: 0x5F0AC, symSize: 0xBC }
  - { offsetInCU: 0xE8F8, offset: 0x714E3, size: 0x8, addend: 0x0, symName: __RNvMs0_NtNtCs39Y7jx17GSw_12serde_derive9internals4attrINtB5_7VecAttrNtNtCsltZDfVD1VKL_5alloc6string6StringE4noneB9_, symObjAddr: 0x3B74, symBinAddr: 0x5F168, symSize: 0xBC }
  - { offsetInCU: 0xE93E, offset: 0x71529, size: 0x8, addend: 0x0, symName: __RINvMs0_NtNtCs39Y7jx17GSw_12serde_derive9internals4attrINtB6_7VecAttrINtNtCsltZDfVD1VKL_5alloc3vec3VecNtNtCs5GBHJSLTkJw_3syn8generics14WherePredicateEE6insertRNtNtB1G_4path4PathEBa_, symObjAddr: 0x3C30, symBinAddr: 0x5F224, symSize: 0x168 }
  - { offsetInCU: 0xE99C, offset: 0x71587, size: 0x8, addend: 0x0, symName: __RINvMs0_NtNtCs39Y7jx17GSw_12serde_derive9internals4attrINtB6_7VecAttrNtNtCs5GBHJSLTkJw_3syn3lit6LitStrE6insertRNtNtB19_4path4PathEBa_, symObjAddr: 0x3D98, symBinAddr: 0x5F38C, symSize: 0x154 }
  - { offsetInCU: 0xE9F9, offset: 0x715E4, size: 0x8, addend: 0x0, symName: __RINvMs0_NtNtCs39Y7jx17GSw_12serde_derive9internals4attrINtB6_7VecAttrNtNtCsltZDfVD1VKL_5alloc6string6StringE6insertRNtNtCs5GBHJSLTkJw_3syn4path4PathEBa_, symObjAddr: 0x3EEC, symBinAddr: 0x5F4E0, symSize: 0x168 }
  - { offsetInCU: 0xEA4A, offset: 0x71635, size: 0x8, addend: 0x0, symName: __RNvMs0_NtNtCs39Y7jx17GSw_12serde_derive9internals4attrINtB5_7VecAttrINtNtCsltZDfVD1VKL_5alloc3vec3VecNtNtCs5GBHJSLTkJw_3syn8generics14WherePredicateEE11at_most_oneB9_, symObjAddr: 0x4054, symBinAddr: 0x5F648, symSize: 0x208 }
  - { offsetInCU: 0xEAF9, offset: 0x716E4, size: 0x8, addend: 0x0, symName: __RNvMs0_NtNtCs39Y7jx17GSw_12serde_derive9internals4attrINtB5_7VecAttrNtNtCs5GBHJSLTkJw_3syn3lit6LitStrE11at_most_oneB9_, symObjAddr: 0x425C, symBinAddr: 0x5F850, symSize: 0x21C }
  - { offsetInCU: 0xEBA8, offset: 0x71793, size: 0x8, addend: 0x0, symName: __RNvMs0_NtNtCs39Y7jx17GSw_12serde_derive9internals4attrINtB5_7VecAttrNtNtCs5GBHJSLTkJw_3syn3lit6LitStrE3getB9_, symObjAddr: 0x4478, symBinAddr: 0x5FA6C, symSize: 0x3C }
  - { offsetInCU: 0xEBD4, offset: 0x717BF, size: 0x8, addend: 0x0, symName: __RNvMs0_NtNtCs39Y7jx17GSw_12serde_derive9internals4attrINtB5_7VecAttrNtNtCsltZDfVD1VKL_5alloc6string6StringE3getB9_, symObjAddr: 0x44B4, symBinAddr: 0x5FAA8, symSize: 0x3C }
  - { offsetInCU: 0xEC5F, offset: 0x7184A, size: 0x8, addend: 0x0, symName: __RNvMs1_NtNtCs39Y7jx17GSw_12serde_derive9internals4attrNtB5_4Name10from_attrs, symObjAddr: 0x45B0, symBinAddr: 0x5FBA4, symSize: 0x48C }
  - { offsetInCU: 0xED70, offset: 0x7195B, size: 0x8, addend: 0x0, symName: __RNvMs1_NtNtCs39Y7jx17GSw_12serde_derive9internals4attrNtB5_4Name14serialize_name, symObjAddr: 0x4A70, symBinAddr: 0x60064, symSize: 0x34 }
  - { offsetInCU: 0xED92, offset: 0x7197D, size: 0x8, addend: 0x0, symName: __RNvMs1_NtNtCs39Y7jx17GSw_12serde_derive9internals4attrNtB5_4Name16deserialize_name, symObjAddr: 0x4AA4, symBinAddr: 0x60098, symSize: 0x34 }
  - { offsetInCU: 0xEDC1, offset: 0x719AC, size: 0x8, addend: 0x0, symName: __RNvMs1_NtNtCs39Y7jx17GSw_12serde_derive9internals4attrNtB5_4Name19deserialize_aliases, symObjAddr: 0x4AD8, symBinAddr: 0x600CC, symSize: 0x24 }
  - { offsetInCU: 0xEDE3, offset: 0x719CE, size: 0x8, addend: 0x0, symName: __RNvMs2_NtNtCs39Y7jx17GSw_12serde_derive9internals4attrNtB5_14RenameAllRules2or, symObjAddr: 0x4AFC, symBinAddr: 0x600F0, symSize: 0x74 }
  - { offsetInCU: 0xEEF9, offset: 0x71AE4, size: 0x8, addend: 0x0, symName: __RNvMs4_NtNtCs39Y7jx17GSw_12serde_derive9internals4attrNtB5_9Container8from_ast, symObjAddr: 0x4B70, symBinAddr: 0x60164, symSize: 0x1538 }
  - { offsetInCU: 0xF283, offset: 0x71E6E, size: 0x8, addend: 0x0, symName: __RNvMs4_NtNtCs39Y7jx17GSw_12serde_derive9internals4attrNtB5_9Container4name, symObjAddr: 0x92DC, symBinAddr: 0x648D0, symSize: 0x24 }
  - { offsetInCU: 0xF2A6, offset: 0x71E91, size: 0x8, addend: 0x0, symName: __RNvMs4_NtNtCs39Y7jx17GSw_12serde_derive9internals4attrNtB5_9Container16rename_all_rules, symObjAddr: 0x9300, symBinAddr: 0x648F4, symSize: 0x30 }
  - { offsetInCU: 0xF2C9, offset: 0x71EB4, size: 0x8, addend: 0x0, symName: __RNvMs4_NtNtCs39Y7jx17GSw_12serde_derive9internals4attrNtB5_9Container23rename_all_fields_rules, symObjAddr: 0x9330, symBinAddr: 0x64924, symSize: 0x30 }
  - { offsetInCU: 0xF2EC, offset: 0x71ED7, size: 0x8, addend: 0x0, symName: __RNvMs4_NtNtCs39Y7jx17GSw_12serde_derive9internals4attrNtB5_9Container11transparent, symObjAddr: 0x9360, symBinAddr: 0x64954, symSize: 0x2C }
  - { offsetInCU: 0xF30F, offset: 0x71EFA, size: 0x8, addend: 0x0, symName: __RNvMs4_NtNtCs39Y7jx17GSw_12serde_derive9internals4attrNtB5_9Container19deny_unknown_fields, symObjAddr: 0x938C, symBinAddr: 0x64980, symSize: 0x2C }
  - { offsetInCU: 0xF33F, offset: 0x71F2A, size: 0x8, addend: 0x0, symName: __RNvMs4_NtNtCs39Y7jx17GSw_12serde_derive9internals4attrNtB5_9Container7default, symObjAddr: 0x93B8, symBinAddr: 0x649AC, symSize: 0x24 }
  - { offsetInCU: 0xF389, offset: 0x71F74, size: 0x8, addend: 0x0, symName: __RNvMs4_NtNtCs39Y7jx17GSw_12serde_derive9internals4attrNtB5_9Container9ser_bound, symObjAddr: 0x93DC, symBinAddr: 0x649D0, symSize: 0x38 }
  - { offsetInCU: 0xF3AC, offset: 0x71F97, size: 0x8, addend: 0x0, symName: __RNvMs4_NtNtCs39Y7jx17GSw_12serde_derive9internals4attrNtB5_9Container8de_bound, symObjAddr: 0x9450, symBinAddr: 0x64A44, symSize: 0x38 }
  - { offsetInCU: 0xF3DC, offset: 0x71FC7, size: 0x8, addend: 0x0, symName: __RNvMs4_NtNtCs39Y7jx17GSw_12serde_derive9internals4attrNtB5_9Container3tag, symObjAddr: 0x94C4, symBinAddr: 0x64AB8, symSize: 0x24 }
  - { offsetInCU: 0xF40C, offset: 0x71FF7, size: 0x8, addend: 0x0, symName: __RNvMs4_NtNtCs39Y7jx17GSw_12serde_derive9internals4attrNtB5_9Container9type_from, symObjAddr: 0x94E8, symBinAddr: 0x64ADC, symSize: 0x34 }
  - { offsetInCU: 0xF42F, offset: 0x7201A, size: 0x8, addend: 0x0, symName: __RNvMs4_NtNtCs39Y7jx17GSw_12serde_derive9internals4attrNtB5_9Container13type_try_from, symObjAddr: 0x951C, symBinAddr: 0x64B10, symSize: 0x34 }
  - { offsetInCU: 0xF452, offset: 0x7203D, size: 0x8, addend: 0x0, symName: __RNvMs4_NtNtCs39Y7jx17GSw_12serde_derive9internals4attrNtB5_9Container9type_into, symObjAddr: 0x9550, symBinAddr: 0x64B44, symSize: 0x34 }
  - { offsetInCU: 0xF475, offset: 0x72060, size: 0x8, addend: 0x0, symName: __RNvMs4_NtNtCs39Y7jx17GSw_12serde_derive9internals4attrNtB5_9Container6remote, symObjAddr: 0x9584, symBinAddr: 0x64B78, symSize: 0x34 }
  - { offsetInCU: 0xF498, offset: 0x72083, size: 0x8, addend: 0x0, symName: __RNvMs4_NtNtCs39Y7jx17GSw_12serde_derive9internals4attrNtB5_9Container9is_packed, symObjAddr: 0x95B8, symBinAddr: 0x64BAC, symSize: 0x2C }
  - { offsetInCU: 0xF4BB, offset: 0x720A6, size: 0x8, addend: 0x0, symName: __RNvMs4_NtNtCs39Y7jx17GSw_12serde_derive9internals4attrNtB5_9Container10identifier, symObjAddr: 0x95E4, symBinAddr: 0x64BD8, symSize: 0x28 }
  - { offsetInCU: 0xF4DE, offset: 0x720C9, size: 0x8, addend: 0x0, symName: __RNvMs4_NtNtCs39Y7jx17GSw_12serde_derive9internals4attrNtB5_9Container11has_flatten, symObjAddr: 0x960C, symBinAddr: 0x64C00, symSize: 0x2C }
  - { offsetInCU: 0xF50E, offset: 0x720F9, size: 0x8, addend: 0x0, symName: __RNvMs4_NtNtCs39Y7jx17GSw_12serde_derive9internals4attrNtB5_9Container16mark_has_flatten, symObjAddr: 0x9638, symBinAddr: 0x64C2C, symSize: 0x2C }
  - { offsetInCU: 0xF531, offset: 0x7211C, size: 0x8, addend: 0x0, symName: __RNvMs4_NtNtCs39Y7jx17GSw_12serde_derive9internals4attrNtB5_9Container17custom_serde_path, symObjAddr: 0x9664, symBinAddr: 0x64C58, symSize: 0x34 }
  - { offsetInCU: 0xF554, offset: 0x7213F, size: 0x8, addend: 0x0, symName: __RNvMs4_NtNtCs39Y7jx17GSw_12serde_derive9internals4attrNtB5_9Container10serde_path, symObjAddr: 0x9698, symBinAddr: 0x64C8C, symSize: 0x40 }
  - { offsetInCU: 0xF577, offset: 0x72162, size: 0x8, addend: 0x0, symName: __RNvMs4_NtNtCs39Y7jx17GSw_12serde_derive9internals4attrNtB5_9Container9expecting, symObjAddr: 0x9788, symBinAddr: 0x64D7C, symSize: 0x38 }
  - { offsetInCU: 0xF59A, offset: 0x72185, size: 0x8, addend: 0x0, symName: __RNvMs4_NtNtCs39Y7jx17GSw_12serde_derive9internals4attrNtB5_9Container14non_exhaustive, symObjAddr: 0x97C0, symBinAddr: 0x64DB4, symSize: 0x2C }
  - { offsetInCU: 0xF5CA, offset: 0x721B5, size: 0x8, addend: 0x0, symName: __RNvMs5_NtNtCs39Y7jx17GSw_12serde_derive9internals4attrNtB5_7Variant8from_ast, symObjAddr: 0xA9D0, symBinAddr: 0x65FC4, symSize: 0xB48 }
  - { offsetInCU: 0xF7A7, offset: 0x72392, size: 0x8, addend: 0x0, symName: __RNvMs5_NtNtCs39Y7jx17GSw_12serde_derive9internals4attrNtB5_7Variant4name, symObjAddr: 0xD078, symBinAddr: 0x6866C, symSize: 0x24 }
  - { offsetInCU: 0xF7CA, offset: 0x723B5, size: 0x8, addend: 0x0, symName: __RNvMs5_NtNtCs39Y7jx17GSw_12serde_derive9internals4attrNtB5_7Variant7aliases, symObjAddr: 0xD09C, symBinAddr: 0x68690, symSize: 0x34 }
  - { offsetInCU: 0xF7FA, offset: 0x723E5, size: 0x8, addend: 0x0, symName: __RNvMs5_NtNtCs39Y7jx17GSw_12serde_derive9internals4attrNtB5_7Variant15rename_by_rules, symObjAddr: 0xD0D0, symBinAddr: 0x686C4, symSize: 0x1B0 }
  - { offsetInCU: 0xF82C, offset: 0x72417, size: 0x8, addend: 0x0, symName: __RNvMs5_NtNtCs39Y7jx17GSw_12serde_derive9internals4attrNtB5_7Variant16rename_all_rules, symObjAddr: 0xD280, symBinAddr: 0x68874, symSize: 0x30 }
  - { offsetInCU: 0xF84F, offset: 0x7243A, size: 0x8, addend: 0x0, symName: __RNvMs5_NtNtCs39Y7jx17GSw_12serde_derive9internals4attrNtB5_7Variant9ser_bound, symObjAddr: 0xD2B0, symBinAddr: 0x688A4, symSize: 0x38 }
  - { offsetInCU: 0xF872, offset: 0x7245D, size: 0x8, addend: 0x0, symName: __RNvMs5_NtNtCs39Y7jx17GSw_12serde_derive9internals4attrNtB5_7Variant8de_bound, symObjAddr: 0xD324, symBinAddr: 0x68918, symSize: 0x38 }
  - { offsetInCU: 0xF895, offset: 0x72480, size: 0x8, addend: 0x0, symName: __RNvMs5_NtNtCs39Y7jx17GSw_12serde_derive9internals4attrNtB5_7Variant18skip_deserializing, symObjAddr: 0xD398, symBinAddr: 0x6898C, symSize: 0x2C }
  - { offsetInCU: 0xF8B8, offset: 0x724A3, size: 0x8, addend: 0x0, symName: __RNvMs5_NtNtCs39Y7jx17GSw_12serde_derive9internals4attrNtB5_7Variant16skip_serializing, symObjAddr: 0xD3C4, symBinAddr: 0x689B8, symSize: 0x2C }
  - { offsetInCU: 0xF8DB, offset: 0x724C6, size: 0x8, addend: 0x0, symName: __RNvMs5_NtNtCs39Y7jx17GSw_12serde_derive9internals4attrNtB5_7Variant5other, symObjAddr: 0xD3F0, symBinAddr: 0x689E4, symSize: 0x2C }
  - { offsetInCU: 0xF90B, offset: 0x724F6, size: 0x8, addend: 0x0, symName: __RNvMs5_NtNtCs39Y7jx17GSw_12serde_derive9internals4attrNtB5_7Variant14serialize_with, symObjAddr: 0xD41C, symBinAddr: 0x68A10, symSize: 0x34 }
  - { offsetInCU: 0xF92E, offset: 0x72519, size: 0x8, addend: 0x0, symName: __RNvMs5_NtNtCs39Y7jx17GSw_12serde_derive9internals4attrNtB5_7Variant16deserialize_with, symObjAddr: 0xD450, symBinAddr: 0x68A44, symSize: 0x34 }
  - { offsetInCU: 0xF951, offset: 0x7253C, size: 0x8, addend: 0x0, symName: __RNvMs5_NtNtCs39Y7jx17GSw_12serde_derive9internals4attrNtB5_7Variant8untagged, symObjAddr: 0xD484, symBinAddr: 0x68A78, symSize: 0x2C }
  - { offsetInCU: 0xF974, offset: 0x7255F, size: 0x8, addend: 0x0, symName: __RNvMs6_NtNtCs39Y7jx17GSw_12serde_derive9internals4attrNtB5_7Default7is_none, symObjAddr: 0xD4B0, symBinAddr: 0x68AA4, symSize: 0x78 }
  - { offsetInCU: 0xFA1E, offset: 0x72609, size: 0x8, addend: 0x0, symName: __RNvMs7_NtNtCs39Y7jx17GSw_12serde_derive9internals4attrNtB5_5Field8from_ast, symObjAddr: 0xD528, symBinAddr: 0x68B1C, symSize: 0x1844 }
  - { offsetInCU: 0xFE4E, offset: 0x72A39, size: 0x8, addend: 0x0, symName: __RNvMs7_NtNtCs39Y7jx17GSw_12serde_derive9internals4attrNtB5_5Field4name, symObjAddr: 0x10CD4, symBinAddr: 0x6C2C8, symSize: 0x24 }
  - { offsetInCU: 0xFE71, offset: 0x72A5C, size: 0x8, addend: 0x0, symName: __RNvMs7_NtNtCs39Y7jx17GSw_12serde_derive9internals4attrNtB5_5Field7aliases, symObjAddr: 0x10CF8, symBinAddr: 0x6C2EC, symSize: 0x34 }
  - { offsetInCU: 0xFEA1, offset: 0x72A8C, size: 0x8, addend: 0x0, symName: __RNvMs7_NtNtCs39Y7jx17GSw_12serde_derive9internals4attrNtB5_5Field15rename_by_rules, symObjAddr: 0x10D2C, symBinAddr: 0x6C320, symSize: 0x1A8 }
  - { offsetInCU: 0xFED3, offset: 0x72ABE, size: 0x8, addend: 0x0, symName: __RNvMs7_NtNtCs39Y7jx17GSw_12serde_derive9internals4attrNtB5_5Field16skip_serializing, symObjAddr: 0x10ED4, symBinAddr: 0x6C4C8, symSize: 0x2C }
  - { offsetInCU: 0xFEF6, offset: 0x72AE1, size: 0x8, addend: 0x0, symName: __RNvMs7_NtNtCs39Y7jx17GSw_12serde_derive9internals4attrNtB5_5Field18skip_deserializing, symObjAddr: 0x10F00, symBinAddr: 0x6C4F4, symSize: 0x2C }
  - { offsetInCU: 0xFF19, offset: 0x72B04, size: 0x8, addend: 0x0, symName: __RNvMs7_NtNtCs39Y7jx17GSw_12serde_derive9internals4attrNtB5_5Field19skip_serializing_if, symObjAddr: 0x10F2C, symBinAddr: 0x6C520, symSize: 0x34 }
  - { offsetInCU: 0xFF3C, offset: 0x72B27, size: 0x8, addend: 0x0, symName: __RNvMs7_NtNtCs39Y7jx17GSw_12serde_derive9internals4attrNtB5_5Field7default, symObjAddr: 0x10F60, symBinAddr: 0x6C554, symSize: 0x24 }
  - { offsetInCU: 0xFF5F, offset: 0x72B4A, size: 0x8, addend: 0x0, symName: __RNvMs7_NtNtCs39Y7jx17GSw_12serde_derive9internals4attrNtB5_5Field14serialize_with, symObjAddr: 0x10F84, symBinAddr: 0x6C578, symSize: 0x34 }
  - { offsetInCU: 0xFF82, offset: 0x72B6D, size: 0x8, addend: 0x0, symName: __RNvMs7_NtNtCs39Y7jx17GSw_12serde_derive9internals4attrNtB5_5Field16deserialize_with, symObjAddr: 0x10FB8, symBinAddr: 0x6C5AC, symSize: 0x34 }
  - { offsetInCU: 0xFFA5, offset: 0x72B90, size: 0x8, addend: 0x0, symName: __RNvMs7_NtNtCs39Y7jx17GSw_12serde_derive9internals4attrNtB5_5Field9ser_bound, symObjAddr: 0x10FEC, symBinAddr: 0x6C5E0, symSize: 0x38 }
  - { offsetInCU: 0xFFC8, offset: 0x72BB3, size: 0x8, addend: 0x0, symName: __RNvMs7_NtNtCs39Y7jx17GSw_12serde_derive9internals4attrNtB5_5Field8de_bound, symObjAddr: 0x11060, symBinAddr: 0x6C654, symSize: 0x38 }
  - { offsetInCU: 0xFFF8, offset: 0x72BE3, size: 0x8, addend: 0x0, symName: __RNvMs7_NtNtCs39Y7jx17GSw_12serde_derive9internals4attrNtB5_5Field18borrowed_lifetimes, symObjAddr: 0x110D4, symBinAddr: 0x6C6C8, symSize: 0x24 }
  - { offsetInCU: 0x1001B, offset: 0x72C06, size: 0x8, addend: 0x0, symName: __RNvMs7_NtNtCs39Y7jx17GSw_12serde_derive9internals4attrNtB5_5Field6getter, symObjAddr: 0x110F8, symBinAddr: 0x6C6EC, symSize: 0x34 }
  - { offsetInCU: 0x1003E, offset: 0x72C29, size: 0x8, addend: 0x0, symName: __RNvMs7_NtNtCs39Y7jx17GSw_12serde_derive9internals4attrNtB5_5Field7flatten, symObjAddr: 0x1112C, symBinAddr: 0x6C720, symSize: 0x2C }
  - { offsetInCU: 0x10061, offset: 0x72C4C, size: 0x8, addend: 0x0, symName: __RNvMs7_NtNtCs39Y7jx17GSw_12serde_derive9internals4attrNtB5_5Field11transparent, symObjAddr: 0x11158, symBinAddr: 0x6C74C, symSize: 0x2C }
  - { offsetInCU: 0x10084, offset: 0x72C6F, size: 0x8, addend: 0x0, symName: __RNvMs7_NtNtCs39Y7jx17GSw_12serde_derive9internals4attrNtB5_5Field16mark_transparent, symObjAddr: 0x11184, symBinAddr: 0x6C778, symSize: 0x2C }
  - { offsetInCU: 0x1E, offset: 0x73296, size: 0x8, addend: 0x0, symName: __RINvMsi_NtCsltZDfVD1VKL_5alloc3vecINtB6_3VecNtCs5CKmLD4IrHZ_11proc_macro211TokenStreamE14extend_trustedINtNtNtNtCs5fsojcNSbun_4core4iter8adapters3map3MapINtNtB1I_9enumerate9EnumerateINtNtNtB1M_5slice4iter4IterNtNtNtCs39Y7jx17GSw_12serde_derive9internals3ast7VariantEENCNvNtB3r_3ser14serialize_enum0EEB3r_, symObjAddr: 0x0, symBinAddr: 0x71670, symSize: 0x1A8 }
  - { offsetInCU: 0x8B70, offset: 0x7BDE8, size: 0x8, addend: 0x0, symName: __RNvXs1_NtCs5fsojcNSbun_4core7convertINtNtCsltZDfVD1VKL_5alloc3vec3VecNtNtCs5GBHJSLTkJw_3syn8generics14WherePredicateEINtB5_4IntoINtNtB7_6option6OptionBy_EE4intoCs39Y7jx17GSw_12serde_derive, symObjAddr: 0x62B4, symBinAddr: 0x77924, symSize: 0x14 }
  - { offsetInCU: 0xABA5, offset: 0x7DE1D, size: 0x8, addend: 0x0, symName: __RINvXsd_NtCsltZDfVD1VKL_5alloc3vecINtB6_3VecNtCs5CKmLD4IrHZ_11proc_macro211TokenStreamEINtNtNtNtCs5fsojcNSbun_4core4iter6traits7collect12FromIteratorBG_E9from_iterINtNtNtB1u_8adapters10filter_map9FilterMapINtNtB2G_6filter6FilterINtNtB2G_9enumerate9EnumerateINtNtNtB1w_5slice4iter4IterNtNtNtCs39Y7jx17GSw_12serde_derive9internals3ast7VariantEENCNvNtB4E_2de34deserialize_adjacently_tagged_enums0_0ENCB5w_s1_0EEB4E_, symObjAddr: 0x29FC, symBinAddr: 0x7406C, symSize: 0x34 }
  - { offsetInCU: 0xABE6, offset: 0x7DE5E, size: 0x8, addend: 0x0, symName: __RINvXsd_NtCsltZDfVD1VKL_5alloc3vecINtB6_3VecNtCs5CKmLD4IrHZ_11proc_macro211TokenStreamEINtNtNtNtCs5fsojcNSbun_4core4iter6traits7collect12FromIteratorBG_E9from_iterINtNtNtB1u_8adapters10filter_map9FilterMapINtNtNtB1w_5slice4iter4IterNtNtNtCs39Y7jx17GSw_12serde_derive9internals3ast7VariantENCNvNtB3O_7pretend24pretend_fields_used_enum0EEB3O_, symObjAddr: 0x2A30, symBinAddr: 0x740A0, symSize: 0x34 }
  - { offsetInCU: 0xAC27, offset: 0x7DE9F, size: 0x8, addend: 0x0, symName: __RINvXsd_NtCsltZDfVD1VKL_5alloc3vecINtB6_3VecNtCs5CKmLD4IrHZ_11proc_macro211TokenStreamEINtNtNtNtCs5fsojcNSbun_4core4iter6traits7collect12FromIteratorBG_E9from_iterINtNtNtB1u_8adapters3map3MapINtNtB2G_6filter6FilterINtNtB2G_9enumerate9EnumerateINtNtNtB1w_5slice4iter4IterNtNtNtCs39Y7jx17GSw_12serde_derive9internals3ast5FieldEENCNvNtB4q_3ser30serialize_tuple_struct_visitor0ENCB5g_s_0EEB4q_, symObjAddr: 0x2A64, symBinAddr: 0x740D4, symSize: 0x34 }
  - { offsetInCU: 0xAC68, offset: 0x7DEE0, size: 0x8, addend: 0x0, symName: __RINvXsd_NtCsltZDfVD1VKL_5alloc3vecINtB6_3VecNtCs5CKmLD4IrHZ_11proc_macro211TokenStreamEINtNtNtNtCs5fsojcNSbun_4core4iter6traits7collect12FromIteratorBG_E9from_iterINtNtNtB1u_8adapters3map3MapINtNtB2G_6filter6FilterINtNtB2G_9enumerate9EnumerateINtNtNtB1w_5slice4iter4IterNtNtNtCs39Y7jx17GSw_12serde_derive9internals3ast7VariantEENCNvNtB4q_2de34deserialize_adjacently_tagged_enum0ENCB5i_s_0EEB4q_, symObjAddr: 0x2A98, symBinAddr: 0x74108, symSize: 0x34 }
  - { offsetInCU: 0xACA9, offset: 0x7DF21, size: 0x8, addend: 0x0, symName: __RINvXsd_NtCsltZDfVD1VKL_5alloc3vecINtB6_3VecNtCs5CKmLD4IrHZ_11proc_macro211TokenStreamEINtNtNtNtCs5fsojcNSbun_4core4iter6traits7collect12FromIteratorBG_E9from_iterINtNtNtB1u_8adapters3map3MapINtNtB2G_6filter6FilterINtNtNtB1w_5slice4iter4IterNtNtNtCs39Y7jx17GSw_12serde_derive9internals3ast5FieldENCNvNtB3X_3ser24serialize_struct_visitor0ENCB4M_s_0EEB3X_, symObjAddr: 0x2ACC, symBinAddr: 0x7413C, symSize: 0x34 }
  - { offsetInCU: 0xACEA, offset: 0x7DF62, size: 0x8, addend: 0x0, symName: __RINvXsd_NtCsltZDfVD1VKL_5alloc3vecINtB6_3VecNtCs5CKmLD4IrHZ_11proc_macro211TokenStreamEINtNtNtNtCs5fsojcNSbun_4core4iter6traits7collect12FromIteratorBG_E9from_iterINtNtNtB1u_8adapters3map3MapINtNtB2G_9enumerate9EnumerateINtNtNtB1w_5slice4iter4IterNtNtNtCs39Y7jx17GSw_12serde_derive9internals3ast7VariantEENCNvNtB43_3ser14serialize_enum0EEB43_, symObjAddr: 0x2B00, symBinAddr: 0x74170, symSize: 0x34 }
  - { offsetInCU: 0xAD2B, offset: 0x7DFA3, size: 0x8, addend: 0x0, symName: __RINvXsd_NtCsltZDfVD1VKL_5alloc3vecINtB6_3VecNtCs5CKmLD4IrHZ_11proc_macro211TokenStreamEINtNtNtNtCs5fsojcNSbun_4core4iter6traits7collect12FromIteratorBG_E9from_iterINtNtNtB1u_8adapters3map3MapINtNtNtB1w_5slice4iter4IterNtNtNtCs39Y7jx17GSw_12serde_derive9internals3ast5FieldENCNvNtB3A_3ser27wrap_serialize_variant_withs_0EEB3A_, symObjAddr: 0x2B34, symBinAddr: 0x741A4, symSize: 0x38 }
  - { offsetInCU: 0xAD6B, offset: 0x7DFE3, size: 0x8, addend: 0x0, symName: __RINvXsd_NtCsltZDfVD1VKL_5alloc3vecINtB6_3VecNtCs5CKmLD4IrHZ_11proc_macro25IdentEINtNtNtNtCs5fsojcNSbun_4core4iter6traits7collect12FromIteratorBG_E9from_iterINtNtNtB1n_8adapters3map3MapINtNtNtB1p_3ops5range5RangejENCNCNvNtCs39Y7jx17GSw_12serde_derive7pretend21pretend_variants_used00EEB3x_, symObjAddr: 0x2B6C, symBinAddr: 0x741DC, symSize: 0x30 }
  - { offsetInCU: 0xADAB, offset: 0x7E023, size: 0x8, addend: 0x0, symName: __RINvXsd_NtCsltZDfVD1VKL_5alloc3vecINtB6_3VecNtNtCs5GBHJSLTkJw_3syn4expr6MemberEINtNtNtNtCs5fsojcNSbun_4core4iter6traits7collect12FromIteratorBG_E9from_iterINtNtNtB1m_8adapters3map3MapINtNtNtB1o_3ops5range5RangejENCNvNtCs39Y7jx17GSw_12serde_derive3ser35serialize_adjacently_tagged_variants_0EEB3u_, symObjAddr: 0x2B9C, symBinAddr: 0x7420C, symSize: 0x30 }
  - { offsetInCU: 0xADEB, offset: 0x7E063, size: 0x8, addend: 0x0, symName: __RINvXsd_NtCsltZDfVD1VKL_5alloc3vecINtB6_3VecNtNtCs5GBHJSLTkJw_3syn4expr6MemberEINtNtNtNtCs5fsojcNSbun_4core4iter6traits7collect12FromIteratorBG_E9from_iterINtNtNtB1m_8adapters3map3MapINtNtNtB1o_5slice4iter4IterNtNtNtCs39Y7jx17GSw_12serde_derive9internals3ast5FieldENCNvNtB3s_3ser35serialize_adjacently_tagged_variants0_0EEB3s_, symObjAddr: 0x2BCC, symBinAddr: 0x7423C, symSize: 0x38 }
  - { offsetInCU: 0xAE2B, offset: 0x7E0A3, size: 0x8, addend: 0x0, symName: __RINvXsd_NtCsltZDfVD1VKL_5alloc3vecINtB6_3VecNtNtCs5GBHJSLTkJw_3syn8generics14WherePredicateEINtNtNtNtCs5fsojcNSbun_4core4iter6traits7collect12FromIteratorBG_E9from_iterINtNtBK_10punctuated10PunctuatedBG_NtNtBK_5token5CommaEECs39Y7jx17GSw_12serde_derive, symObjAddr: 0x2C04, symBinAddr: 0x74274, symSize: 0x34 }
  - { offsetInCU: 0xAE6C, offset: 0x7E0E4, size: 0x8, addend: 0x0, symName: __RINvXsd_NtCsltZDfVD1VKL_5alloc3vecINtB6_3VecNtNtNtCs39Y7jx17GSw_12serde_derive9internals3ast5FieldEINtNtNtNtCs5fsojcNSbun_4core4iter6traits7collect12FromIteratorBG_E9from_iterINtNtNtB1G_8adapters3map3MapINtNtB2S_9enumerate9EnumerateINtNtCs5GBHJSLTkJw_3syn10punctuated4IterNtNtB3N_4data5FieldEENCNvBI_15fields_from_ast0EEBM_, symObjAddr: 0x2C38, symBinAddr: 0x742A8, symSize: 0x34 }
  - { offsetInCU: 0xAEAD, offset: 0x7E125, size: 0x8, addend: 0x0, symName: __RINvXsd_NtCsltZDfVD1VKL_5alloc3vecINtB6_3VecNtNtNtCs39Y7jx17GSw_12serde_derive9internals3ast7VariantEINtNtNtNtCs5fsojcNSbun_4core4iter6traits7collect12FromIteratorBG_E9from_iterINtNtNtB1I_8adapters3map3MapINtNtCs5GBHJSLTkJw_3syn10punctuated4IterNtNtB3m_4data7VariantENCNvBI_13enum_from_ast0EEBM_, symObjAddr: 0x2C6C, symBinAddr: 0x742DC, symSize: 0x34 }
  - { offsetInCU: 0xAEEE, offset: 0x7E166, size: 0x8, addend: 0x0, symName: __RINvXsd_NtCsltZDfVD1VKL_5alloc3vecINtB6_3VecRNtCs5CKmLD4IrHZ_11proc_macro25IdentEINtNtNtNtCs5fsojcNSbun_4core4iter6traits7collect12FromIteratorBG_E9from_iterINtNtNtB1o_8adapters3map3MapINtNtNtB1q_5slice4iter4IterTReBH_RINtNtNtNtB8_11collections5btree3set8BTreeSetNtNtB8_6string6StringEEENCNvNtCs39Y7jx17GSw_12serde_derive2de32deserialize_generated_identifier0EEB4H_, symObjAddr: 0x2CA0, symBinAddr: 0x74310, symSize: 0x38 }
  - { offsetInCU: 0xAF2E, offset: 0x7E1A6, size: 0x8, addend: 0x0, symName: __RINvXsd_NtCsltZDfVD1VKL_5alloc3vecINtB6_3VecRNtNtCs5GBHJSLTkJw_3syn2ty4TypeEINtNtNtNtCs5fsojcNSbun_4core4iter6traits7collect12FromIteratorBG_E9from_iterINtNtNtB1j_8adapters3map3MapINtNtNtB1l_5slice4iter4IterNtNtNtCs39Y7jx17GSw_12serde_derive9internals3ast5FieldENCNvNtB3p_3ser27wrap_serialize_variant_with0EEB3p_, symObjAddr: 0x2CD8, symBinAddr: 0x74348, symSize: 0x38 }
  - { offsetInCU: 0xAF6E, offset: 0x7E1E6, size: 0x8, addend: 0x0, symName: __RINvXsd_NtCsltZDfVD1VKL_5alloc3vecINtB6_3VecRNtNtCs5GBHJSLTkJw_3syn4expr6MemberEINtNtNtNtCs5fsojcNSbun_4core4iter6traits7collect12FromIteratorBG_E9from_iterINtNtNtB1n_8adapters3map3MapINtNtNtB1p_5slice4iter4IterNtNtNtCs39Y7jx17GSw_12serde_derive9internals3ast5FieldENCNvNtB3t_3ser37serialize_struct_variant_with_flattens0_0EEB3t_, symObjAddr: 0x2D10, symBinAddr: 0x74380, symSize: 0x38 }
  - { offsetInCU: 0xAFAE, offset: 0x7E226, size: 0x8, addend: 0x0, symName: __RINvXsd_NtCsltZDfVD1VKL_5alloc3vecINtB6_3VecRNtNtCs5GBHJSLTkJw_3syn4expr6MemberEINtNtNtNtCs5fsojcNSbun_4core4iter6traits7collect12FromIteratorBG_E9from_iterINtNtNtB1n_8adapters3map3MapINtNtNtB1p_5slice4iter4IterNtNtNtCs39Y7jx17GSw_12serde_derive9internals3ast5FieldENCNvNtB3t_7pretend33pretend_fields_used_struct_packed0EEB3t_, symObjAddr: 0x2D48, symBinAddr: 0x743B8, symSize: 0x38 }
  - { offsetInCU: 0xAFEE, offset: 0x7E266, size: 0x8, addend: 0x0, symName: __RINvXsd_NtCsltZDfVD1VKL_5alloc3vecINtB6_3VecTRNtNtNtCs39Y7jx17GSw_12serde_derive9internals3ast5FieldNtCs5CKmLD4IrHZ_11proc_macro25IdentEEINtNtNtNtCs5fsojcNSbun_4core4iter6traits7collect12FromIteratorBG_E9from_iterINtNtNtB2i_8adapters3map3MapINtNtB3u_9enumerate9EnumerateINtNtNtB2k_5slice4iter4IterBI_EENCNvNtBO_2de15deserialize_map0EEBO_, symObjAddr: 0x2D80, symBinAddr: 0x743F0, symSize: 0x34 }
  - { offsetInCU: 0xB02F, offset: 0x7E2A7, size: 0x8, addend: 0x0, symName: __RINvXsd_NtCsltZDfVD1VKL_5alloc3vecINtB6_3VecTReNtCs5CKmLD4IrHZ_11proc_macro25IdentRINtNtNtNtB8_11collections5btree3set8BTreeSetNtNtB8_6string6StringEEEINtNtNtNtCs5fsojcNSbun_4core4iter6traits7collect12FromIteratorBG_E9from_iterINtNtNtB2w_8adapters3map3MapINtNtB3I_6filter6FilterINtNtB3I_9enumerate9EnumerateINtNtNtB2y_5slice4iter4IterNtNtNtCs39Y7jx17GSw_12serde_derive9internals3ast5FieldEENCNvNtB5s_2de18deserialize_struct0ENCB6i_s_0EEB5s_, symObjAddr: 0x2DB4, symBinAddr: 0x74424, symSize: 0x34 }
  - { offsetInCU: 0xB070, offset: 0x7E2E8, size: 0x8, addend: 0x0, symName: __RINvXsd_NtCsltZDfVD1VKL_5alloc3vecINtB6_3VecTReNtCs5CKmLD4IrHZ_11proc_macro25IdentRINtNtNtNtB8_11collections5btree3set8BTreeSetNtNtB8_6string6StringEEEINtNtNtNtCs5fsojcNSbun_4core4iter6traits7collect12FromIteratorBG_E9from_iterINtNtNtB2w_8adapters3map3MapINtNtB3I_6filter6FilterINtNtB3I_9enumerate9EnumerateINtNtNtB2y_5slice4iter4IterNtNtNtCs39Y7jx17GSw_12serde_derive9internals3ast7VariantEENCNvNtB5s_2de25prepare_enum_variant_enum0ENCB6k_s_0EEB5s_, symObjAddr: 0x2DE8, symBinAddr: 0x74458, symSize: 0x34 }
  - { offsetInCU: 0xB0B1, offset: 0x7E329, size: 0x8, addend: 0x0, symName: __RINvXsd_NtCsltZDfVD1VKL_5alloc3vecINtB6_3VecTReNtCs5CKmLD4IrHZ_11proc_macro25IdentRINtNtNtNtB8_11collections5btree3set8BTreeSetNtNtB8_6string6StringEEEINtNtNtNtCs5fsojcNSbun_4core4iter6traits7collect12FromIteratorBG_E9from_iterINtNtNtB2w_8adapters3map3MapINtNtNtB2y_5slice4iter4IterNtNtNtCs39Y7jx17GSw_12serde_derive9internals3ast7VariantENCNvNtB4C_2de29deserialize_custom_identifiers_0EEB4C_, symObjAddr: 0x2E1C, symBinAddr: 0x7448C, symSize: 0x38 }
  - { offsetInCU: 0xB0F7, offset: 0x7E36F, size: 0x8, addend: 0x0, symName: __RINvXsh_NtCsltZDfVD1VKL_5alloc3vecINtB6_3VecNtNtCs5GBHJSLTkJw_3syn8generics12GenericParamEINtNtNtNtCs5fsojcNSbun_4core4iter6traits7collect6ExtendBG_E6extendINtNtB1z_6option6OptionBG_EECs39Y7jx17GSw_12serde_derive, symObjAddr: 0x2E54, symBinAddr: 0x744C4, symSize: 0x48 }
  - { offsetInCU: 0xB14C, offset: 0x7E3C4, size: 0x8, addend: 0x0, symName: __RINvXsh_NtCsltZDfVD1VKL_5alloc3vecINtB6_3VecNtNtCs5GBHJSLTkJw_3syn8generics12GenericParamEINtNtNtNtCs5fsojcNSbun_4core4iter6traits7collect6ExtendBG_E6extendINtNtNtB1x_8adapters3map3MapINtNtB6_9into_iter8IntoIterTBG_NtNtBK_5token5CommaEENCNvXs4_NtBK_10punctuatedINtB3U_10PunctuatedBG_B3r_ENtB1t_12IntoIterator9into_iter0EECs39Y7jx17GSw_12serde_derive, symObjAddr: 0x2E9C, symBinAddr: 0x7450C, symSize: 0x40 }
  - { offsetInCU: 0xB1A1, offset: 0x7E419, size: 0x8, addend: 0x0, symName: __RINvXsh_NtCsltZDfVD1VKL_5alloc3vecINtB6_3VecNtNtCs5GBHJSLTkJw_3syn8generics14WherePredicateEINtNtNtNtCs5fsojcNSbun_4core4iter6traits7collect6ExtendBG_E6extendINtNtB1B_6option6OptionBG_EECs39Y7jx17GSw_12serde_derive, symObjAddr: 0x2EDC, symBinAddr: 0x7454C, symSize: 0x48 }
  - { offsetInCU: 0xB1F6, offset: 0x7E46E, size: 0x8, addend: 0x0, symName: __RINvXsh_NtCsltZDfVD1VKL_5alloc3vecINtB6_3VecNtNtCs5GBHJSLTkJw_3syn8generics14WherePredicateEINtNtNtNtCs5fsojcNSbun_4core4iter6traits7collect6ExtendBG_E6extendINtNtNtB1z_8adapters3map3MapINtNtB6_9into_iter8IntoIterTBG_NtNtBK_5token5CommaEENCNvXs4_NtBK_10punctuatedINtB3W_10PunctuatedBG_B3t_ENtB1v_12IntoIterator9into_iter0EECs39Y7jx17GSw_12serde_derive, symObjAddr: 0x2F24, symBinAddr: 0x74594, symSize: 0x40 }
  - { offsetInCU: 0xB256, offset: 0x7E4CE, size: 0x8, addend: 0x0, symName: __RNCINvMsi_NtCsltZDfVD1VKL_5alloc3vecINtB8_3VecNtCs5CKmLD4IrHZ_11proc_macro211TokenStreamE14extend_trustedINtNtNtNtCs5fsojcNSbun_4core4iter8adapters3map3MapINtNtB1K_9enumerate9EnumerateINtNtNtB1O_5slice4iter4IterNtNtNtCs39Y7jx17GSw_12serde_derive9internals3ast7VariantEENCNvNtB3t_3ser14serialize_enum0EE0B3t_, symObjAddr: 0x2F64, symBinAddr: 0x745D4, symSize: 0x64 }
  - { offsetInCU: 0xB378, offset: 0x7E5F0, size: 0x8, addend: 0x0, symName: __RNCINvMsi_NtCsltZDfVD1VKL_5alloc3vecINtB8_3VecNtCs5CKmLD4IrHZ_11proc_macro211TokenStreamE14extend_trustedINtNtNtNtCs5fsojcNSbun_4core4iter8adapters3map3MapINtNtNtB1O_5slice4iter4IterNtNtNtCs39Y7jx17GSw_12serde_derive9internals3ast5FieldENCNvNtB30_3ser27wrap_serialize_variant_withs_0EE0B30_, symObjAddr: 0x2FC8, symBinAddr: 0x74638, symSize: 0x64 }
  - { offsetInCU: 0xB49A, offset: 0x7E712, size: 0x8, addend: 0x0, symName: __RNCINvMsi_NtCsltZDfVD1VKL_5alloc3vecINtB8_3VecNtCs5CKmLD4IrHZ_11proc_macro25IdentE14extend_trustedINtNtNtNtCs5fsojcNSbun_4core4iter8adapters3map3MapINtNtNtB1H_3ops5range5RangejENCNCNvNtCs39Y7jx17GSw_12serde_derive7pretend21pretend_variants_used00EE0B2X_, symObjAddr: 0x302C, symBinAddr: 0x7469C, symSize: 0x64 }
  - { offsetInCU: 0xB5BC, offset: 0x7E834, size: 0x8, addend: 0x0, symName: __RNCINvMsi_NtCsltZDfVD1VKL_5alloc3vecINtB8_3VecNtNtCs5GBHJSLTkJw_3syn4expr6MemberE14extend_trustedINtNtNtNtCs5fsojcNSbun_4core4iter8adapters3map3MapINtNtNtB1G_3ops5range5RangejENCNvNtCs39Y7jx17GSw_12serde_derive3ser35serialize_adjacently_tagged_variants_0EE0B2U_, symObjAddr: 0x3090, symBinAddr: 0x74700, symSize: 0x64 }
  - { offsetInCU: 0xB6DE, offset: 0x7E956, size: 0x8, addend: 0x0, symName: __RNCINvMsi_NtCsltZDfVD1VKL_5alloc3vecINtB8_3VecNtNtCs5GBHJSLTkJw_3syn4expr6MemberE14extend_trustedINtNtNtNtCs5fsojcNSbun_4core4iter8adapters3map3MapINtNtNtB1G_5slice4iter4IterNtNtNtCs39Y7jx17GSw_12serde_derive9internals3ast5FieldENCNvNtB2S_3ser35serialize_adjacently_tagged_variants0_0EE0B2S_, symObjAddr: 0x30F4, symBinAddr: 0x74764, symSize: 0x64 }
  - { offsetInCU: 0xB800, offset: 0x7EA78, size: 0x8, addend: 0x0, symName: __RNCINvMsi_NtCsltZDfVD1VKL_5alloc3vecINtB8_3VecNtNtCs5GBHJSLTkJw_3syn8generics12GenericParamE14extend_trustedINtNtCs5fsojcNSbun_4core6option8IntoIterBI_EE0Cs39Y7jx17GSw_12serde_derive, symObjAddr: 0x3158, symBinAddr: 0x747C8, symSize: 0x78 }
  - { offsetInCU: 0xB923, offset: 0x7EB9B, size: 0x8, addend: 0x0, symName: __RNCINvMsi_NtCsltZDfVD1VKL_5alloc3vecINtB8_3VecNtNtCs5GBHJSLTkJw_3syn8generics12GenericParamE14extend_trustedINtNtNtNtCs5fsojcNSbun_4core4iter8adapters3map3MapINtNtB8_9into_iter8IntoIterTBI_NtNtBM_5token5CommaEENCNvXs4_NtBM_10punctuatedINtB3u_10PunctuatedBI_B31_ENtNtNtB1P_6traits7collect12IntoIterator9into_iter0EE0Cs39Y7jx17GSw_12serde_derive, symObjAddr: 0x31D0, symBinAddr: 0x74840, symSize: 0x78 }
  - { offsetInCU: 0xBA46, offset: 0x7ECBE, size: 0x8, addend: 0x0, symName: __RNCINvMsi_NtCsltZDfVD1VKL_5alloc3vecINtB8_3VecNtNtCs5GBHJSLTkJw_3syn8generics14WherePredicateE14extend_trustedINtNtCs5fsojcNSbun_4core6option8IntoIterBI_EE0Cs39Y7jx17GSw_12serde_derive, symObjAddr: 0x3248, symBinAddr: 0x748B8, symSize: 0x78 }
  - { offsetInCU: 0xBB69, offset: 0x7EDE1, size: 0x8, addend: 0x0, symName: __RNCINvMsi_NtCsltZDfVD1VKL_5alloc3vecINtB8_3VecNtNtCs5GBHJSLTkJw_3syn8generics14WherePredicateE14extend_trustedINtNtNtNtCs5fsojcNSbun_4core4iter8adapters3map3MapINtNtB8_9into_iter8IntoIterTBI_NtNtBM_5token5CommaEENCNvXs4_NtBM_10punctuatedINtB3w_10PunctuatedBI_B33_ENtNtNtB1R_6traits7collect12IntoIterator9into_iter0EE0Cs39Y7jx17GSw_12serde_derive, symObjAddr: 0x32C0, symBinAddr: 0x74930, symSize: 0x78 }
  - { offsetInCU: 0xBC8C, offset: 0x7EF04, size: 0x8, addend: 0x0, symName: __RNCINvMsi_NtCsltZDfVD1VKL_5alloc3vecINtB8_3VecRNtCs5CKmLD4IrHZ_11proc_macro25IdentE14extend_trustedINtNtNtNtCs5fsojcNSbun_4core4iter8adapters3map3MapINtNtNtB1I_5slice4iter4IterTReBJ_RINtNtNtNtBa_11collections5btree3set8BTreeSetNtNtBa_6string6StringEEENCNvNtCs39Y7jx17GSw_12serde_derive2de32deserialize_generated_identifier0EE0B47_, symObjAddr: 0x3338, symBinAddr: 0x749A8, symSize: 0x60 }
  - { offsetInCU: 0xBDAD, offset: 0x7F025, size: 0x8, addend: 0x0, symName: __RNCINvMsi_NtCsltZDfVD1VKL_5alloc3vecINtB8_3VecRNtNtCs5GBHJSLTkJw_3syn2ty4TypeE14extend_trustedINtNtNtNtCs5fsojcNSbun_4core4iter8adapters3map3MapINtNtNtB1D_5slice4iter4IterNtNtNtCs39Y7jx17GSw_12serde_derive9internals3ast5FieldENCNvNtB2P_3ser27wrap_serialize_variant_with0EE0B2P_, symObjAddr: 0x3398, symBinAddr: 0x74A08, symSize: 0x60 }
  - { offsetInCU: 0xBECE, offset: 0x7F146, size: 0x8, addend: 0x0, symName: __RNCINvMsi_NtCsltZDfVD1VKL_5alloc3vecINtB8_3VecRNtNtCs5GBHJSLTkJw_3syn4expr6MemberE14extend_trustedINtNtNtNtCs5fsojcNSbun_4core4iter8adapters3map3MapINtNtNtB1H_5slice4iter4IterNtNtNtCs39Y7jx17GSw_12serde_derive9internals3ast5FieldENCNvNtB2T_3ser37serialize_struct_variant_with_flattens0_0EE0B2T_, symObjAddr: 0x33F8, symBinAddr: 0x74A68, symSize: 0x60 }
  - { offsetInCU: 0xBFEF, offset: 0x7F267, size: 0x8, addend: 0x0, symName: __RNCINvMsi_NtCsltZDfVD1VKL_5alloc3vecINtB8_3VecRNtNtCs5GBHJSLTkJw_3syn4expr6MemberE14extend_trustedINtNtNtNtCs5fsojcNSbun_4core4iter8adapters3map3MapINtNtNtB1H_5slice4iter4IterNtNtNtCs39Y7jx17GSw_12serde_derive9internals3ast5FieldENCNvNtB2T_7pretend33pretend_fields_used_struct_packed0EE0B2T_, symObjAddr: 0x3458, symBinAddr: 0x74AC8, symSize: 0x60 }
  - { offsetInCU: 0xC110, offset: 0x7F388, size: 0x8, addend: 0x0, symName: __RNCINvMsi_NtCsltZDfVD1VKL_5alloc3vecINtB8_3VecTRNtNtNtCs39Y7jx17GSw_12serde_derive9internals3ast5FieldNtCs5CKmLD4IrHZ_11proc_macro25IdentEE14extend_trustedINtNtNtNtCs5fsojcNSbun_4core4iter8adapters3map3MapINtNtB2y_9enumerate9EnumerateINtNtNtB2C_5slice4iter4IterBK_EENCNvNtBQ_2de15deserialize_map0EE0BQ_, symObjAddr: 0x34B8, symBinAddr: 0x74B28, symSize: 0x78 }
  - { offsetInCU: 0xC233, offset: 0x7F4AB, size: 0x8, addend: 0x0, symName: __RNCINvMsi_NtCsltZDfVD1VKL_5alloc3vecINtB8_3VecTReNtCs5CKmLD4IrHZ_11proc_macro25IdentRINtNtNtNtBa_11collections5btree3set8BTreeSetNtNtBa_6string6StringEEE14extend_trustedINtNtNtNtCs5fsojcNSbun_4core4iter8adapters3map3MapINtNtNtB2Q_5slice4iter4IterNtNtNtCs39Y7jx17GSw_12serde_derive9internals3ast7VariantENCNvNtB42_2de29deserialize_custom_identifiers_0EE0B42_, symObjAddr: 0x3530, symBinAddr: 0x74BA0, symSize: 0x78 }
  - { offsetInCU: 0xC841, offset: 0x7FAB9, size: 0x8, addend: 0x0, symName: __RNvXs6_NtCsltZDfVD1VKL_5alloc3vecINtB5_3VecNtCs5CKmLD4IrHZ_11proc_macro211TokenStreamENtNtNtCs5fsojcNSbun_4core3ops5deref5Deref5derefCs39Y7jx17GSw_12serde_derive, symObjAddr: 0x63E8, symBinAddr: 0x77A58, symSize: 0x74 }
  - { offsetInCU: 0xC9C3, offset: 0x7FC3B, size: 0x8, addend: 0x0, symName: __RNvXs6_NtCsltZDfVD1VKL_5alloc3vecINtB5_3VecNtCs5CKmLD4IrHZ_11proc_macro25IdentENtNtNtCs5fsojcNSbun_4core3ops5deref5Deref5derefCs39Y7jx17GSw_12serde_derive, symObjAddr: 0x645C, symBinAddr: 0x77ACC, symSize: 0x74 }
  - { offsetInCU: 0xCB45, offset: 0x7FDBD, size: 0x8, addend: 0x0, symName: __RNvXs6_NtCsltZDfVD1VKL_5alloc3vecINtB5_3VecNtNtCs5GBHJSLTkJw_3syn4expr6MemberENtNtNtCs5fsojcNSbun_4core3ops5deref5Deref5derefCs39Y7jx17GSw_12serde_derive, symObjAddr: 0x64D0, symBinAddr: 0x77B40, symSize: 0x74 }
  - { offsetInCU: 0xCCC7, offset: 0x7FF3F, size: 0x8, addend: 0x0, symName: __RNvXs6_NtCsltZDfVD1VKL_5alloc3vecINtB5_3VecNtNtNtCs39Y7jx17GSw_12serde_derive9internals3ast5FieldENtNtNtCs5fsojcNSbun_4core3ops5deref5Deref5derefBL_, symObjAddr: 0x6544, symBinAddr: 0x77BB4, symSize: 0x74 }
  - { offsetInCU: 0xCE49, offset: 0x800C1, size: 0x8, addend: 0x0, symName: __RNvXs6_NtCsltZDfVD1VKL_5alloc3vecINtB5_3VecNtNtNtCs39Y7jx17GSw_12serde_derive9internals3ast7VariantENtNtNtCs5fsojcNSbun_4core3ops5deref5Deref5derefBL_, symObjAddr: 0x65B8, symBinAddr: 0x77C28, symSize: 0x74 }
  - { offsetInCU: 0xCFCB, offset: 0x80243, size: 0x8, addend: 0x0, symName: __RNvXs6_NtCsltZDfVD1VKL_5alloc3vecINtB5_3VecRNtCs5CKmLD4IrHZ_11proc_macro25IdentENtNtNtCs5fsojcNSbun_4core3ops5deref5Deref5derefCs39Y7jx17GSw_12serde_derive, symObjAddr: 0x662C, symBinAddr: 0x77C9C, symSize: 0x70 }
  - { offsetInCU: 0xD14D, offset: 0x803C5, size: 0x8, addend: 0x0, symName: __RNvXs6_NtCsltZDfVD1VKL_5alloc3vecINtB5_3VecRNtNtCs5GBHJSLTkJw_3syn4expr6MemberENtNtNtCs5fsojcNSbun_4core3ops5deref5Deref5derefCs39Y7jx17GSw_12serde_derive, symObjAddr: 0x669C, symBinAddr: 0x77D0C, symSize: 0x70 }
  - { offsetInCU: 0xD2CF, offset: 0x80547, size: 0x8, addend: 0x0, symName: __RNvXs6_NtCsltZDfVD1VKL_5alloc3vecINtB5_3VecTRNtNtNtCs39Y7jx17GSw_12serde_derive9internals3ast5FieldNtCs5CKmLD4IrHZ_11proc_macro25IdentEENtNtNtCs5fsojcNSbun_4core3ops5deref5Deref5derefBN_, symObjAddr: 0x670C, symBinAddr: 0x77D7C, symSize: 0x74 }
  - { offsetInCU: 0xD451, offset: 0x806C9, size: 0x8, addend: 0x0, symName: __RNvXs6_NtCsltZDfVD1VKL_5alloc3vecINtB5_3VecTReNtCs5CKmLD4IrHZ_11proc_macro25IdentRINtNtNtNtB7_11collections5btree3set8BTreeSetNtNtB7_6string6StringEEENtNtNtCs5fsojcNSbun_4core3ops5deref5Deref5derefCs39Y7jx17GSw_12serde_derive, symObjAddr: 0x6780, symBinAddr: 0x77DF0, symSize: 0x74 }
  - { offsetInCU: 0xD76E, offset: 0x809E6, size: 0x8, addend: 0x0, symName: __RNvXNtNtCsltZDfVD1VKL_5alloc3vec11spec_extendINtB4_3VecNtCs5CKmLD4IrHZ_11proc_macro211TokenStreamEINtB2_10SpecExtendBR_INtNtNtNtCs5fsojcNSbun_4core4iter8adapters10filter_map9FilterMapINtNtB1Y_6filter6FilterINtNtB1Y_9enumerate9EnumerateINtNtNtB22_5slice4iter4IterNtNtNtCs39Y7jx17GSw_12serde_derive9internals3ast7VariantEENCNvNtB4i_2de34deserialize_adjacently_tagged_enums0_0ENCB5a_s1_0EE11spec_extendB4i_, symObjAddr: 0x4700, symBinAddr: 0x75D70, symSize: 0x24 }
  - { offsetInCU: 0xD7C0, offset: 0x80A38, size: 0x8, addend: 0x0, symName: __RNvXNtNtCsltZDfVD1VKL_5alloc3vec11spec_extendINtB4_3VecNtCs5CKmLD4IrHZ_11proc_macro211TokenStreamEINtB2_10SpecExtendBR_INtNtNtNtCs5fsojcNSbun_4core4iter8adapters10filter_map9FilterMapINtNtNtB22_5slice4iter4IterNtNtNtCs39Y7jx17GSw_12serde_derive9internals3ast7VariantENCNvNtB3s_7pretend24pretend_fields_used_enum0EE11spec_extendB3s_, symObjAddr: 0x4724, symBinAddr: 0x75D94, symSize: 0x24 }
  - { offsetInCU: 0xD812, offset: 0x80A8A, size: 0x8, addend: 0x0, symName: __RNvXNtNtCsltZDfVD1VKL_5alloc3vec11spec_extendINtB4_3VecNtCs5CKmLD4IrHZ_11proc_macro211TokenStreamEINtB2_10SpecExtendBR_INtNtNtNtCs5fsojcNSbun_4core4iter8adapters3map3MapINtNtB1Y_6filter6FilterINtNtB1Y_9enumerate9EnumerateINtNtNtB22_5slice4iter4IterNtNtNtCs39Y7jx17GSw_12serde_derive9internals3ast5FieldEENCNvNtB44_3ser30serialize_tuple_struct_visitor0ENCB4U_s_0EE11spec_extendB44_, symObjAddr: 0x4748, symBinAddr: 0x75DB8, symSize: 0x24 }
  - { offsetInCU: 0xD864, offset: 0x80ADC, size: 0x8, addend: 0x0, symName: __RNvXNtNtCsltZDfVD1VKL_5alloc3vec11spec_extendINtB4_3VecNtCs5CKmLD4IrHZ_11proc_macro211TokenStreamEINtB2_10SpecExtendBR_INtNtNtNtCs5fsojcNSbun_4core4iter8adapters3map3MapINtNtB1Y_6filter6FilterINtNtB1Y_9enumerate9EnumerateINtNtNtB22_5slice4iter4IterNtNtNtCs39Y7jx17GSw_12serde_derive9internals3ast7VariantEENCNvNtB44_2de34deserialize_adjacently_tagged_enum0ENCB4W_s_0EE11spec_extendB44_, symObjAddr: 0x476C, symBinAddr: 0x75DDC, symSize: 0x24 }
  - { offsetInCU: 0xD8B6, offset: 0x80B2E, size: 0x8, addend: 0x0, symName: __RNvXNtNtCsltZDfVD1VKL_5alloc3vec11spec_extendINtB4_3VecNtCs5CKmLD4IrHZ_11proc_macro211TokenStreamEINtB2_10SpecExtendBR_INtNtNtNtCs5fsojcNSbun_4core4iter8adapters3map3MapINtNtB1Y_6filter6FilterINtNtNtB22_5slice4iter4IterNtNtNtCs39Y7jx17GSw_12serde_derive9internals3ast5FieldENCNvNtB3B_3ser24serialize_struct_visitor0ENCB4q_s_0EE11spec_extendB3B_, symObjAddr: 0x4790, symBinAddr: 0x75E00, symSize: 0x24 }
  - { offsetInCU: 0xD908, offset: 0x80B80, size: 0x8, addend: 0x0, symName: __RNvXNtNtCsltZDfVD1VKL_5alloc3vec11spec_extendINtB4_3VecNtNtCs5GBHJSLTkJw_3syn8generics14WherePredicateEINtB2_10SpecExtendBR_INtNtBV_10punctuated8IntoIterBR_EE11spec_extendCs39Y7jx17GSw_12serde_derive, symObjAddr: 0x47B4, symBinAddr: 0x75E24, symSize: 0x24 }
  - { offsetInCU: 0xD95A, offset: 0x80BD2, size: 0x8, addend: 0x0, symName: __RNvXNtNtCsltZDfVD1VKL_5alloc3vec11spec_extendINtB4_3VecNtNtNtCs39Y7jx17GSw_12serde_derive9internals3ast5FieldEINtB2_10SpecExtendBR_INtNtNtNtCs5fsojcNSbun_4core4iter8adapters3map3MapINtNtB2a_9enumerate9EnumerateINtNtCs5GBHJSLTkJw_3syn10punctuated4IterNtNtB3r_4data5FieldEENCNvBT_15fields_from_ast0EE11spec_extendBX_, symObjAddr: 0x47D8, symBinAddr: 0x75E48, symSize: 0x24 }
  - { offsetInCU: 0xD9AC, offset: 0x80C24, size: 0x8, addend: 0x0, symName: __RNvXNtNtCsltZDfVD1VKL_5alloc3vec11spec_extendINtB4_3VecNtNtNtCs39Y7jx17GSw_12serde_derive9internals3ast7VariantEINtB2_10SpecExtendBR_INtNtNtNtCs5fsojcNSbun_4core4iter8adapters3map3MapINtNtCs5GBHJSLTkJw_3syn10punctuated4IterNtNtB30_4data7VariantENCNvBT_13enum_from_ast0EE11spec_extendBX_, symObjAddr: 0x47FC, symBinAddr: 0x75E6C, symSize: 0x24 }
  - { offsetInCU: 0xD9FE, offset: 0x80C76, size: 0x8, addend: 0x0, symName: __RNvXNtNtCsltZDfVD1VKL_5alloc3vec11spec_extendINtB4_3VecTReNtCs5CKmLD4IrHZ_11proc_macro25IdentRINtNtNtNtB6_11collections5btree3set8BTreeSetNtNtB6_6string6StringEEEINtB2_10SpecExtendBR_INtNtNtNtCs5fsojcNSbun_4core4iter8adapters3map3MapINtNtB30_6filter6FilterINtNtB30_9enumerate9EnumerateINtNtNtB34_5slice4iter4IterNtNtNtCs39Y7jx17GSw_12serde_derive9internals3ast5FieldEENCNvNtB56_2de18deserialize_struct0ENCB5W_s_0EE11spec_extendB56_, symObjAddr: 0x4820, symBinAddr: 0x75E90, symSize: 0x24 }
  - { offsetInCU: 0xDA50, offset: 0x80CC8, size: 0x8, addend: 0x0, symName: __RNvXNtNtCsltZDfVD1VKL_5alloc3vec11spec_extendINtB4_3VecTReNtCs5CKmLD4IrHZ_11proc_macro25IdentRINtNtNtNtB6_11collections5btree3set8BTreeSetNtNtB6_6string6StringEEEINtB2_10SpecExtendBR_INtNtNtNtCs5fsojcNSbun_4core4iter8adapters3map3MapINtNtB30_6filter6FilterINtNtB30_9enumerate9EnumerateINtNtNtB34_5slice4iter4IterNtNtNtCs39Y7jx17GSw_12serde_derive9internals3ast7VariantEENCNvNtB56_2de25prepare_enum_variant_enum0ENCB5Y_s_0EE11spec_extendB56_, symObjAddr: 0x4844, symBinAddr: 0x75EB4, symSize: 0x24 }
  - { offsetInCU: 0xDAA8, offset: 0x80D20, size: 0x8, addend: 0x0, symName: __RNvXs_NtNtCsltZDfVD1VKL_5alloc3vec11spec_extendINtB6_3VecNtCs5CKmLD4IrHZ_11proc_macro211TokenStreamEINtB4_10SpecExtendBT_INtNtNtNtCs5fsojcNSbun_4core4iter8adapters3map3MapINtNtB20_9enumerate9EnumerateINtNtNtB24_5slice4iter4IterNtNtNtCs39Y7jx17GSw_12serde_derive9internals3ast7VariantEENCNvNtB3J_3ser14serialize_enum0EE11spec_extendB3J_, symObjAddr: 0x6BC0, symBinAddr: 0x78230, symSize: 0x24 }
  - { offsetInCU: 0xDAFA, offset: 0x80D72, size: 0x8, addend: 0x0, symName: __RNvXs_NtNtCsltZDfVD1VKL_5alloc3vec11spec_extendINtB6_3VecNtCs5CKmLD4IrHZ_11proc_macro211TokenStreamEINtB4_10SpecExtendBT_INtNtNtNtCs5fsojcNSbun_4core4iter8adapters3map3MapINtNtNtB24_5slice4iter4IterNtNtNtCs39Y7jx17GSw_12serde_derive9internals3ast5FieldENCNvNtB3g_3ser27wrap_serialize_variant_withs_0EE11spec_extendB3g_, symObjAddr: 0x6BE4, symBinAddr: 0x78254, symSize: 0x34 }
  - { offsetInCU: 0xDB4B, offset: 0x80DC3, size: 0x8, addend: 0x0, symName: __RNvXs_NtNtCsltZDfVD1VKL_5alloc3vec11spec_extendINtB6_3VecNtCs5CKmLD4IrHZ_11proc_macro25IdentEINtB4_10SpecExtendBT_INtNtNtNtCs5fsojcNSbun_4core4iter8adapters3map3MapINtNtNtB1X_3ops5range5RangejENCNCNvNtCs39Y7jx17GSw_12serde_derive7pretend21pretend_variants_used00EE11spec_extendB3d_, symObjAddr: 0x6C18, symBinAddr: 0x78288, symSize: 0x2C }
  - { offsetInCU: 0xDB9C, offset: 0x80E14, size: 0x8, addend: 0x0, symName: __RNvXs_NtNtCsltZDfVD1VKL_5alloc3vec11spec_extendINtB6_3VecNtNtCs5GBHJSLTkJw_3syn4expr6MemberEINtB4_10SpecExtendBT_INtNtNtNtCs5fsojcNSbun_4core4iter8adapters3map3MapINtNtNtB1W_3ops5range5RangejENCNvNtCs39Y7jx17GSw_12serde_derive3ser35serialize_adjacently_tagged_variants_0EE11spec_extendB3a_, symObjAddr: 0x6C44, symBinAddr: 0x782B4, symSize: 0x2C }
  - { offsetInCU: 0xDBED, offset: 0x80E65, size: 0x8, addend: 0x0, symName: __RNvXs_NtNtCsltZDfVD1VKL_5alloc3vec11spec_extendINtB6_3VecNtNtCs5GBHJSLTkJw_3syn4expr6MemberEINtB4_10SpecExtendBT_INtNtNtNtCs5fsojcNSbun_4core4iter8adapters3map3MapINtNtNtB1W_5slice4iter4IterNtNtNtCs39Y7jx17GSw_12serde_derive9internals3ast5FieldENCNvNtB38_3ser35serialize_adjacently_tagged_variants0_0EE11spec_extendB38_, symObjAddr: 0x6C70, symBinAddr: 0x782E0, symSize: 0x34 }
  - { offsetInCU: 0xDC3E, offset: 0x80EB6, size: 0x8, addend: 0x0, symName: __RNvXs_NtNtCsltZDfVD1VKL_5alloc3vec11spec_extendINtB6_3VecNtNtCs5GBHJSLTkJw_3syn8generics12GenericParamEINtB4_10SpecExtendBT_INtNtCs5fsojcNSbun_4core6option8IntoIterBT_EE11spec_extendCs39Y7jx17GSw_12serde_derive, symObjAddr: 0x6CA4, symBinAddr: 0x78314, symSize: 0x24 }
  - { offsetInCU: 0xDC90, offset: 0x80F08, size: 0x8, addend: 0x0, symName: __RNvXs_NtNtCsltZDfVD1VKL_5alloc3vec11spec_extendINtB6_3VecNtNtCs5GBHJSLTkJw_3syn8generics12GenericParamEINtB4_10SpecExtendBT_INtNtNtNtCs5fsojcNSbun_4core4iter8adapters3map3MapINtNtB6_9into_iter8IntoIterTBT_NtNtBX_5token5CommaEENCNvXs4_NtBX_10punctuatedINtB3K_10PunctuatedBT_B3h_ENtNtNtB25_6traits7collect12IntoIterator9into_iter0EE11spec_extendCs39Y7jx17GSw_12serde_derive, symObjAddr: 0x6CC8, symBinAddr: 0x78338, symSize: 0x24 }
  - { offsetInCU: 0xDCE2, offset: 0x80F5A, size: 0x8, addend: 0x0, symName: __RNvXs_NtNtCsltZDfVD1VKL_5alloc3vec11spec_extendINtB6_3VecNtNtCs5GBHJSLTkJw_3syn8generics14WherePredicateEINtB4_10SpecExtendBT_INtNtCs5fsojcNSbun_4core6option8IntoIterBT_EE11spec_extendCs39Y7jx17GSw_12serde_derive, symObjAddr: 0x6CEC, symBinAddr: 0x7835C, symSize: 0x24 }
  - { offsetInCU: 0xDD34, offset: 0x80FAC, size: 0x8, addend: 0x0, symName: __RNvXs_NtNtCsltZDfVD1VKL_5alloc3vec11spec_extendINtB6_3VecNtNtCs5GBHJSLTkJw_3syn8generics14WherePredicateEINtB4_10SpecExtendBT_INtNtNtNtCs5fsojcNSbun_4core4iter8adapters3map3MapINtNtB6_9into_iter8IntoIterTBT_NtNtBX_5token5CommaEENCNvXs4_NtBX_10punctuatedINtB3M_10PunctuatedBT_B3j_ENtNtNtB27_6traits7collect12IntoIterator9into_iter0EE11spec_extendCs39Y7jx17GSw_12serde_derive, symObjAddr: 0x6D10, symBinAddr: 0x78380, symSize: 0x24 }
  - { offsetInCU: 0xDD86, offset: 0x80FFE, size: 0x8, addend: 0x0, symName: __RNvXs_NtNtCsltZDfVD1VKL_5alloc3vec11spec_extendINtB6_3VecRNtCs5CKmLD4IrHZ_11proc_macro25IdentEINtB4_10SpecExtendBT_INtNtNtNtCs5fsojcNSbun_4core4iter8adapters3map3MapINtNtNtB1Y_5slice4iter4IterTReBU_RINtNtNtNtB8_11collections5btree3set8BTreeSetNtNtB8_6string6StringEEENCNvNtCs39Y7jx17GSw_12serde_derive2de32deserialize_generated_identifier0EE11spec_extendB4n_, symObjAddr: 0x6D34, symBinAddr: 0x783A4, symSize: 0x34 }
  - { offsetInCU: 0xDDD7, offset: 0x8104F, size: 0x8, addend: 0x0, symName: __RNvXs_NtNtCsltZDfVD1VKL_5alloc3vec11spec_extendINtB6_3VecRNtNtCs5GBHJSLTkJw_3syn2ty4TypeEINtB4_10SpecExtendBT_INtNtNtNtCs5fsojcNSbun_4core4iter8adapters3map3MapINtNtNtB1T_5slice4iter4IterNtNtNtCs39Y7jx17GSw_12serde_derive9internals3ast5FieldENCNvNtB35_3ser27wrap_serialize_variant_with0EE11spec_extendB35_, symObjAddr: 0x6D68, symBinAddr: 0x783D8, symSize: 0x34 }
  - { offsetInCU: 0xDE28, offset: 0x810A0, size: 0x8, addend: 0x0, symName: __RNvXs_NtNtCsltZDfVD1VKL_5alloc3vec11spec_extendINtB6_3VecRNtNtCs5GBHJSLTkJw_3syn4expr6MemberEINtB4_10SpecExtendBT_INtNtNtNtCs5fsojcNSbun_4core4iter8adapters3map3MapINtNtNtB1X_5slice4iter4IterNtNtNtCs39Y7jx17GSw_12serde_derive9internals3ast5FieldENCNvNtB39_3ser37serialize_struct_variant_with_flattens0_0EE11spec_extendB39_, symObjAddr: 0x6D9C, symBinAddr: 0x7840C, symSize: 0x34 }
  - { offsetInCU: 0xDE79, offset: 0x810F1, size: 0x8, addend: 0x0, symName: __RNvXs_NtNtCsltZDfVD1VKL_5alloc3vec11spec_extendINtB6_3VecRNtNtCs5GBHJSLTkJw_3syn4expr6MemberEINtB4_10SpecExtendBT_INtNtNtNtCs5fsojcNSbun_4core4iter8adapters3map3MapINtNtNtB1X_5slice4iter4IterNtNtNtCs39Y7jx17GSw_12serde_derive9internals3ast5FieldENCNvNtB39_7pretend33pretend_fields_used_struct_packed0EE11spec_extendB39_, symObjAddr: 0x6DD0, symBinAddr: 0x78440, symSize: 0x34 }
  - { offsetInCU: 0xDECA, offset: 0x81142, size: 0x8, addend: 0x0, symName: __RNvXs_NtNtCsltZDfVD1VKL_5alloc3vec11spec_extendINtB6_3VecTRNtNtNtCs39Y7jx17GSw_12serde_derive9internals3ast5FieldNtCs5CKmLD4IrHZ_11proc_macro25IdentEEINtB4_10SpecExtendBT_INtNtNtNtCs5fsojcNSbun_4core4iter8adapters3map3MapINtNtB2O_9enumerate9EnumerateINtNtNtB2S_5slice4iter4IterBV_EENCNvNtB11_2de15deserialize_map0EE11spec_extendB11_, symObjAddr: 0x6E04, symBinAddr: 0x78474, symSize: 0x24 }
  - { offsetInCU: 0xDF1C, offset: 0x81194, size: 0x8, addend: 0x0, symName: __RNvXs_NtNtCsltZDfVD1VKL_5alloc3vec11spec_extendINtB6_3VecTReNtCs5CKmLD4IrHZ_11proc_macro25IdentRINtNtNtNtB8_11collections5btree3set8BTreeSetNtNtB8_6string6StringEEEINtB4_10SpecExtendBT_INtNtNtNtCs5fsojcNSbun_4core4iter8adapters3map3MapINtNtNtB36_5slice4iter4IterNtNtNtCs39Y7jx17GSw_12serde_derive9internals3ast7VariantENCNvNtB4i_2de29deserialize_custom_identifiers_0EE11spec_extendB4i_, symObjAddr: 0x6E28, symBinAddr: 0x78498, symSize: 0x34 }
  - { offsetInCU: 0xDF79, offset: 0x811F1, size: 0x8, addend: 0x0, symName: __RNvXNtNtCsltZDfVD1VKL_5alloc3vec14spec_from_iterINtB4_3VecNtCs5CKmLD4IrHZ_11proc_macro211TokenStreamEINtB2_12SpecFromIterBU_INtNtNtNtCs5fsojcNSbun_4core4iter8adapters10filter_map9FilterMapINtNtB23_6filter6FilterINtNtB23_9enumerate9EnumerateINtNtNtB27_5slice4iter4IterNtNtNtCs39Y7jx17GSw_12serde_derive9internals3ast7VariantEENCNvNtB4n_2de34deserialize_adjacently_tagged_enums0_0ENCB5f_s1_0EE9from_iterB4n_, symObjAddr: 0x4868, symBinAddr: 0x75ED8, symSize: 0x14 }
  - { offsetInCU: 0xDFB8, offset: 0x81230, size: 0x8, addend: 0x0, symName: __RNvXNtNtCsltZDfVD1VKL_5alloc3vec14spec_from_iterINtB4_3VecNtCs5CKmLD4IrHZ_11proc_macro211TokenStreamEINtB2_12SpecFromIterBU_INtNtNtNtCs5fsojcNSbun_4core4iter8adapters10filter_map9FilterMapINtNtNtB27_5slice4iter4IterNtNtNtCs39Y7jx17GSw_12serde_derive9internals3ast7VariantENCNvNtB3x_7pretend24pretend_fields_used_enum0EE9from_iterB3x_, symObjAddr: 0x487C, symBinAddr: 0x75EEC, symSize: 0x14 }
  - { offsetInCU: 0xDFF7, offset: 0x8126F, size: 0x8, addend: 0x0, symName: __RNvXNtNtCsltZDfVD1VKL_5alloc3vec14spec_from_iterINtB4_3VecNtCs5CKmLD4IrHZ_11proc_macro211TokenStreamEINtB2_12SpecFromIterBU_INtNtNtNtCs5fsojcNSbun_4core4iter8adapters3map3MapINtNtB23_6filter6FilterINtNtB23_9enumerate9EnumerateINtNtNtB27_5slice4iter4IterNtNtNtCs39Y7jx17GSw_12serde_derive9internals3ast5FieldEENCNvNtB49_3ser30serialize_tuple_struct_visitor0ENCB4Z_s_0EE9from_iterB49_, symObjAddr: 0x4890, symBinAddr: 0x75F00, symSize: 0x14 }
  - { offsetInCU: 0xE036, offset: 0x812AE, size: 0x8, addend: 0x0, symName: __RNvXNtNtCsltZDfVD1VKL_5alloc3vec14spec_from_iterINtB4_3VecNtCs5CKmLD4IrHZ_11proc_macro211TokenStreamEINtB2_12SpecFromIterBU_INtNtNtNtCs5fsojcNSbun_4core4iter8adapters3map3MapINtNtB23_6filter6FilterINtNtB23_9enumerate9EnumerateINtNtNtB27_5slice4iter4IterNtNtNtCs39Y7jx17GSw_12serde_derive9internals3ast7VariantEENCNvNtB49_2de34deserialize_adjacently_tagged_enum0ENCB51_s_0EE9from_iterB49_, symObjAddr: 0x48A4, symBinAddr: 0x75F14, symSize: 0x14 }
  - { offsetInCU: 0xE075, offset: 0x812ED, size: 0x8, addend: 0x0, symName: __RNvXNtNtCsltZDfVD1VKL_5alloc3vec14spec_from_iterINtB4_3VecNtCs5CKmLD4IrHZ_11proc_macro211TokenStreamEINtB2_12SpecFromIterBU_INtNtNtNtCs5fsojcNSbun_4core4iter8adapters3map3MapINtNtB23_6filter6FilterINtNtNtB27_5slice4iter4IterNtNtNtCs39Y7jx17GSw_12serde_derive9internals3ast5FieldENCNvNtB3G_3ser24serialize_struct_visitor0ENCB4v_s_0EE9from_iterB3G_, symObjAddr: 0x48B8, symBinAddr: 0x75F28, symSize: 0x14 }
  - { offsetInCU: 0xE0B4, offset: 0x8132C, size: 0x8, addend: 0x0, symName: __RNvXNtNtCsltZDfVD1VKL_5alloc3vec14spec_from_iterINtB4_3VecNtCs5CKmLD4IrHZ_11proc_macro211TokenStreamEINtB2_12SpecFromIterBU_INtNtNtNtCs5fsojcNSbun_4core4iter8adapters3map3MapINtNtB23_9enumerate9EnumerateINtNtNtB27_5slice4iter4IterNtNtNtCs39Y7jx17GSw_12serde_derive9internals3ast7VariantEENCNvNtB3M_3ser14serialize_enum0EE9from_iterB3M_, symObjAddr: 0x48CC, symBinAddr: 0x75F3C, symSize: 0x14 }
  - { offsetInCU: 0xE0F3, offset: 0x8136B, size: 0x8, addend: 0x0, symName: __RNvXNtNtCsltZDfVD1VKL_5alloc3vec14spec_from_iterINtB4_3VecNtCs5CKmLD4IrHZ_11proc_macro211TokenStreamEINtB2_12SpecFromIterBU_INtNtNtNtCs5fsojcNSbun_4core4iter8adapters3map3MapINtNtNtB27_5slice4iter4IterNtNtNtCs39Y7jx17GSw_12serde_derive9internals3ast5FieldENCNvNtB3j_3ser27wrap_serialize_variant_withs_0EE9from_iterB3j_, symObjAddr: 0x48E0, symBinAddr: 0x75F50, symSize: 0x2C }
  - { offsetInCU: 0xE131, offset: 0x813A9, size: 0x8, addend: 0x0, symName: __RNvXNtNtCsltZDfVD1VKL_5alloc3vec14spec_from_iterINtB4_3VecNtCs5CKmLD4IrHZ_11proc_macro25IdentEINtB2_12SpecFromIterBU_INtNtNtNtCs5fsojcNSbun_4core4iter8adapters3map3MapINtNtNtB20_3ops5range5RangejENCNCNvNtCs39Y7jx17GSw_12serde_derive7pretend21pretend_variants_used00EE9from_iterB3g_, symObjAddr: 0x490C, symBinAddr: 0x75F7C, symSize: 0x24 }
  - { offsetInCU: 0xE16F, offset: 0x813E7, size: 0x8, addend: 0x0, symName: __RNvXNtNtCsltZDfVD1VKL_5alloc3vec14spec_from_iterINtB4_3VecNtNtCs5GBHJSLTkJw_3syn4expr6MemberEINtB2_12SpecFromIterBU_INtNtNtNtCs5fsojcNSbun_4core4iter8adapters3map3MapINtNtNtB1Z_3ops5range5RangejENCNvNtCs39Y7jx17GSw_12serde_derive3ser35serialize_adjacently_tagged_variants_0EE9from_iterB3d_, symObjAddr: 0x4930, symBinAddr: 0x75FA0, symSize: 0x24 }
  - { offsetInCU: 0xE1AD, offset: 0x81425, size: 0x8, addend: 0x0, symName: __RNvXNtNtCsltZDfVD1VKL_5alloc3vec14spec_from_iterINtB4_3VecNtNtCs5GBHJSLTkJw_3syn4expr6MemberEINtB2_12SpecFromIterBU_INtNtNtNtCs5fsojcNSbun_4core4iter8adapters3map3MapINtNtNtB1Z_5slice4iter4IterNtNtNtCs39Y7jx17GSw_12serde_derive9internals3ast5FieldENCNvNtB3b_3ser35serialize_adjacently_tagged_variants0_0EE9from_iterB3b_, symObjAddr: 0x4954, symBinAddr: 0x75FC4, symSize: 0x2C }
  - { offsetInCU: 0xE1EB, offset: 0x81463, size: 0x8, addend: 0x0, symName: __RNvXNtNtCsltZDfVD1VKL_5alloc3vec14spec_from_iterINtB4_3VecNtNtCs5GBHJSLTkJw_3syn8generics14WherePredicateEINtB2_12SpecFromIterBU_INtNtBY_10punctuated8IntoIterBU_EE9from_iterCs39Y7jx17GSw_12serde_derive, symObjAddr: 0x4980, symBinAddr: 0x75FF0, symSize: 0x14 }
  - { offsetInCU: 0xE22A, offset: 0x814A2, size: 0x8, addend: 0x0, symName: __RNvXNtNtCsltZDfVD1VKL_5alloc3vec14spec_from_iterINtB4_3VecNtNtNtCs39Y7jx17GSw_12serde_derive9internals3ast5FieldEINtB2_12SpecFromIterBU_INtNtNtNtCs5fsojcNSbun_4core4iter8adapters3map3MapINtNtB2f_9enumerate9EnumerateINtNtCs5GBHJSLTkJw_3syn10punctuated4IterNtNtB3w_4data5FieldEENCNvBW_15fields_from_ast0EE9from_iterB10_, symObjAddr: 0x4994, symBinAddr: 0x76004, symSize: 0x14 }
  - { offsetInCU: 0xE269, offset: 0x814E1, size: 0x8, addend: 0x0, symName: __RNvXNtNtCsltZDfVD1VKL_5alloc3vec14spec_from_iterINtB4_3VecNtNtNtCs39Y7jx17GSw_12serde_derive9internals3ast7VariantEINtB2_12SpecFromIterBU_INtNtNtNtCs5fsojcNSbun_4core4iter8adapters3map3MapINtNtCs5GBHJSLTkJw_3syn10punctuated4IterNtNtB35_4data7VariantENCNvBW_13enum_from_ast0EE9from_iterB10_, symObjAddr: 0x49A8, symBinAddr: 0x76018, symSize: 0x14 }
  - { offsetInCU: 0xE2A8, offset: 0x81520, size: 0x8, addend: 0x0, symName: __RNvXNtNtCsltZDfVD1VKL_5alloc3vec14spec_from_iterINtB4_3VecRNtCs5CKmLD4IrHZ_11proc_macro25IdentEINtB2_12SpecFromIterBU_INtNtNtNtCs5fsojcNSbun_4core4iter8adapters3map3MapINtNtNtB21_5slice4iter4IterTReBV_RINtNtNtNtB6_11collections5btree3set8BTreeSetNtNtB6_6string6StringEEENCNvNtCs39Y7jx17GSw_12serde_derive2de32deserialize_generated_identifier0EE9from_iterB4q_, symObjAddr: 0x49BC, symBinAddr: 0x7602C, symSize: 0x2C }
  - { offsetInCU: 0xE2E6, offset: 0x8155E, size: 0x8, addend: 0x0, symName: __RNvXNtNtCsltZDfVD1VKL_5alloc3vec14spec_from_iterINtB4_3VecRNtNtCs5GBHJSLTkJw_3syn2ty4TypeEINtB2_12SpecFromIterBU_INtNtNtNtCs5fsojcNSbun_4core4iter8adapters3map3MapINtNtNtB1W_5slice4iter4IterNtNtNtCs39Y7jx17GSw_12serde_derive9internals3ast5FieldENCNvNtB38_3ser27wrap_serialize_variant_with0EE9from_iterB38_, symObjAddr: 0x49E8, symBinAddr: 0x76058, symSize: 0x2C }
  - { offsetInCU: 0xE324, offset: 0x8159C, size: 0x8, addend: 0x0, symName: __RNvXNtNtCsltZDfVD1VKL_5alloc3vec14spec_from_iterINtB4_3VecRNtNtCs5GBHJSLTkJw_3syn4expr6MemberEINtB2_12SpecFromIterBU_INtNtNtNtCs5fsojcNSbun_4core4iter8adapters3map3MapINtNtNtB20_5slice4iter4IterNtNtNtCs39Y7jx17GSw_12serde_derive9internals3ast5FieldENCNvNtB3c_3ser37serialize_struct_variant_with_flattens0_0EE9from_iterB3c_, symObjAddr: 0x4A14, symBinAddr: 0x76084, symSize: 0x2C }
  - { offsetInCU: 0xE362, offset: 0x815DA, size: 0x8, addend: 0x0, symName: __RNvXNtNtCsltZDfVD1VKL_5alloc3vec14spec_from_iterINtB4_3VecRNtNtCs5GBHJSLTkJw_3syn4expr6MemberEINtB2_12SpecFromIterBU_INtNtNtNtCs5fsojcNSbun_4core4iter8adapters3map3MapINtNtNtB20_5slice4iter4IterNtNtNtCs39Y7jx17GSw_12serde_derive9internals3ast5FieldENCNvNtB3c_7pretend33pretend_fields_used_struct_packed0EE9from_iterB3c_, symObjAddr: 0x4A40, symBinAddr: 0x760B0, symSize: 0x2C }
  - { offsetInCU: 0xE3A0, offset: 0x81618, size: 0x8, addend: 0x0, symName: __RNvXNtNtCsltZDfVD1VKL_5alloc3vec14spec_from_iterINtB4_3VecTRNtNtNtCs39Y7jx17GSw_12serde_derive9internals3ast5FieldNtCs5CKmLD4IrHZ_11proc_macro25IdentEEINtB2_12SpecFromIterBU_INtNtNtNtCs5fsojcNSbun_4core4iter8adapters3map3MapINtNtB2R_9enumerate9EnumerateINtNtNtB2V_5slice4iter4IterBW_EENCNvNtB12_2de15deserialize_map0EE9from_iterB12_, symObjAddr: 0x4A6C, symBinAddr: 0x760DC, symSize: 0x14 }
  - { offsetInCU: 0xE3DF, offset: 0x81657, size: 0x8, addend: 0x0, symName: __RNvXNtNtCsltZDfVD1VKL_5alloc3vec14spec_from_iterINtB4_3VecTReNtCs5CKmLD4IrHZ_11proc_macro25IdentRINtNtNtNtB6_11collections5btree3set8BTreeSetNtNtB6_6string6StringEEEINtB2_12SpecFromIterBU_INtNtNtNtCs5fsojcNSbun_4core4iter8adapters3map3MapINtNtB35_6filter6FilterINtNtB35_9enumerate9EnumerateINtNtNtB39_5slice4iter4IterNtNtNtCs39Y7jx17GSw_12serde_derive9internals3ast5FieldEENCNvNtB5b_2de18deserialize_struct0ENCB61_s_0EE9from_iterB5b_, symObjAddr: 0x4A80, symBinAddr: 0x760F0, symSize: 0x14 }
  - { offsetInCU: 0xE41E, offset: 0x81696, size: 0x8, addend: 0x0, symName: __RNvXNtNtCsltZDfVD1VKL_5alloc3vec14spec_from_iterINtB4_3VecTReNtCs5CKmLD4IrHZ_11proc_macro25IdentRINtNtNtNtB6_11collections5btree3set8BTreeSetNtNtB6_6string6StringEEEINtB2_12SpecFromIterBU_INtNtNtNtCs5fsojcNSbun_4core4iter8adapters3map3MapINtNtB35_6filter6FilterINtNtB35_9enumerate9EnumerateINtNtNtB39_5slice4iter4IterNtNtNtCs39Y7jx17GSw_12serde_derive9internals3ast7VariantEENCNvNtB5b_2de25prepare_enum_variant_enum0ENCB63_s_0EE9from_iterB5b_, symObjAddr: 0x4A94, symBinAddr: 0x76104, symSize: 0x14 }
  - { offsetInCU: 0xE45D, offset: 0x816D5, size: 0x8, addend: 0x0, symName: __RNvXNtNtCsltZDfVD1VKL_5alloc3vec14spec_from_iterINtB4_3VecTReNtCs5CKmLD4IrHZ_11proc_macro25IdentRINtNtNtNtB6_11collections5btree3set8BTreeSetNtNtB6_6string6StringEEEINtB2_12SpecFromIterBU_INtNtNtNtCs5fsojcNSbun_4core4iter8adapters3map3MapINtNtNtB39_5slice4iter4IterNtNtNtCs39Y7jx17GSw_12serde_derive9internals3ast7VariantENCNvNtB4l_2de29deserialize_custom_identifiers_0EE9from_iterB4l_, symObjAddr: 0x4AA8, symBinAddr: 0x76118, symSize: 0x2C }
  - { offsetInCU: 0xE4A7, offset: 0x8171F, size: 0x8, addend: 0x0, symName: __RNvXNtNtCsltZDfVD1VKL_5alloc3vec21spec_from_iter_nestedINtB4_3VecNtCs5CKmLD4IrHZ_11proc_macro211TokenStreamEINtB2_18SpecFromIterNestedB11_INtNtNtNtCs5fsojcNSbun_4core4iter8adapters10filter_map9FilterMapINtNtB2h_6filter6FilterINtNtB2h_9enumerate9EnumerateINtNtNtB2l_5slice4iter4IterNtNtNtCs39Y7jx17GSw_12serde_derive9internals3ast7VariantEENCNvNtB4B_2de34deserialize_adjacently_tagged_enums0_0ENCB5t_s1_0EE9from_iterB4B_, symObjAddr: 0x4AD4, symBinAddr: 0x76144, symSize: 0x25C }
  - { offsetInCU: 0xE75C, offset: 0x819D4, size: 0x8, addend: 0x0, symName: __RNvXNtNtCsltZDfVD1VKL_5alloc3vec21spec_from_iter_nestedINtB4_3VecNtCs5CKmLD4IrHZ_11proc_macro211TokenStreamEINtB2_18SpecFromIterNestedB11_INtNtNtNtCs5fsojcNSbun_4core4iter8adapters10filter_map9FilterMapINtNtNtB2l_5slice4iter4IterNtNtNtCs39Y7jx17GSw_12serde_derive9internals3ast7VariantENCNvNtB3L_7pretend24pretend_fields_used_enum0EE9from_iterB3L_, symObjAddr: 0x4D30, symBinAddr: 0x763A0, symSize: 0x250 }
  - { offsetInCU: 0xEA0F, offset: 0x81C87, size: 0x8, addend: 0x0, symName: __RNvXNtNtCsltZDfVD1VKL_5alloc3vec21spec_from_iter_nestedINtB4_3VecNtCs5CKmLD4IrHZ_11proc_macro211TokenStreamEINtB2_18SpecFromIterNestedB11_INtNtNtNtCs5fsojcNSbun_4core4iter8adapters3map3MapINtNtB2h_6filter6FilterINtNtB2h_9enumerate9EnumerateINtNtNtB2l_5slice4iter4IterNtNtNtCs39Y7jx17GSw_12serde_derive9internals3ast5FieldEENCNvNtB4n_3ser30serialize_tuple_struct_visitor0ENCB5d_s_0EE9from_iterB4n_, symObjAddr: 0x4F80, symBinAddr: 0x765F0, symSize: 0x25C }
  - { offsetInCU: 0xECC4, offset: 0x81F3C, size: 0x8, addend: 0x0, symName: __RNvXNtNtCsltZDfVD1VKL_5alloc3vec21spec_from_iter_nestedINtB4_3VecNtCs5CKmLD4IrHZ_11proc_macro211TokenStreamEINtB2_18SpecFromIterNestedB11_INtNtNtNtCs5fsojcNSbun_4core4iter8adapters3map3MapINtNtB2h_6filter6FilterINtNtB2h_9enumerate9EnumerateINtNtNtB2l_5slice4iter4IterNtNtNtCs39Y7jx17GSw_12serde_derive9internals3ast7VariantEENCNvNtB4n_2de34deserialize_adjacently_tagged_enum0ENCB5f_s_0EE9from_iterB4n_, symObjAddr: 0x51DC, symBinAddr: 0x7684C, symSize: 0x25C }
  - { offsetInCU: 0xEF79, offset: 0x821F1, size: 0x8, addend: 0x0, symName: __RNvXNtNtCsltZDfVD1VKL_5alloc3vec21spec_from_iter_nestedINtB4_3VecNtCs5CKmLD4IrHZ_11proc_macro211TokenStreamEINtB2_18SpecFromIterNestedB11_INtNtNtNtCs5fsojcNSbun_4core4iter8adapters3map3MapINtNtB2h_6filter6FilterINtNtNtB2l_5slice4iter4IterNtNtNtCs39Y7jx17GSw_12serde_derive9internals3ast5FieldENCNvNtB3U_3ser24serialize_struct_visitor0ENCB4J_s_0EE9from_iterB3U_, symObjAddr: 0x5438, symBinAddr: 0x76AA8, symSize: 0x25C }
  - { offsetInCU: 0xF22E, offset: 0x824A6, size: 0x8, addend: 0x0, symName: __RNvXNtNtCsltZDfVD1VKL_5alloc3vec21spec_from_iter_nestedINtB4_3VecNtNtCs5GBHJSLTkJw_3syn8generics14WherePredicateEINtB2_18SpecFromIterNestedB11_INtNtB15_10punctuated8IntoIterB11_EE9from_iterCs39Y7jx17GSw_12serde_derive, symObjAddr: 0x5694, symBinAddr: 0x76D04, symSize: 0x274 }
  - { offsetInCU: 0xF4E4, offset: 0x8275C, size: 0x8, addend: 0x0, symName: __RNvXNtNtCsltZDfVD1VKL_5alloc3vec21spec_from_iter_nestedINtB4_3VecNtNtNtCs39Y7jx17GSw_12serde_derive9internals3ast5FieldEINtB2_18SpecFromIterNestedB11_INtNtNtNtCs5fsojcNSbun_4core4iter8adapters3map3MapINtNtB2t_9enumerate9EnumerateINtNtCs5GBHJSLTkJw_3syn10punctuated4IterNtNtB3K_4data5FieldEENCNvB13_15fields_from_ast0EE9from_iterB17_, symObjAddr: 0x5908, symBinAddr: 0x76F78, symSize: 0x278 }
  - { offsetInCU: 0xF79A, offset: 0x82A12, size: 0x8, addend: 0x0, symName: __RNvXNtNtCsltZDfVD1VKL_5alloc3vec21spec_from_iter_nestedINtB4_3VecNtNtNtCs39Y7jx17GSw_12serde_derive9internals3ast7VariantEINtB2_18SpecFromIterNestedB11_INtNtNtNtCs5fsojcNSbun_4core4iter8adapters3map3MapINtNtCs5GBHJSLTkJw_3syn10punctuated4IterNtNtB3j_4data7VariantENCNvB13_13enum_from_ast0EE9from_iterB17_, symObjAddr: 0x5B80, symBinAddr: 0x771F0, symSize: 0x274 }
  - { offsetInCU: 0xFA50, offset: 0x82CC8, size: 0x8, addend: 0x0, symName: __RNvXNtNtCsltZDfVD1VKL_5alloc3vec21spec_from_iter_nestedINtB4_3VecTReNtCs5CKmLD4IrHZ_11proc_macro25IdentRINtNtNtNtB6_11collections5btree3set8BTreeSetNtNtB6_6string6StringEEEINtB2_18SpecFromIterNestedB11_INtNtNtNtCs5fsojcNSbun_4core4iter8adapters3map3MapINtNtB3j_6filter6FilterINtNtB3j_9enumerate9EnumerateINtNtNtB3n_5slice4iter4IterNtNtNtCs39Y7jx17GSw_12serde_derive9internals3ast5FieldEENCNvNtB5p_2de18deserialize_struct0ENCB6f_s_0EE9from_iterB5p_, symObjAddr: 0x5DF4, symBinAddr: 0x77464, symSize: 0x260 }
  - { offsetInCU: 0xFD06, offset: 0x82F7E, size: 0x8, addend: 0x0, symName: __RNvXNtNtCsltZDfVD1VKL_5alloc3vec21spec_from_iter_nestedINtB4_3VecTReNtCs5CKmLD4IrHZ_11proc_macro25IdentRINtNtNtNtB6_11collections5btree3set8BTreeSetNtNtB6_6string6StringEEEINtB2_18SpecFromIterNestedB11_INtNtNtNtCs5fsojcNSbun_4core4iter8adapters3map3MapINtNtB3j_6filter6FilterINtNtB3j_9enumerate9EnumerateINtNtNtB3n_5slice4iter4IterNtNtNtCs39Y7jx17GSw_12serde_derive9internals3ast7VariantEENCNvNtB5p_2de25prepare_enum_variant_enum0ENCB6h_s_0EE9from_iterB5p_, symObjAddr: 0x6054, symBinAddr: 0x776C4, symSize: 0x260 }
  - { offsetInCU: 0xFFC2, offset: 0x8323A, size: 0x8, addend: 0x0, symName: __RNvXs_NtNtCsltZDfVD1VKL_5alloc3vec21spec_from_iter_nestedINtB6_3VecNtCs5CKmLD4IrHZ_11proc_macro211TokenStreamEINtB4_18SpecFromIterNestedB13_INtNtNtNtCs5fsojcNSbun_4core4iter8adapters3map3MapINtNtB2j_9enumerate9EnumerateINtNtNtB2n_5slice4iter4IterNtNtNtCs39Y7jx17GSw_12serde_derive9internals3ast7VariantEENCNvNtB42_3ser14serialize_enum0EE9from_iterB42_, symObjAddr: 0x6E5C, symBinAddr: 0x784CC, symSize: 0x1C0 }
  - { offsetInCU: 0x100D3, offset: 0x8334B, size: 0x8, addend: 0x0, symName: __RNvXs_NtNtCsltZDfVD1VKL_5alloc3vec21spec_from_iter_nestedINtB6_3VecNtCs5CKmLD4IrHZ_11proc_macro211TokenStreamEINtB4_18SpecFromIterNestedB13_INtNtNtNtCs5fsojcNSbun_4core4iter8adapters3map3MapINtNtNtB2n_5slice4iter4IterNtNtNtCs39Y7jx17GSw_12serde_derive9internals3ast5FieldENCNvNtB3z_3ser27wrap_serialize_variant_withs_0EE9from_iterB3z_, symObjAddr: 0x701C, symBinAddr: 0x7868C, symSize: 0x1AC }
  - { offsetInCU: 0x101E3, offset: 0x8345B, size: 0x8, addend: 0x0, symName: __RNvXs_NtNtCsltZDfVD1VKL_5alloc3vec21spec_from_iter_nestedINtB6_3VecNtCs5CKmLD4IrHZ_11proc_macro25IdentEINtB4_18SpecFromIterNestedB13_INtNtNtNtCs5fsojcNSbun_4core4iter8adapters3map3MapINtNtNtB2g_3ops5range5RangejENCNCNvNtCs39Y7jx17GSw_12serde_derive7pretend21pretend_variants_used00EE9from_iterB3w_, symObjAddr: 0x71C8, symBinAddr: 0x78838, symSize: 0x1AC }
  - { offsetInCU: 0x102F3, offset: 0x8356B, size: 0x8, addend: 0x0, symName: __RNvXs_NtNtCsltZDfVD1VKL_5alloc3vec21spec_from_iter_nestedINtB6_3VecNtNtCs5GBHJSLTkJw_3syn4expr6MemberEINtB4_18SpecFromIterNestedB13_INtNtNtNtCs5fsojcNSbun_4core4iter8adapters3map3MapINtNtNtB2f_3ops5range5RangejENCNvNtCs39Y7jx17GSw_12serde_derive3ser35serialize_adjacently_tagged_variants_0EE9from_iterB3t_, symObjAddr: 0x7374, symBinAddr: 0x789E4, symSize: 0x1AC }
  - { offsetInCU: 0x10403, offset: 0x8367B, size: 0x8, addend: 0x0, symName: __RNvXs_NtNtCsltZDfVD1VKL_5alloc3vec21spec_from_iter_nestedINtB6_3VecNtNtCs5GBHJSLTkJw_3syn4expr6MemberEINtB4_18SpecFromIterNestedB13_INtNtNtNtCs5fsojcNSbun_4core4iter8adapters3map3MapINtNtNtB2f_5slice4iter4IterNtNtNtCs39Y7jx17GSw_12serde_derive9internals3ast5FieldENCNvNtB3r_3ser35serialize_adjacently_tagged_variants0_0EE9from_iterB3r_, symObjAddr: 0x7520, symBinAddr: 0x78B90, symSize: 0x1AC }
  - { offsetInCU: 0x10513, offset: 0x8378B, size: 0x8, addend: 0x0, symName: __RNvXs_NtNtCsltZDfVD1VKL_5alloc3vec21spec_from_iter_nestedINtB6_3VecRNtCs5CKmLD4IrHZ_11proc_macro25IdentEINtB4_18SpecFromIterNestedB13_INtNtNtNtCs5fsojcNSbun_4core4iter8adapters3map3MapINtNtNtB2h_5slice4iter4IterTReB14_RINtNtNtNtB8_11collections5btree3set8BTreeSetNtNtB8_6string6StringEEENCNvNtCs39Y7jx17GSw_12serde_derive2de32deserialize_generated_identifier0EE9from_iterB4H_, symObjAddr: 0x76CC, symBinAddr: 0x78D3C, symSize: 0x1AC }
  - { offsetInCU: 0x10623, offset: 0x8389B, size: 0x8, addend: 0x0, symName: __RNvXs_NtNtCsltZDfVD1VKL_5alloc3vec21spec_from_iter_nestedINtB6_3VecRNtNtCs5GBHJSLTkJw_3syn2ty4TypeEINtB4_18SpecFromIterNestedB13_INtNtNtNtCs5fsojcNSbun_4core4iter8adapters3map3MapINtNtNtB2c_5slice4iter4IterNtNtNtCs39Y7jx17GSw_12serde_derive9internals3ast5FieldENCNvNtB3o_3ser27wrap_serialize_variant_with0EE9from_iterB3o_, symObjAddr: 0x7878, symBinAddr: 0x78EE8, symSize: 0x1AC }
  - { offsetInCU: 0x10733, offset: 0x839AB, size: 0x8, addend: 0x0, symName: __RNvXs_NtNtCsltZDfVD1VKL_5alloc3vec21spec_from_iter_nestedINtB6_3VecRNtNtCs5GBHJSLTkJw_3syn4expr6MemberEINtB4_18SpecFromIterNestedB13_INtNtNtNtCs5fsojcNSbun_4core4iter8adapters3map3MapINtNtNtB2g_5slice4iter4IterNtNtNtCs39Y7jx17GSw_12serde_derive9internals3ast5FieldENCNvNtB3s_3ser37serialize_struct_variant_with_flattens0_0EE9from_iterB3s_, symObjAddr: 0x7A24, symBinAddr: 0x79094, symSize: 0x1AC }
  - { offsetInCU: 0x10843, offset: 0x83ABB, size: 0x8, addend: 0x0, symName: __RNvXs_NtNtCsltZDfVD1VKL_5alloc3vec21spec_from_iter_nestedINtB6_3VecRNtNtCs5GBHJSLTkJw_3syn4expr6MemberEINtB4_18SpecFromIterNestedB13_INtNtNtNtCs5fsojcNSbun_4core4iter8adapters3map3MapINtNtNtB2g_5slice4iter4IterNtNtNtCs39Y7jx17GSw_12serde_derive9internals3ast5FieldENCNvNtB3s_7pretend33pretend_fields_used_struct_packed0EE9from_iterB3s_, symObjAddr: 0x7BD0, symBinAddr: 0x79240, symSize: 0x1AC }
  - { offsetInCU: 0x10953, offset: 0x83BCB, size: 0x8, addend: 0x0, symName: __RNvXs_NtNtCsltZDfVD1VKL_5alloc3vec21spec_from_iter_nestedINtB6_3VecTRNtNtNtCs39Y7jx17GSw_12serde_derive9internals3ast5FieldNtCs5CKmLD4IrHZ_11proc_macro25IdentEEINtB4_18SpecFromIterNestedB13_INtNtNtNtCs5fsojcNSbun_4core4iter8adapters3map3MapINtNtB37_9enumerate9EnumerateINtNtNtB3b_5slice4iter4IterB15_EENCNvNtB1b_2de15deserialize_map0EE9from_iterB1b_, symObjAddr: 0x7D7C, symBinAddr: 0x793EC, symSize: 0x1B4 }
  - { offsetInCU: 0x10A64, offset: 0x83CDC, size: 0x8, addend: 0x0, symName: __RNvXs_NtNtCsltZDfVD1VKL_5alloc3vec21spec_from_iter_nestedINtB6_3VecTReNtCs5CKmLD4IrHZ_11proc_macro25IdentRINtNtNtNtB8_11collections5btree3set8BTreeSetNtNtB8_6string6StringEEEINtB4_18SpecFromIterNestedB13_INtNtNtNtCs5fsojcNSbun_4core4iter8adapters3map3MapINtNtNtB3p_5slice4iter4IterNtNtNtCs39Y7jx17GSw_12serde_derive9internals3ast7VariantENCNvNtB4B_2de29deserialize_custom_identifiers_0EE9from_iterB4B_, symObjAddr: 0x7F30, symBinAddr: 0x795A0, symSize: 0x1AC }
  - { offsetInCU: 0x10B7B, offset: 0x83DF3, size: 0x8, addend: 0x0, symName: __RNvXs7_NtCsltZDfVD1VKL_5alloc3vecINtB5_3VecTNtNtCs5GBHJSLTkJw_3syn2ty4TypeNtNtBK_5token5CommaEENtNtNtCs5fsojcNSbun_4core3ops5deref8DerefMut9deref_mutCs39Y7jx17GSw_12serde_derive, symObjAddr: 0x67F4, symBinAddr: 0x77E64, symSize: 0x74 }
  - { offsetInCU: 0x10CFD, offset: 0x83F75, size: 0x8, addend: 0x0, symName: __RNvXs7_NtCsltZDfVD1VKL_5alloc3vecINtB5_3VecTNtNtCs5GBHJSLTkJw_3syn2ty9BareFnArgNtNtBK_5token5CommaEENtNtNtCs5fsojcNSbun_4core3ops5deref8DerefMut9deref_mutCs39Y7jx17GSw_12serde_derive, symObjAddr: 0x6868, symBinAddr: 0x77ED8, symSize: 0x74 }
  - { offsetInCU: 0x10E7F, offset: 0x840F7, size: 0x8, addend: 0x0, symName: __RNvXs7_NtCsltZDfVD1VKL_5alloc3vecINtB5_3VecTNtNtCs5GBHJSLTkJw_3syn4data7VariantNtNtBK_5token5CommaEENtNtNtCs5fsojcNSbun_4core3ops5deref8DerefMut9deref_mutCs39Y7jx17GSw_12serde_derive, symObjAddr: 0x68DC, symBinAddr: 0x77F4C, symSize: 0x74 }
  - { offsetInCU: 0x11001, offset: 0x84279, size: 0x8, addend: 0x0, symName: __RNvXs7_NtCsltZDfVD1VKL_5alloc3vecINtB5_3VecTNtNtCs5GBHJSLTkJw_3syn4expr4ExprNtNtBK_5token5CommaEENtNtNtCs5fsojcNSbun_4core3ops5deref8DerefMut9deref_mutCs39Y7jx17GSw_12serde_derive, symObjAddr: 0x6950, symBinAddr: 0x77FC0, symSize: 0x74 }
  - { offsetInCU: 0x11183, offset: 0x843FB, size: 0x8, addend: 0x0, symName: __RNvXs7_NtCsltZDfVD1VKL_5alloc3vecINtB5_3VecTNtNtCs5GBHJSLTkJw_3syn4path15GenericArgumentNtNtBK_5token5CommaEENtNtNtCs5fsojcNSbun_4core3ops5deref8DerefMut9deref_mutCs39Y7jx17GSw_12serde_derive, symObjAddr: 0x69C4, symBinAddr: 0x78034, symSize: 0x74 }
  - { offsetInCU: 0x11305, offset: 0x8457D, size: 0x8, addend: 0x0, symName: __RNvXs7_NtCsltZDfVD1VKL_5alloc3vecINtB5_3VecTNtNtCs5GBHJSLTkJw_3syn8generics14TypeParamBoundNtNtBK_5token4PlusEENtNtNtCs5fsojcNSbun_4core3ops5deref8DerefMut9deref_mutCs39Y7jx17GSw_12serde_derive, symObjAddr: 0x6A38, symBinAddr: 0x780A8, symSize: 0x74 }
  - { offsetInCU: 0x11487, offset: 0x846FF, size: 0x8, addend: 0x0, symName: __RNvXs7_NtCsltZDfVD1VKL_5alloc3vecINtB5_3VecTNtNtCs5GBHJSLTkJw_3syn8generics14WherePredicateNtNtBK_5token5CommaEENtNtNtCs5fsojcNSbun_4core3ops5deref8DerefMut9deref_mutCs39Y7jx17GSw_12serde_derive, symObjAddr: 0x6AAC, symBinAddr: 0x7811C, symSize: 0x74 }
  - { offsetInCU: 0x116CE, offset: 0x84946, size: 0x8, addend: 0x0, symName: __RNvXs9_NtCsltZDfVD1VKL_5alloc3vecINtB5_3VecNtNtCs5GBHJSLTkJw_3syn8generics14WherePredicateENtNtCs5fsojcNSbun_4core5clone5Clone5cloneCs39Y7jx17GSw_12serde_derive, symObjAddr: 0x6B20, symBinAddr: 0x78190, symSize: 0xA0 }
  - { offsetInCU: 0x11967, offset: 0x84BDF, size: 0x8, addend: 0x0, symName: __RNvXsb_NtCsltZDfVD1VKL_5alloc3vecINtB5_3VecNtNtCs5GBHJSLTkJw_3syn8generics14WherePredicateEINtNtNtCs5fsojcNSbun_4core3ops5index5IndexNtNtB1w_5range9RangeFullE5indexCs39Y7jx17GSw_12serde_derive, symObjAddr: 0x80DC, symBinAddr: 0x7974C, symSize: 0x88 }
  - { offsetInCU: 0x11B95, offset: 0x84E0D, size: 0x8, addend: 0x0, symName: __RNvXsb_NtCsltZDfVD1VKL_5alloc3vecINtB5_3VecNtNtNtCs39Y7jx17GSw_12serde_derive9internals3ast5FieldEINtNtNtCs5fsojcNSbun_4core3ops5index5IndexjE5indexBL_, symObjAddr: 0x8164, symBinAddr: 0x797D4, symSize: 0x94 }
  - { offsetInCU: 0x11DC3, offset: 0x8503B, size: 0x8, addend: 0x0, symName: __RNvXsb_NtCsltZDfVD1VKL_5alloc3vecINtB5_3VecNtNtNtCs39Y7jx17GSw_12serde_derive9internals3ast7VariantEINtNtNtCs5fsojcNSbun_4core3ops5index5IndexINtNtB1F_5range7RangeTojEE5indexBL_, symObjAddr: 0x81F8, symBinAddr: 0x79868, symSize: 0x15C }
  - { offsetInCU: 0x121B7, offset: 0x8542F, size: 0x8, addend: 0x0, symName: __RNvXsb_NtCsltZDfVD1VKL_5alloc3vecINtB5_3VecTNtNtCs5GBHJSLTkJw_3syn4path15GenericArgumentNtNtBK_5token5CommaEEINtNtNtCs5fsojcNSbun_4core3ops5index5IndexjE5indexCs39Y7jx17GSw_12serde_derive, symObjAddr: 0x8354, symBinAddr: 0x799C4, symSize: 0x94 }
  - { offsetInCU: 0x123E5, offset: 0x8565D, size: 0x8, addend: 0x0, symName: __RNvXsb_NtCsltZDfVD1VKL_5alloc3vecINtB5_3VecTReNtCs5CKmLD4IrHZ_11proc_macro25IdentRINtNtNtNtB7_11collections5btree3set8BTreeSetNtNtB7_6string6StringEEEINtNtNtCs5fsojcNSbun_4core3ops5index5IndexjE5indexCs39Y7jx17GSw_12serde_derive, symObjAddr: 0x83E8, symBinAddr: 0x79A58, symSize: 0x94 }
  - { offsetInCU: 0x12619, offset: 0x85891, size: 0x8, addend: 0x0, symName: __RNvXse_NtCsltZDfVD1VKL_5alloc3vecINtB5_3VecNtNtB7_6string6StringENtNtNtNtCs5fsojcNSbun_4core4iter6traits7collect12IntoIterator9into_iterCs39Y7jx17GSw_12serde_derive, symObjAddr: 0x847C, symBinAddr: 0x79AEC, symSize: 0xE8 }
  - { offsetInCU: 0x12853, offset: 0x85ACB, size: 0x8, addend: 0x0, symName: __RNvXse_NtCsltZDfVD1VKL_5alloc3vecINtB5_3VecNtNtCs5GBHJSLTkJw_3syn3lit6LitStrENtNtNtNtCs5fsojcNSbun_4core4iter6traits7collect12IntoIterator9into_iterCs39Y7jx17GSw_12serde_derive, symObjAddr: 0x8564, symBinAddr: 0x79BD4, symSize: 0xE0 }
  - { offsetInCU: 0x12A8D, offset: 0x85D05, size: 0x8, addend: 0x0, symName: __RNvXse_NtCsltZDfVD1VKL_5alloc3vecINtB5_3VecNtNtCs5GBHJSLTkJw_3syn4path11PathSegmentENtNtNtNtCs5fsojcNSbun_4core4iter6traits7collect12IntoIterator9into_iterCs39Y7jx17GSw_12serde_derive, symObjAddr: 0x8644, symBinAddr: 0x79CB4, symSize: 0xE8 }
  - { offsetInCU: 0x12CC7, offset: 0x85F3F, size: 0x8, addend: 0x0, symName: __RNvXse_NtCsltZDfVD1VKL_5alloc3vecINtB5_3VecNtNtCs5GBHJSLTkJw_3syn5error5ErrorENtNtNtNtCs5fsojcNSbun_4core4iter6traits7collect12IntoIterator9into_iterCs39Y7jx17GSw_12serde_derive, symObjAddr: 0x872C, symBinAddr: 0x79D9C, symSize: 0xE8 }
  - { offsetInCU: 0x12F01, offset: 0x86179, size: 0x8, addend: 0x0, symName: __RNvXse_NtCsltZDfVD1VKL_5alloc3vecINtB5_3VecNtNtCs5GBHJSLTkJw_3syn8generics12GenericParamENtNtNtNtCs5fsojcNSbun_4core4iter6traits7collect12IntoIterator9into_iterCs39Y7jx17GSw_12serde_derive, symObjAddr: 0x8814, symBinAddr: 0x79E84, symSize: 0xE8 }
  - { offsetInCU: 0x1313B, offset: 0x863B3, size: 0x8, addend: 0x0, symName: __RNvXse_NtCsltZDfVD1VKL_5alloc3vecINtB5_3VecNtNtCs5GBHJSLTkJw_3syn8generics14WherePredicateENtNtNtNtCs5fsojcNSbun_4core4iter6traits7collect12IntoIterator9into_iterCs39Y7jx17GSw_12serde_derive, symObjAddr: 0x88FC, symBinAddr: 0x79F6C, symSize: 0xE8 }
  - { offsetInCU: 0x13375, offset: 0x865ED, size: 0x8, addend: 0x0, symName: __RNvXse_NtCsltZDfVD1VKL_5alloc3vecINtB5_3VecRNtNtCs5GBHJSLTkJw_3syn2ty8TypePathENtNtNtNtCs5fsojcNSbun_4core4iter6traits7collect12IntoIterator9into_iterCs39Y7jx17GSw_12serde_derive, symObjAddr: 0x89E4, symBinAddr: 0x7A054, symSize: 0xE0 }
  - { offsetInCU: 0x135AF, offset: 0x86827, size: 0x8, addend: 0x0, symName: __RNvXse_NtCsltZDfVD1VKL_5alloc3vecINtB5_3VecTNtNtCs5GBHJSLTkJw_3syn8generics12GenericParamNtNtBK_5token5CommaEENtNtNtNtCs5fsojcNSbun_4core4iter6traits7collect12IntoIterator9into_iterCs39Y7jx17GSw_12serde_derive, symObjAddr: 0x8AC4, symBinAddr: 0x7A134, symSize: 0xE8 }
  - { offsetInCU: 0x137E9, offset: 0x86A61, size: 0x8, addend: 0x0, symName: __RNvXse_NtCsltZDfVD1VKL_5alloc3vecINtB5_3VecTNtNtCs5GBHJSLTkJw_3syn8generics14WherePredicateNtNtBK_5token5CommaEENtNtNtNtCs5fsojcNSbun_4core4iter6traits7collect12IntoIterator9into_iterCs39Y7jx17GSw_12serde_derive, symObjAddr: 0x8BAC, symBinAddr: 0x7A21C, symSize: 0xE8 }
  - { offsetInCU: 0x13AAC, offset: 0x86D24, size: 0x8, addend: 0x0, symName: __RNvXsf_NtCsltZDfVD1VKL_5alloc3vecRINtB5_3VecNtNtNtCs39Y7jx17GSw_12serde_derive9internals3ast5FieldENtNtNtNtCs5fsojcNSbun_4core4iter6traits7collect12IntoIterator9into_iterBM_, symObjAddr: 0x8C94, symBinAddr: 0x7A304, symSize: 0xC8 }
  - { offsetInCU: 0x13DE0, offset: 0x87058, size: 0x8, addend: 0x0, symName: __RNvXsf_NtCsltZDfVD1VKL_5alloc3vecRINtB5_3VecNtNtNtCs39Y7jx17GSw_12serde_derive9internals3ast7VariantENtNtNtNtCs5fsojcNSbun_4core4iter6traits7collect12IntoIterator9into_iterBM_, symObjAddr: 0x8D5C, symBinAddr: 0x7A3CC, symSize: 0xC8 }
  - { offsetInCU: 0x1411A, offset: 0x87392, size: 0x8, addend: 0x0, symName: __RNvXsg_NtCsltZDfVD1VKL_5alloc3vecQINtB5_3VecNtNtNtCs39Y7jx17GSw_12serde_derive9internals3ast5FieldENtNtNtNtCs5fsojcNSbun_4core4iter6traits7collect12IntoIterator9into_iterBM_, symObjAddr: 0x8E24, symBinAddr: 0x7A494, symSize: 0xC8 }
  - { offsetInCU: 0x1444E, offset: 0x876C6, size: 0x8, addend: 0x0, symName: __RNvXsg_NtCsltZDfVD1VKL_5alloc3vecQINtB5_3VecNtNtNtCs39Y7jx17GSw_12serde_derive9internals3ast7VariantENtNtNtNtCs5fsojcNSbun_4core4iter6traits7collect12IntoIterator9into_iterBM_, symObjAddr: 0x8EEC, symBinAddr: 0x7A55C, symSize: 0xC8 }
  - { offsetInCU: 0x14788, offset: 0x87A00, size: 0x8, addend: 0x0, symName: __RNvXsn_NtCsltZDfVD1VKL_5alloc3vecINtB5_3VecIBw_NtNtCs5GBHJSLTkJw_3syn8generics14WherePredicateEENtNtNtCs5fsojcNSbun_4core3ops4drop4Drop4dropCs39Y7jx17GSw_12serde_derive, symObjAddr: 0x8FB4, symBinAddr: 0x7A624, symSize: 0x48 }
  - { offsetInCU: 0x148D3, offset: 0x87B4B, size: 0x8, addend: 0x0, symName: __RNvXsn_NtCsltZDfVD1VKL_5alloc3vecINtB5_3VecNtCs5CKmLD4IrHZ_11proc_macro211TokenStreamENtNtNtCs5fsojcNSbun_4core3ops4drop4Drop4dropCs39Y7jx17GSw_12serde_derive, symObjAddr: 0x8FFC, symBinAddr: 0x7A66C, symSize: 0x48 }
  - { offsetInCU: 0x14A1E, offset: 0x87C96, size: 0x8, addend: 0x0, symName: __RNvXsn_NtCsltZDfVD1VKL_5alloc3vecINtB5_3VecNtCs5CKmLD4IrHZ_11proc_macro25IdentENtNtNtCs5fsojcNSbun_4core3ops4drop4Drop4dropCs39Y7jx17GSw_12serde_derive, symObjAddr: 0x9044, symBinAddr: 0x7A6B4, symSize: 0x48 }
  - { offsetInCU: 0x14B69, offset: 0x87DE1, size: 0x8, addend: 0x0, symName: __RNvXsn_NtCsltZDfVD1VKL_5alloc3vecINtB5_3VecNtNtB7_6string6StringENtNtNtCs5fsojcNSbun_4core3ops4drop4Drop4dropCs39Y7jx17GSw_12serde_derive, symObjAddr: 0x908C, symBinAddr: 0x7A6FC, symSize: 0x48 }
  - { offsetInCU: 0x14CB4, offset: 0x87F2C, size: 0x8, addend: 0x0, symName: __RNvXsn_NtCsltZDfVD1VKL_5alloc3vecINtB5_3VecNtNtCs5GBHJSLTkJw_3syn3lit6LitStrENtNtNtCs5fsojcNSbun_4core3ops4drop4Drop4dropCs39Y7jx17GSw_12serde_derive, symObjAddr: 0x90D4, symBinAddr: 0x7A744, symSize: 0x48 }
  - { offsetInCU: 0x14DFF, offset: 0x88077, size: 0x8, addend: 0x0, symName: __RNvXsn_NtCsltZDfVD1VKL_5alloc3vecINtB5_3VecNtNtCs5GBHJSLTkJw_3syn4expr6MemberENtNtNtCs5fsojcNSbun_4core3ops4drop4Drop4dropCs39Y7jx17GSw_12serde_derive, symObjAddr: 0x911C, symBinAddr: 0x7A78C, symSize: 0x48 }
  - { offsetInCU: 0x14F4A, offset: 0x881C2, size: 0x8, addend: 0x0, symName: __RNvXsn_NtCsltZDfVD1VKL_5alloc3vecINtB5_3VecNtNtCs5GBHJSLTkJw_3syn5error5ErrorENtNtNtCs5fsojcNSbun_4core3ops4drop4Drop4dropCs39Y7jx17GSw_12serde_derive, symObjAddr: 0x9164, symBinAddr: 0x7A7D4, symSize: 0x48 }
  - { offsetInCU: 0x15095, offset: 0x8830D, size: 0x8, addend: 0x0, symName: __RNvXsn_NtCsltZDfVD1VKL_5alloc3vecINtB5_3VecNtNtCs5GBHJSLTkJw_3syn8generics12GenericParamENtNtNtCs5fsojcNSbun_4core3ops4drop4Drop4dropCs39Y7jx17GSw_12serde_derive, symObjAddr: 0x91AC, symBinAddr: 0x7A81C, symSize: 0x48 }
  - { offsetInCU: 0x151E0, offset: 0x88458, size: 0x8, addend: 0x0, symName: __RNvXsn_NtCsltZDfVD1VKL_5alloc3vecINtB5_3VecNtNtCs5GBHJSLTkJw_3syn8generics14WherePredicateENtNtNtCs5fsojcNSbun_4core3ops4drop4Drop4dropCs39Y7jx17GSw_12serde_derive, symObjAddr: 0x91F4, symBinAddr: 0x7A864, symSize: 0x48 }
  - { offsetInCU: 0x1532B, offset: 0x885A3, size: 0x8, addend: 0x0, symName: __RNvXsn_NtCsltZDfVD1VKL_5alloc3vecINtB5_3VecNtNtNtCs39Y7jx17GSw_12serde_derive9internals3ast5FieldENtNtNtCs5fsojcNSbun_4core3ops4drop4Drop4dropBL_, symObjAddr: 0x923C, symBinAddr: 0x7A8AC, symSize: 0x48 }
  - { offsetInCU: 0x15476, offset: 0x886EE, size: 0x8, addend: 0x0, symName: __RNvXsn_NtCsltZDfVD1VKL_5alloc3vecINtB5_3VecNtNtNtCs39Y7jx17GSw_12serde_derive9internals3ast7VariantENtNtNtCs5fsojcNSbun_4core3ops4drop4Drop4dropBL_, symObjAddr: 0x9284, symBinAddr: 0x7A8F4, symSize: 0x48 }
  - { offsetInCU: 0x155C1, offset: 0x88839, size: 0x8, addend: 0x0, symName: __RNvXsn_NtCsltZDfVD1VKL_5alloc3vecINtB5_3VecRNtCs5CKmLD4IrHZ_11proc_macro25IdentENtNtNtCs5fsojcNSbun_4core3ops4drop4Drop4dropCs39Y7jx17GSw_12serde_derive, symObjAddr: 0x92CC, symBinAddr: 0x7A93C, symSize: 0x34 }
  - { offsetInCU: 0x1570C, offset: 0x88984, size: 0x8, addend: 0x0, symName: __RNvXsn_NtCsltZDfVD1VKL_5alloc3vecINtB5_3VecRNtNtCs5GBHJSLTkJw_3syn2ty4TypeENtNtNtCs5fsojcNSbun_4core3ops4drop4Drop4dropCs39Y7jx17GSw_12serde_derive, symObjAddr: 0x9300, symBinAddr: 0x7A970, symSize: 0x34 }
  - { offsetInCU: 0x15857, offset: 0x88ACF, size: 0x8, addend: 0x0, symName: __RNvXsn_NtCsltZDfVD1VKL_5alloc3vecINtB5_3VecRNtNtCs5GBHJSLTkJw_3syn2ty8TypePathENtNtNtCs5fsojcNSbun_4core3ops4drop4Drop4dropCs39Y7jx17GSw_12serde_derive, symObjAddr: 0x9334, symBinAddr: 0x7A9A4, symSize: 0x34 }
  - { offsetInCU: 0x159A2, offset: 0x88C1A, size: 0x8, addend: 0x0, symName: __RNvXsn_NtCsltZDfVD1VKL_5alloc3vecINtB5_3VecRNtNtCs5GBHJSLTkJw_3syn4expr6MemberENtNtNtCs5fsojcNSbun_4core3ops4drop4Drop4dropCs39Y7jx17GSw_12serde_derive, symObjAddr: 0x9368, symBinAddr: 0x7A9D8, symSize: 0x34 }
  - { offsetInCU: 0x15AED, offset: 0x88D65, size: 0x8, addend: 0x0, symName: __RNvXsn_NtCsltZDfVD1VKL_5alloc3vecINtB5_3VecTRNtNtNtCs39Y7jx17GSw_12serde_derive9internals3ast5FieldNtCs5CKmLD4IrHZ_11proc_macro25IdentEENtNtNtCs5fsojcNSbun_4core3ops4drop4Drop4dropBN_, symObjAddr: 0x939C, symBinAddr: 0x7AA0C, symSize: 0x48 }
  - { offsetInCU: 0x15C38, offset: 0x88EB0, size: 0x8, addend: 0x0, symName: __RNvXsn_NtCsltZDfVD1VKL_5alloc3vecINtB5_3VecTReNtCs5CKmLD4IrHZ_11proc_macro25IdentRINtNtNtNtB7_11collections5btree3set8BTreeSetNtNtB7_6string6StringEEENtNtNtCs5fsojcNSbun_4core3ops4drop4Drop4dropCs39Y7jx17GSw_12serde_derive, symObjAddr: 0x93E4, symBinAddr: 0x7AA54, symSize: 0x48 }
  - { offsetInCU: 0x1AB3C, offset: 0x8DDB4, size: 0x8, addend: 0x0, symName: __RINvMsi_NtCsltZDfVD1VKL_5alloc3vecINtB6_3VecNtCs5CKmLD4IrHZ_11proc_macro211TokenStreamE14extend_trustedINtNtNtNtCs5fsojcNSbun_4core4iter8adapters3map3MapINtNtB1I_9enumerate9EnumerateINtNtNtB1M_5slice4iter4IterNtNtNtCs39Y7jx17GSw_12serde_derive9internals3ast7VariantEENCNvNtB3r_3ser14serialize_enum0EEB3r_, symObjAddr: 0x0, symBinAddr: 0x71670, symSize: 0x1A8 }
  - { offsetInCU: 0x1AE20, offset: 0x8E098, size: 0x8, addend: 0x0, symName: __RINvMsi_NtCsltZDfVD1VKL_5alloc3vecINtB6_3VecNtCs5CKmLD4IrHZ_11proc_macro211TokenStreamE14extend_trustedINtNtNtNtCs5fsojcNSbun_4core4iter8adapters3map3MapINtNtNtB1M_5slice4iter4IterNtNtNtCs39Y7jx17GSw_12serde_derive9internals3ast5FieldENCNvNtB2Y_3ser27wrap_serialize_variant_withs_0EEB2Y_, symObjAddr: 0x1A8, symBinAddr: 0x71818, symSize: 0x190 }
  - { offsetInCU: 0x1B1D1, offset: 0x8E449, size: 0x8, addend: 0x0, symName: __RINvMsi_NtCsltZDfVD1VKL_5alloc3vecINtB6_3VecNtCs5CKmLD4IrHZ_11proc_macro211TokenStreamE16extend_desugaredINtNtNtNtCs5fsojcNSbun_4core4iter8adapters10filter_map9FilterMapINtNtB1K_6filter6FilterINtNtB1K_9enumerate9EnumerateINtNtNtB1O_5slice4iter4IterNtNtNtCs39Y7jx17GSw_12serde_derive9internals3ast7VariantEENCNvNtB44_2de34deserialize_adjacently_tagged_enums0_0ENCB4W_s1_0EEB44_, symObjAddr: 0x338, symBinAddr: 0x719A8, symSize: 0x1B4 }
  - { offsetInCU: 0x1B5A8, offset: 0x8E820, size: 0x8, addend: 0x0, symName: __RINvMsi_NtCsltZDfVD1VKL_5alloc3vecINtB6_3VecNtCs5CKmLD4IrHZ_11proc_macro211TokenStreamE16extend_desugaredINtNtNtNtCs5fsojcNSbun_4core4iter8adapters10filter_map9FilterMapINtNtNtB1O_5slice4iter4IterNtNtNtCs39Y7jx17GSw_12serde_derive9internals3ast7VariantENCNvNtB3e_7pretend24pretend_fields_used_enum0EEB3e_, symObjAddr: 0x4EC, symBinAddr: 0x71B5C, symSize: 0x1B4 }
  - { offsetInCU: 0x1B98C, offset: 0x8EC04, size: 0x8, addend: 0x0, symName: __RINvMsi_NtCsltZDfVD1VKL_5alloc3vecINtB6_3VecNtCs5CKmLD4IrHZ_11proc_macro211TokenStreamE16extend_desugaredINtNtNtNtCs5fsojcNSbun_4core4iter8adapters3map3MapINtNtB1K_6filter6FilterINtNtB1K_9enumerate9EnumerateINtNtNtB1O_5slice4iter4IterNtNtNtCs39Y7jx17GSw_12serde_derive9internals3ast5FieldEENCNvNtB3Q_3ser30serialize_tuple_struct_visitor0ENCB4G_s_0EEB3Q_, symObjAddr: 0x6A0, symBinAddr: 0x71D10, symSize: 0x1B4 }
  - { offsetInCU: 0x1BD63, offset: 0x8EFDB, size: 0x8, addend: 0x0, symName: __RINvMsi_NtCsltZDfVD1VKL_5alloc3vecINtB6_3VecNtCs5CKmLD4IrHZ_11proc_macro211TokenStreamE16extend_desugaredINtNtNtNtCs5fsojcNSbun_4core4iter8adapters3map3MapINtNtB1K_6filter6FilterINtNtB1K_9enumerate9EnumerateINtNtNtB1O_5slice4iter4IterNtNtNtCs39Y7jx17GSw_12serde_derive9internals3ast7VariantEENCNvNtB3Q_2de34deserialize_adjacently_tagged_enum0ENCB4I_s_0EEB3Q_, symObjAddr: 0x854, symBinAddr: 0x71EC4, symSize: 0x1B4 }
  - { offsetInCU: 0x1C13A, offset: 0x8F3B2, size: 0x8, addend: 0x0, symName: __RINvMsi_NtCsltZDfVD1VKL_5alloc3vecINtB6_3VecNtCs5CKmLD4IrHZ_11proc_macro211TokenStreamE16extend_desugaredINtNtNtNtCs5fsojcNSbun_4core4iter8adapters3map3MapINtNtB1K_6filter6FilterINtNtNtB1O_5slice4iter4IterNtNtNtCs39Y7jx17GSw_12serde_derive9internals3ast5FieldENCNvNtB3n_3ser24serialize_struct_visitor0ENCB4c_s_0EEB3n_, symObjAddr: 0xA08, symBinAddr: 0x72078, symSize: 0x1B4 }
  - { offsetInCU: 0x1C49E, offset: 0x8F716, size: 0x8, addend: 0x0, symName: __RINvMsi_NtCsltZDfVD1VKL_5alloc3vecINtB6_3VecNtCs5CKmLD4IrHZ_11proc_macro25IdentE14extend_trustedINtNtNtNtCs5fsojcNSbun_4core4iter8adapters3map3MapINtNtNtB1F_3ops5range5RangejENCNCNvNtCs39Y7jx17GSw_12serde_derive7pretend21pretend_variants_used00EEB2V_, symObjAddr: 0xBBC, symBinAddr: 0x7222C, symSize: 0x190 }
  - { offsetInCU: 0x1C7A8, offset: 0x8FA20, size: 0x8, addend: 0x0, symName: __RINvMsi_NtCsltZDfVD1VKL_5alloc3vecINtB6_3VecNtNtCs5GBHJSLTkJw_3syn4expr6MemberE14extend_trustedINtNtNtNtCs5fsojcNSbun_4core4iter8adapters3map3MapINtNtNtB1E_3ops5range5RangejENCNvNtCs39Y7jx17GSw_12serde_derive3ser35serialize_adjacently_tagged_variants_0EEB2S_, symObjAddr: 0xD4C, symBinAddr: 0x723BC, symSize: 0x190 }
  - { offsetInCU: 0x1CA7E, offset: 0x8FCF6, size: 0x8, addend: 0x0, symName: __RINvMsi_NtCsltZDfVD1VKL_5alloc3vecINtB6_3VecNtNtCs5GBHJSLTkJw_3syn4expr6MemberE14extend_trustedINtNtNtNtCs5fsojcNSbun_4core4iter8adapters3map3MapINtNtNtB1E_5slice4iter4IterNtNtNtCs39Y7jx17GSw_12serde_derive9internals3ast5FieldENCNvNtB2Q_3ser35serialize_adjacently_tagged_variants0_0EEB2Q_, symObjAddr: 0xEDC, symBinAddr: 0x7254C, symSize: 0x190 }
  - { offsetInCU: 0x1CD88, offset: 0x90000, size: 0x8, addend: 0x0, symName: __RINvMsi_NtCsltZDfVD1VKL_5alloc3vecINtB6_3VecNtNtCs5GBHJSLTkJw_3syn8generics12GenericParamE14extend_trustedINtNtCs5fsojcNSbun_4core6option8IntoIterBG_EECs39Y7jx17GSw_12serde_derive, symObjAddr: 0x106C, symBinAddr: 0x726DC, symSize: 0x1B8 }
  - { offsetInCU: 0x1D05F, offset: 0x902D7, size: 0x8, addend: 0x0, symName: __RINvMsi_NtCsltZDfVD1VKL_5alloc3vecINtB6_3VecNtNtCs5GBHJSLTkJw_3syn8generics12GenericParamE14extend_trustedINtNtNtNtCs5fsojcNSbun_4core4iter8adapters3map3MapINtNtB6_9into_iter8IntoIterTBG_NtNtBK_5token5CommaEENCNvXs4_NtBK_10punctuatedINtB3s_10PunctuatedBG_B2Z_ENtNtNtB1N_6traits7collect12IntoIterator9into_iter0EECs39Y7jx17GSw_12serde_derive, symObjAddr: 0x1224, symBinAddr: 0x72894, symSize: 0x1A8 }
  - { offsetInCU: 0x1D35D, offset: 0x905D5, size: 0x8, addend: 0x0, symName: __RINvMsi_NtCsltZDfVD1VKL_5alloc3vecINtB6_3VecNtNtCs5GBHJSLTkJw_3syn8generics14WherePredicateE14extend_trustedINtNtCs5fsojcNSbun_4core6option8IntoIterBG_EECs39Y7jx17GSw_12serde_derive, symObjAddr: 0x13CC, symBinAddr: 0x72A3C, symSize: 0x1B8 }
  - { offsetInCU: 0x1D634, offset: 0x908AC, size: 0x8, addend: 0x0, symName: __RINvMsi_NtCsltZDfVD1VKL_5alloc3vecINtB6_3VecNtNtCs5GBHJSLTkJw_3syn8generics14WherePredicateE14extend_trustedINtNtNtNtCs5fsojcNSbun_4core4iter8adapters3map3MapINtNtB6_9into_iter8IntoIterTBG_NtNtBK_5token5CommaEENCNvXs4_NtBK_10punctuatedINtB3u_10PunctuatedBG_B31_ENtNtNtB1P_6traits7collect12IntoIterator9into_iter0EECs39Y7jx17GSw_12serde_derive, symObjAddr: 0x1584, symBinAddr: 0x72BF4, symSize: 0x1A8 }
  - { offsetInCU: 0x1D9A5, offset: 0x90C1D, size: 0x8, addend: 0x0, symName: __RINvMsi_NtCsltZDfVD1VKL_5alloc3vecINtB6_3VecNtNtCs5GBHJSLTkJw_3syn8generics14WherePredicateE16extend_desugaredINtNtBK_10punctuated8IntoIterBG_EECs39Y7jx17GSw_12serde_derive, symObjAddr: 0x172C, symBinAddr: 0x72D9C, symSize: 0x1E8 }
  - { offsetInCU: 0x1DE55, offset: 0x910CD, size: 0x8, addend: 0x0, symName: __RINvMsi_NtCsltZDfVD1VKL_5alloc3vecINtB6_3VecNtNtNtCs39Y7jx17GSw_12serde_derive9internals3ast5FieldE16extend_desugaredINtNtNtNtCs5fsojcNSbun_4core4iter8adapters3map3MapINtNtB1W_9enumerate9EnumerateINtNtCs5GBHJSLTkJw_3syn10punctuated4IterNtNtB3d_4data5FieldEENCNvBI_15fields_from_ast0EEBM_, symObjAddr: 0x1914, symBinAddr: 0x72F84, symSize: 0x1EC }
  - { offsetInCU: 0x1E275, offset: 0x914ED, size: 0x8, addend: 0x0, symName: __RINvMsi_NtCsltZDfVD1VKL_5alloc3vecINtB6_3VecNtNtNtCs39Y7jx17GSw_12serde_derive9internals3ast7VariantE16extend_desugaredINtNtNtNtCs5fsojcNSbun_4core4iter8adapters3map3MapINtNtCs5GBHJSLTkJw_3syn10punctuated4IterNtNtB2M_4data7VariantENCNvBI_13enum_from_ast0EEBM_, symObjAddr: 0x1B00, symBinAddr: 0x73170, symSize: 0x1E8 }
  - { offsetInCU: 0x1E62A, offset: 0x918A2, size: 0x8, addend: 0x0, symName: __RINvMsi_NtCsltZDfVD1VKL_5alloc3vecINtB6_3VecRNtCs5CKmLD4IrHZ_11proc_macro25IdentE14extend_trustedINtNtNtNtCs5fsojcNSbun_4core4iter8adapters3map3MapINtNtNtB1G_5slice4iter4IterTReBH_RINtNtNtNtB8_11collections5btree3set8BTreeSetNtNtB8_6string6StringEEENCNvNtCs39Y7jx17GSw_12serde_derive2de32deserialize_generated_identifier0EEB45_, symObjAddr: 0x1CE8, symBinAddr: 0x73358, symSize: 0x190 }
  - { offsetInCU: 0x1E934, offset: 0x91BAC, size: 0x8, addend: 0x0, symName: __RINvMsi_NtCsltZDfVD1VKL_5alloc3vecINtB6_3VecRNtNtCs5GBHJSLTkJw_3syn2ty4TypeE14extend_trustedINtNtNtNtCs5fsojcNSbun_4core4iter8adapters3map3MapINtNtNtB1B_5slice4iter4IterNtNtNtCs39Y7jx17GSw_12serde_derive9internals3ast5FieldENCNvNtB2N_3ser27wrap_serialize_variant_with0EEB2N_, symObjAddr: 0x1E78, symBinAddr: 0x734E8, symSize: 0x190 }
  - { offsetInCU: 0x1EC4B, offset: 0x91EC3, size: 0x8, addend: 0x0, symName: __RINvMsi_NtCsltZDfVD1VKL_5alloc3vecINtB6_3VecRNtNtCs5GBHJSLTkJw_3syn4expr6MemberE14extend_trustedINtNtNtNtCs5fsojcNSbun_4core4iter8adapters3map3MapINtNtNtB1F_5slice4iter4IterNtNtNtCs39Y7jx17GSw_12serde_derive9internals3ast5FieldENCNvNtB2R_3ser37serialize_struct_variant_with_flattens0_0EEB2R_, symObjAddr: 0x2008, symBinAddr: 0x73678, symSize: 0x190 }
  - { offsetInCU: 0x1EF21, offset: 0x92199, size: 0x8, addend: 0x0, symName: __RINvMsi_NtCsltZDfVD1VKL_5alloc3vecINtB6_3VecRNtNtCs5GBHJSLTkJw_3syn4expr6MemberE14extend_trustedINtNtNtNtCs5fsojcNSbun_4core4iter8adapters3map3MapINtNtNtB1F_5slice4iter4IterNtNtNtCs39Y7jx17GSw_12serde_derive9internals3ast5FieldENCNvNtB2R_7pretend33pretend_fields_used_struct_packed0EEB2R_, symObjAddr: 0x2198, symBinAddr: 0x73808, symSize: 0x190 }
  - { offsetInCU: 0x1F249, offset: 0x924C1, size: 0x8, addend: 0x0, symName: __RINvMsi_NtCsltZDfVD1VKL_5alloc3vecINtB6_3VecTRNtNtNtCs39Y7jx17GSw_12serde_derive9internals3ast5FieldNtCs5CKmLD4IrHZ_11proc_macro25IdentEE14extend_trustedINtNtNtNtCs5fsojcNSbun_4core4iter8adapters3map3MapINtNtB2w_9enumerate9EnumerateINtNtNtB2A_5slice4iter4IterBI_EENCNvNtBO_2de15deserialize_map0EEBO_, symObjAddr: 0x2328, symBinAddr: 0x73998, symSize: 0x19C }
  - { offsetInCU: 0x1F547, offset: 0x927BF, size: 0x8, addend: 0x0, symName: __RINvMsi_NtCsltZDfVD1VKL_5alloc3vecINtB6_3VecTReNtCs5CKmLD4IrHZ_11proc_macro25IdentRINtNtNtNtB8_11collections5btree3set8BTreeSetNtNtB8_6string6StringEEE14extend_trustedINtNtNtNtCs5fsojcNSbun_4core4iter8adapters3map3MapINtNtNtB2O_5slice4iter4IterNtNtNtCs39Y7jx17GSw_12serde_derive9internals3ast7VariantENCNvNtB40_2de29deserialize_custom_identifiers_0EEB40_, symObjAddr: 0x24C4, symBinAddr: 0x73B34, symSize: 0x190 }
  - { offsetInCU: 0x1F8B7, offset: 0x92B2F, size: 0x8, addend: 0x0, symName: __RINvMsi_NtCsltZDfVD1VKL_5alloc3vecINtB6_3VecTReNtCs5CKmLD4IrHZ_11proc_macro25IdentRINtNtNtNtB8_11collections5btree3set8BTreeSetNtNtB8_6string6StringEEE16extend_desugaredINtNtNtNtCs5fsojcNSbun_4core4iter8adapters3map3MapINtNtB2M_6filter6FilterINtNtB2M_9enumerate9EnumerateINtNtNtB2Q_5slice4iter4IterNtNtNtCs39Y7jx17GSw_12serde_derive9internals3ast5FieldEENCNvNtB4S_2de18deserialize_struct0ENCB5I_s_0EEB4S_, symObjAddr: 0x2654, symBinAddr: 0x73CC4, symSize: 0x1D4 }
  - { offsetInCU: 0x1FC75, offset: 0x92EED, size: 0x8, addend: 0x0, symName: __RINvMsi_NtCsltZDfVD1VKL_5alloc3vecINtB6_3VecTReNtCs5CKmLD4IrHZ_11proc_macro25IdentRINtNtNtNtB8_11collections5btree3set8BTreeSetNtNtB8_6string6StringEEE16extend_desugaredINtNtNtNtCs5fsojcNSbun_4core4iter8adapters3map3MapINtNtB2M_6filter6FilterINtNtB2M_9enumerate9EnumerateINtNtNtB2Q_5slice4iter4IterNtNtNtCs39Y7jx17GSw_12serde_derive9internals3ast7VariantEENCNvNtB4S_2de25prepare_enum_variant_enum0ENCB5K_s_0EEB4S_, symObjAddr: 0x2828, symBinAddr: 0x73E98, symSize: 0x1D4 }
  - { offsetInCU: 0x20218, offset: 0x93490, size: 0x8, addend: 0x0, symName: __RNvMNtCsltZDfVD1VKL_5alloc3vecINtB2_3VecIBt_NtNtCs5GBHJSLTkJw_3syn8generics14WherePredicateEE3newCs39Y7jx17GSw_12serde_derive, symObjAddr: 0x35A8, symBinAddr: 0x74C18, symSize: 0x14 }
  - { offsetInCU: 0x20242, offset: 0x934BA, size: 0x8, addend: 0x0, symName: __RNvMNtCsltZDfVD1VKL_5alloc3vecINtB2_3VecNtNtB4_6string6StringE3newCs39Y7jx17GSw_12serde_derive, symObjAddr: 0x35BC, symBinAddr: 0x74C2C, symSize: 0x14 }
  - { offsetInCU: 0x2026C, offset: 0x934E4, size: 0x8, addend: 0x0, symName: __RNvMNtCsltZDfVD1VKL_5alloc3vecINtB2_3VecNtNtCs5GBHJSLTkJw_3syn3lit6LitStrE3newCs39Y7jx17GSw_12serde_derive, symObjAddr: 0x35D0, symBinAddr: 0x74C40, symSize: 0x14 }
  - { offsetInCU: 0x20289, offset: 0x93501, size: 0x8, addend: 0x0, symName: __RNvMNtCsltZDfVD1VKL_5alloc3vecINtB2_3VecNtNtCs5GBHJSLTkJw_3syn4expr6MemberE3newCs39Y7jx17GSw_12serde_derive, symObjAddr: 0x35E4, symBinAddr: 0x74C54, symSize: 0x14 }
  - { offsetInCU: 0x202A6, offset: 0x9351E, size: 0x8, addend: 0x0, symName: __RNvMNtCsltZDfVD1VKL_5alloc3vecINtB2_3VecNtNtCs5GBHJSLTkJw_3syn5error5ErrorE3newCs39Y7jx17GSw_12serde_derive, symObjAddr: 0x35F8, symBinAddr: 0x74C68, symSize: 0x14 }
  - { offsetInCU: 0x20343, offset: 0x935BB, size: 0x8, addend: 0x0, symName: __RNvMNtCsltZDfVD1VKL_5alloc3vecINtB2_3VecNtNtCs5GBHJSLTkJw_3syn8generics12GenericParamE13with_capacityCs39Y7jx17GSw_12serde_derive, symObjAddr: 0x360C, symBinAddr: 0x74C7C, symSize: 0x70 }
  - { offsetInCU: 0x2044D, offset: 0x936C5, size: 0x8, addend: 0x0, symName: __RNvMNtCsltZDfVD1VKL_5alloc3vecINtB2_3VecNtNtCs5GBHJSLTkJw_3syn8generics14WherePredicateE13with_capacityCs39Y7jx17GSw_12serde_derive, symObjAddr: 0x367C, symBinAddr: 0x74CEC, symSize: 0x70 }
  - { offsetInCU: 0x204D7, offset: 0x9374F, size: 0x8, addend: 0x0, symName: __RNvMNtCsltZDfVD1VKL_5alloc3vecINtB2_3VecNtNtCs5GBHJSLTkJw_3syn8generics14WherePredicateE3newCs39Y7jx17GSw_12serde_derive, symObjAddr: 0x36EC, symBinAddr: 0x74D5C, symSize: 0x14 }
  - { offsetInCU: 0x204F4, offset: 0x9376C, size: 0x8, addend: 0x0, symName: __RNvMNtCsltZDfVD1VKL_5alloc3vecINtB2_3VecNtNtNtCs39Y7jx17GSw_12serde_derive9internals3ast5FieldE3newBI_, symObjAddr: 0x3700, symBinAddr: 0x74D70, symSize: 0x14 }
  - { offsetInCU: 0x2052B, offset: 0x937A3, size: 0x8, addend: 0x0, symName: __RNvMNtCsltZDfVD1VKL_5alloc3vecINtB2_3VecRNtNtCs5GBHJSLTkJw_3syn2ty8TypePathE3newCs39Y7jx17GSw_12serde_derive, symObjAddr: 0x3714, symBinAddr: 0x74D84, symSize: 0x14 }
  - { offsetInCU: 0x20555, offset: 0x937CD, size: 0x8, addend: 0x0, symName: __RNvMs_NtCsltZDfVD1VKL_5alloc3vecINtB4_3VecIBv_NtNtCs5GBHJSLTkJw_3syn8generics14WherePredicateEE3lenCs39Y7jx17GSw_12serde_derive, symObjAddr: 0x3728, symBinAddr: 0x74D98, symSize: 0x18 }
  - { offsetInCU: 0x206B0, offset: 0x93928, size: 0x8, addend: 0x0, symName: __RNvMs_NtCsltZDfVD1VKL_5alloc3vecINtB4_3VecIBv_NtNtCs5GBHJSLTkJw_3syn8generics14WherePredicateEE3popCs39Y7jx17GSw_12serde_derive, symObjAddr: 0x3740, symBinAddr: 0x74DB0, symSize: 0xF8 }
  - { offsetInCU: 0x20935, offset: 0x93BAD, size: 0x8, addend: 0x0, symName: __RNvMs_NtCsltZDfVD1VKL_5alloc3vecINtB4_3VecIBv_NtNtCs5GBHJSLTkJw_3syn8generics14WherePredicateEE4pushCs39Y7jx17GSw_12serde_derive, symObjAddr: 0x3838, symBinAddr: 0x74EA8, symSize: 0xF8 }
  - { offsetInCU: 0x20BA4, offset: 0x93E1C, size: 0x8, addend: 0x0, symName: __RNvMs_NtCsltZDfVD1VKL_5alloc3vecINtB4_3VecNtCs5CKmLD4IrHZ_11proc_macro211TokenStreamE4pushCs39Y7jx17GSw_12serde_derive, symObjAddr: 0x3930, symBinAddr: 0x74FA0, symSize: 0xF0 }
  - { offsetInCU: 0x20E14, offset: 0x9408C, size: 0x8, addend: 0x0, symName: __RNvMs_NtCsltZDfVD1VKL_5alloc3vecINtB4_3VecNtCs5CKmLD4IrHZ_11proc_macro211TokenStreamE7reserveCs39Y7jx17GSw_12serde_derive, symObjAddr: 0x3A20, symBinAddr: 0x75090, symSize: 0x84 }
  - { offsetInCU: 0x20FFC, offset: 0x94274, size: 0x8, addend: 0x0, symName: __RNvMs_NtCsltZDfVD1VKL_5alloc3vecINtB4_3VecNtCs5CKmLD4IrHZ_11proc_macro211TokenStreamE8as_sliceCs39Y7jx17GSw_12serde_derive, symObjAddr: 0x3AA4, symBinAddr: 0x75114, symSize: 0x74 }
  - { offsetInCU: 0x211C6, offset: 0x9443E, size: 0x8, addend: 0x0, symName: __RNvMs_NtCsltZDfVD1VKL_5alloc3vecINtB4_3VecNtCs5CKmLD4IrHZ_11proc_macro211TokenStreamE8is_emptyCs39Y7jx17GSw_12serde_derive, symObjAddr: 0x3B18, symBinAddr: 0x75188, symSize: 0x20 }
  - { offsetInCU: 0x212D9, offset: 0x94551, size: 0x8, addend: 0x0, symName: __RNvMs_NtCsltZDfVD1VKL_5alloc3vecINtB4_3VecNtCs5CKmLD4IrHZ_11proc_macro25IdentE7reserveCs39Y7jx17GSw_12serde_derive, symObjAddr: 0x3B38, symBinAddr: 0x751A8, symSize: 0x84 }
  - { offsetInCU: 0x213F2, offset: 0x9466A, size: 0x8, addend: 0x0, symName: __RNvMs_NtCsltZDfVD1VKL_5alloc3vecINtB4_3VecNtNtB6_6string6StringE3lenCs39Y7jx17GSw_12serde_derive, symObjAddr: 0x3BBC, symBinAddr: 0x7522C, symSize: 0x18 }
  - { offsetInCU: 0x214FF, offset: 0x94777, size: 0x8, addend: 0x0, symName: __RNvMs_NtCsltZDfVD1VKL_5alloc3vecINtB4_3VecNtNtB6_6string6StringE4pushCs39Y7jx17GSw_12serde_derive, symObjAddr: 0x3BD4, symBinAddr: 0x75244, symSize: 0xF8 }
  - { offsetInCU: 0x216CA, offset: 0x94942, size: 0x8, addend: 0x0, symName: __RNvMs_NtCsltZDfVD1VKL_5alloc3vecINtB4_3VecNtNtCs5GBHJSLTkJw_3syn3lit6LitStrE3lenCs39Y7jx17GSw_12serde_derive, symObjAddr: 0x3CCC, symBinAddr: 0x7533C, symSize: 0x18 }
  - { offsetInCU: 0x21825, offset: 0x94A9D, size: 0x8, addend: 0x0, symName: __RNvMs_NtCsltZDfVD1VKL_5alloc3vecINtB4_3VecNtNtCs5GBHJSLTkJw_3syn3lit6LitStrE3popCs39Y7jx17GSw_12serde_derive, symObjAddr: 0x3CE4, symBinAddr: 0x75354, symSize: 0xCC }
  - { offsetInCU: 0x21AAA, offset: 0x94D22, size: 0x8, addend: 0x0, symName: __RNvMs_NtCsltZDfVD1VKL_5alloc3vecINtB4_3VecNtNtCs5GBHJSLTkJw_3syn3lit6LitStrE4pushCs39Y7jx17GSw_12serde_derive, symObjAddr: 0x3DB0, symBinAddr: 0x75420, symSize: 0xD8 }
  - { offsetInCU: 0x21D17, offset: 0x94F8F, size: 0x8, addend: 0x0, symName: __RNvMs_NtCsltZDfVD1VKL_5alloc3vecINtB4_3VecNtNtCs5GBHJSLTkJw_3syn4expr6MemberE7reserveCs39Y7jx17GSw_12serde_derive, symObjAddr: 0x3E88, symBinAddr: 0x754F8, symSize: 0x84 }
  - { offsetInCU: 0x21EFB, offset: 0x95173, size: 0x8, addend: 0x0, symName: __RNvMs_NtCsltZDfVD1VKL_5alloc3vecINtB4_3VecNtNtCs5GBHJSLTkJw_3syn5error5ErrorE4pushCs39Y7jx17GSw_12serde_derive, symObjAddr: 0x3F0C, symBinAddr: 0x7557C, symSize: 0xF8 }
  - { offsetInCU: 0x2216B, offset: 0x953E3, size: 0x8, addend: 0x0, symName: __RNvMs_NtCsltZDfVD1VKL_5alloc3vecINtB4_3VecNtNtCs5GBHJSLTkJw_3syn8generics12GenericParamE7reserveCs39Y7jx17GSw_12serde_derive, symObjAddr: 0x4004, symBinAddr: 0x75674, symSize: 0x84 }
  - { offsetInCU: 0x2237A, offset: 0x955F2, size: 0x8, addend: 0x0, symName: __RNvMs_NtCsltZDfVD1VKL_5alloc3vecINtB4_3VecNtNtCs5GBHJSLTkJw_3syn8generics14WherePredicateE18spare_capacity_mutCs39Y7jx17GSw_12serde_derive, symObjAddr: 0x4088, symBinAddr: 0x756F8, symSize: 0xC8 }
  - { offsetInCU: 0x225E3, offset: 0x9585B, size: 0x8, addend: 0x0, symName: __RNvMs_NtCsltZDfVD1VKL_5alloc3vecINtB4_3VecNtNtCs5GBHJSLTkJw_3syn8generics14WherePredicateE7reserveCs39Y7jx17GSw_12serde_derive, symObjAddr: 0x4150, symBinAddr: 0x757C0, symSize: 0x84 }
  - { offsetInCU: 0x226EF, offset: 0x95967, size: 0x8, addend: 0x0, symName: __RNvMs_NtCsltZDfVD1VKL_5alloc3vecINtB4_3VecNtNtNtCs39Y7jx17GSw_12serde_derive9internals3ast5FieldE3lenBK_, symObjAddr: 0x41D4, symBinAddr: 0x75844, symSize: 0x18 }
  - { offsetInCU: 0x227D6, offset: 0x95A4E, size: 0x8, addend: 0x0, symName: __RNvMs_NtCsltZDfVD1VKL_5alloc3vecINtB4_3VecNtNtNtCs39Y7jx17GSw_12serde_derive9internals3ast5FieldE7reserveBK_, symObjAddr: 0x41EC, symBinAddr: 0x7585C, symSize: 0x84 }
  - { offsetInCU: 0x228E2, offset: 0x95B5A, size: 0x8, addend: 0x0, symName: __RNvMs_NtCsltZDfVD1VKL_5alloc3vecINtB4_3VecNtNtNtCs39Y7jx17GSw_12serde_derive9internals3ast7VariantE3lenBK_, symObjAddr: 0x4270, symBinAddr: 0x758E0, symSize: 0x18 }
  - { offsetInCU: 0x229C9, offset: 0x95C41, size: 0x8, addend: 0x0, symName: __RNvMs_NtCsltZDfVD1VKL_5alloc3vecINtB4_3VecNtNtNtCs39Y7jx17GSw_12serde_derive9internals3ast7VariantE7reserveBK_, symObjAddr: 0x4288, symBinAddr: 0x758F8, symSize: 0x84 }
  - { offsetInCU: 0x22B87, offset: 0x95DFF, size: 0x8, addend: 0x0, symName: __RNvMs_NtCsltZDfVD1VKL_5alloc3vecINtB4_3VecRNtCs5CKmLD4IrHZ_11proc_macro25IdentE7reserveCs39Y7jx17GSw_12serde_derive, symObjAddr: 0x430C, symBinAddr: 0x7597C, symSize: 0x84 }
  - { offsetInCU: 0x22D45, offset: 0x95FBD, size: 0x8, addend: 0x0, symName: __RNvMs_NtCsltZDfVD1VKL_5alloc3vecINtB4_3VecRNtNtCs5GBHJSLTkJw_3syn2ty4TypeE7reserveCs39Y7jx17GSw_12serde_derive, symObjAddr: 0x4390, symBinAddr: 0x75A00, symSize: 0x84 }
  - { offsetInCU: 0x22F2D, offset: 0x961A5, size: 0x8, addend: 0x0, symName: __RNvMs_NtCsltZDfVD1VKL_5alloc3vecINtB4_3VecRNtNtCs5GBHJSLTkJw_3syn2ty4TypeE8as_sliceCs39Y7jx17GSw_12serde_derive, symObjAddr: 0x4414, symBinAddr: 0x75A84, symSize: 0x70 }
  - { offsetInCU: 0x231A8, offset: 0x96420, size: 0x8, addend: 0x0, symName: __RNvMs_NtCsltZDfVD1VKL_5alloc3vecINtB4_3VecRNtNtCs5GBHJSLTkJw_3syn2ty8TypePathE4pushCs39Y7jx17GSw_12serde_derive, symObjAddr: 0x4484, symBinAddr: 0x75AF4, symSize: 0xD0 }
  - { offsetInCU: 0x23416, offset: 0x9668E, size: 0x8, addend: 0x0, symName: __RNvMs_NtCsltZDfVD1VKL_5alloc3vecINtB4_3VecRNtNtCs5GBHJSLTkJw_3syn4expr6MemberE7reserveCs39Y7jx17GSw_12serde_derive, symObjAddr: 0x4554, symBinAddr: 0x75BC4, symSize: 0x84 }
  - { offsetInCU: 0x235D4, offset: 0x9684C, size: 0x8, addend: 0x0, symName: __RNvMs_NtCsltZDfVD1VKL_5alloc3vecINtB4_3VecTRNtNtNtCs39Y7jx17GSw_12serde_derive9internals3ast5FieldNtCs5CKmLD4IrHZ_11proc_macro25IdentEE7reserveBM_, symObjAddr: 0x45D8, symBinAddr: 0x75C48, symSize: 0x84 }
  - { offsetInCU: 0x23792, offset: 0x96A0A, size: 0x8, addend: 0x0, symName: __RNvMs_NtCsltZDfVD1VKL_5alloc3vecINtB4_3VecTReNtCs5CKmLD4IrHZ_11proc_macro25IdentRINtNtNtNtB6_11collections5btree3set8BTreeSetNtNtB6_6string6StringEEE7reserveCs39Y7jx17GSw_12serde_derive, symObjAddr: 0x465C, symBinAddr: 0x75CCC, symSize: 0x84 }
  - { offsetInCU: 0x238C5, offset: 0x96B3D, size: 0x8, addend: 0x0, symName: __RNvMs_NtCsltZDfVD1VKL_5alloc3vecINtB4_3VecTReNtCs5CKmLD4IrHZ_11proc_macro25IdentRINtNtNtNtB6_11collections5btree3set8BTreeSetNtNtB6_6string6StringEEE8is_emptyCs39Y7jx17GSw_12serde_derive, symObjAddr: 0x46E0, symBinAddr: 0x75D50, symSize: 0x20 }
  - { offsetInCU: 0x24772, offset: 0x979EA, size: 0x8, addend: 0x0, symName: __RNvXs3_NtNtCshYXbwB3frNp_5quote9___private3extINtNtCsltZDfVD1VKL_5alloc3vec3VecNtCs5CKmLD4IrHZ_11proc_macro211TokenStreamENtB5_16RepAsIteratorExt15quote_into_iterCs39Y7jx17GSw_12serde_derive, symObjAddr: 0x62C8, symBinAddr: 0x77938, symSize: 0x48 }
  - { offsetInCU: 0x247A7, offset: 0x97A1F, size: 0x8, addend: 0x0, symName: __RNvXs3_NtNtCshYXbwB3frNp_5quote9___private3extINtNtCsltZDfVD1VKL_5alloc3vec3VecNtCs5CKmLD4IrHZ_11proc_macro25IdentENtB5_16RepAsIteratorExt15quote_into_iterCs39Y7jx17GSw_12serde_derive, symObjAddr: 0x6310, symBinAddr: 0x77980, symSize: 0x48 }
  - { offsetInCU: 0x247DC, offset: 0x97A54, size: 0x8, addend: 0x0, symName: __RNvXs3_NtNtCshYXbwB3frNp_5quote9___private3extINtNtCsltZDfVD1VKL_5alloc3vec3VecRNtCs5CKmLD4IrHZ_11proc_macro25IdentENtB5_16RepAsIteratorExt15quote_into_iterCs39Y7jx17GSw_12serde_derive, symObjAddr: 0x6358, symBinAddr: 0x779C8, symSize: 0x48 }
  - { offsetInCU: 0x24811, offset: 0x97A89, size: 0x8, addend: 0x0, symName: __RNvXs3_NtNtCshYXbwB3frNp_5quote9___private3extINtNtCsltZDfVD1VKL_5alloc3vec3VecRNtNtCs5GBHJSLTkJw_3syn4expr6MemberENtB5_16RepAsIteratorExt15quote_into_iterCs39Y7jx17GSw_12serde_derive, symObjAddr: 0x63A0, symBinAddr: 0x77A10, symSize: 0x48 }
  - { offsetInCU: 0x1E, offset: 0x9ADC8, size: 0x8, addend: 0x0, symName: __RINvNvMs0_NtCsltZDfVD1VKL_5alloc7raw_vecINtB8_6RawVecppE7reserve21do_reserve_and_handleNtCs5CKmLD4IrHZ_11proc_macro211TokenStreamNtNtBa_5alloc6GlobalECs39Y7jx17GSw_12serde_derive, symObjAddr: 0x0, symBinAddr: 0x28FC14, symSize: 0x64 }
  - { offsetInCU: 0x8F75, offset: 0xA3D1F, size: 0x8, addend: 0x0, symName: __RINvNvMs0_NtCsltZDfVD1VKL_5alloc7raw_vecINtB8_6RawVecppE7reserve21do_reserve_and_handleNtCs5CKmLD4IrHZ_11proc_macro211TokenStreamNtNtBa_5alloc6GlobalECs39Y7jx17GSw_12serde_derive, symObjAddr: 0x0, symBinAddr: 0x28FC14, symSize: 0x64 }
  - { offsetInCU: 0x8FED, offset: 0xA3D97, size: 0x8, addend: 0x0, symName: __RINvNvMs0_NtCsltZDfVD1VKL_5alloc7raw_vecINtB8_6RawVecppE7reserve21do_reserve_and_handleNtCs5CKmLD4IrHZ_11proc_macro25IdentNtNtBa_5alloc6GlobalECs39Y7jx17GSw_12serde_derive, symObjAddr: 0x64, symBinAddr: 0x28FC78, symSize: 0x64 }
  - { offsetInCU: 0x9065, offset: 0xA3E0F, size: 0x8, addend: 0x0, symName: __RINvNvMs0_NtCsltZDfVD1VKL_5alloc7raw_vecINtB8_6RawVecppE7reserve21do_reserve_and_handleNtNtCs5GBHJSLTkJw_3syn4expr6MemberNtNtBa_5alloc6GlobalECs39Y7jx17GSw_12serde_derive, symObjAddr: 0xC8, symBinAddr: 0x28FCDC, symSize: 0x64 }
  - { offsetInCU: 0x90DD, offset: 0xA3E87, size: 0x8, addend: 0x0, symName: __RINvNvMs0_NtCsltZDfVD1VKL_5alloc7raw_vecINtB8_6RawVecppE7reserve21do_reserve_and_handleNtNtCs5GBHJSLTkJw_3syn8generics12GenericParamNtNtBa_5alloc6GlobalECs39Y7jx17GSw_12serde_derive, symObjAddr: 0x12C, symBinAddr: 0x28FD40, symSize: 0x64 }
  - { offsetInCU: 0x9155, offset: 0xA3EFF, size: 0x8, addend: 0x0, symName: __RINvNvMs0_NtCsltZDfVD1VKL_5alloc7raw_vecINtB8_6RawVecppE7reserve21do_reserve_and_handleNtNtCs5GBHJSLTkJw_3syn8generics14WherePredicateNtNtBa_5alloc6GlobalECs39Y7jx17GSw_12serde_derive, symObjAddr: 0x190, symBinAddr: 0x28FDA4, symSize: 0x64 }
  - { offsetInCU: 0x91CD, offset: 0xA3F77, size: 0x8, addend: 0x0, symName: __RINvNvMs0_NtCsltZDfVD1VKL_5alloc7raw_vecINtB8_6RawVecppE7reserve21do_reserve_and_handleNtNtNtCs39Y7jx17GSw_12serde_derive9internals3ast5FieldNtNtBa_5alloc6GlobalEB1t_, symObjAddr: 0x1F4, symBinAddr: 0x28FE08, symSize: 0x64 }
  - { offsetInCU: 0x9245, offset: 0xA3FEF, size: 0x8, addend: 0x0, symName: __RINvNvMs0_NtCsltZDfVD1VKL_5alloc7raw_vecINtB8_6RawVecppE7reserve21do_reserve_and_handleNtNtNtCs39Y7jx17GSw_12serde_derive9internals3ast7VariantNtNtBa_5alloc6GlobalEB1t_, symObjAddr: 0x258, symBinAddr: 0x28FE6C, symSize: 0x64 }
  - { offsetInCU: 0x92BD, offset: 0xA4067, size: 0x8, addend: 0x0, symName: __RINvNvMs0_NtCsltZDfVD1VKL_5alloc7raw_vecINtB8_6RawVecppE7reserve21do_reserve_and_handleRNtCs5CKmLD4IrHZ_11proc_macro25IdentNtNtBa_5alloc6GlobalECs39Y7jx17GSw_12serde_derive, symObjAddr: 0x2BC, symBinAddr: 0x28FED0, symSize: 0x64 }
  - { offsetInCU: 0x9335, offset: 0xA40DF, size: 0x8, addend: 0x0, symName: __RINvNvMs0_NtCsltZDfVD1VKL_5alloc7raw_vecINtB8_6RawVecppE7reserve21do_reserve_and_handleRNtNtCs5GBHJSLTkJw_3syn2ty4TypeNtNtBa_5alloc6GlobalECs39Y7jx17GSw_12serde_derive, symObjAddr: 0x320, symBinAddr: 0x28FF34, symSize: 0x64 }
  - { offsetInCU: 0x93AD, offset: 0xA4157, size: 0x8, addend: 0x0, symName: __RINvNvMs0_NtCsltZDfVD1VKL_5alloc7raw_vecINtB8_6RawVecppE7reserve21do_reserve_and_handleRNtNtCs5GBHJSLTkJw_3syn4expr6MemberNtNtBa_5alloc6GlobalECs39Y7jx17GSw_12serde_derive, symObjAddr: 0x384, symBinAddr: 0x28FF98, symSize: 0x64 }
  - { offsetInCU: 0x9425, offset: 0xA41CF, size: 0x8, addend: 0x0, symName: __RINvNvMs0_NtCsltZDfVD1VKL_5alloc7raw_vecINtB8_6RawVecppE7reserve21do_reserve_and_handleTRNtNtNtCs39Y7jx17GSw_12serde_derive9internals3ast5FieldNtCs5CKmLD4IrHZ_11proc_macro25IdentENtNtBa_5alloc6GlobalEB1v_, symObjAddr: 0x3E8, symBinAddr: 0x28FFFC, symSize: 0x64 }
  - { offsetInCU: 0x949D, offset: 0xA4247, size: 0x8, addend: 0x0, symName: __RINvNvMs0_NtCsltZDfVD1VKL_5alloc7raw_vecINtB8_6RawVecppE7reserve21do_reserve_and_handleTReNtCs5CKmLD4IrHZ_11proc_macro25IdentRINtNtNtNtBa_11collections5btree3set8BTreeSetNtNtBa_6string6StringEENtNtBa_5alloc6GlobalECs39Y7jx17GSw_12serde_derive, symObjAddr: 0x44C, symBinAddr: 0x290060, symSize: 0x64 }
  - { offsetInCU: 0xADCD, offset: 0xA5B77, size: 0x8, addend: 0x0, symName: __RNvXs2_NtCsltZDfVD1VKL_5alloc7raw_vecINtB5_6RawVecINtNtB7_3vec3VecNtNtCs5GBHJSLTkJw_3syn8generics14WherePredicateEENtNtNtCs5fsojcNSbun_4core3ops4drop4Drop4dropCs39Y7jx17GSw_12serde_derive, symObjAddr: 0x6BD8, symBinAddr: 0x811C4, symSize: 0x68 }
  - { offsetInCU: 0xAE37, offset: 0xA5BE1, size: 0x8, addend: 0x0, symName: __RNvXs2_NtCsltZDfVD1VKL_5alloc7raw_vecINtB5_6RawVecNtCs5CKmLD4IrHZ_11proc_macro211TokenStreamENtNtNtCs5fsojcNSbun_4core3ops4drop4Drop4dropCs39Y7jx17GSw_12serde_derive, symObjAddr: 0x6C40, symBinAddr: 0x8122C, symSize: 0x68 }
  - { offsetInCU: 0xAEA1, offset: 0xA5C4B, size: 0x8, addend: 0x0, symName: __RNvXs2_NtCsltZDfVD1VKL_5alloc7raw_vecINtB5_6RawVecNtCs5CKmLD4IrHZ_11proc_macro25IdentENtNtNtCs5fsojcNSbun_4core3ops4drop4Drop4dropCs39Y7jx17GSw_12serde_derive, symObjAddr: 0x6CA8, symBinAddr: 0x81294, symSize: 0x68 }
  - { offsetInCU: 0xAF0B, offset: 0xA5CB5, size: 0x8, addend: 0x0, symName: __RNvXs2_NtCsltZDfVD1VKL_5alloc7raw_vecINtB5_6RawVecNtNtB7_6string6StringENtNtNtCs5fsojcNSbun_4core3ops4drop4Drop4dropCs39Y7jx17GSw_12serde_derive, symObjAddr: 0x6D10, symBinAddr: 0x812FC, symSize: 0x68 }
  - { offsetInCU: 0xAF75, offset: 0xA5D1F, size: 0x8, addend: 0x0, symName: __RNvXs2_NtCsltZDfVD1VKL_5alloc7raw_vecINtB5_6RawVecNtNtCs5GBHJSLTkJw_3syn3lit6LitStrENtNtNtCs5fsojcNSbun_4core3ops4drop4Drop4dropCs39Y7jx17GSw_12serde_derive, symObjAddr: 0x6D78, symBinAddr: 0x81364, symSize: 0x68 }
  - { offsetInCU: 0xAFDF, offset: 0xA5D89, size: 0x8, addend: 0x0, symName: __RNvXs2_NtCsltZDfVD1VKL_5alloc7raw_vecINtB5_6RawVecNtNtCs5GBHJSLTkJw_3syn4expr6MemberENtNtNtCs5fsojcNSbun_4core3ops4drop4Drop4dropCs39Y7jx17GSw_12serde_derive, symObjAddr: 0x6DE0, symBinAddr: 0x813CC, symSize: 0x68 }
  - { offsetInCU: 0xB049, offset: 0xA5DF3, size: 0x8, addend: 0x0, symName: __RNvXs2_NtCsltZDfVD1VKL_5alloc7raw_vecINtB5_6RawVecNtNtCs5GBHJSLTkJw_3syn4path11PathSegmentENtNtNtCs5fsojcNSbun_4core3ops4drop4Drop4dropCs39Y7jx17GSw_12serde_derive, symObjAddr: 0x6E48, symBinAddr: 0x81434, symSize: 0x68 }
  - { offsetInCU: 0xB0B3, offset: 0xA5E5D, size: 0x8, addend: 0x0, symName: __RNvXs2_NtCsltZDfVD1VKL_5alloc7raw_vecINtB5_6RawVecNtNtCs5GBHJSLTkJw_3syn5error5ErrorENtNtNtCs5fsojcNSbun_4core3ops4drop4Drop4dropCs39Y7jx17GSw_12serde_derive, symObjAddr: 0x6EB0, symBinAddr: 0x8149C, symSize: 0x68 }
  - { offsetInCU: 0xB11D, offset: 0xA5EC7, size: 0x8, addend: 0x0, symName: __RNvXs2_NtCsltZDfVD1VKL_5alloc7raw_vecINtB5_6RawVecNtNtCs5GBHJSLTkJw_3syn8generics12GenericParamENtNtNtCs5fsojcNSbun_4core3ops4drop4Drop4dropCs39Y7jx17GSw_12serde_derive, symObjAddr: 0x6F18, symBinAddr: 0x81504, symSize: 0x68 }
  - { offsetInCU: 0xB187, offset: 0xA5F31, size: 0x8, addend: 0x0, symName: __RNvXs2_NtCsltZDfVD1VKL_5alloc7raw_vecINtB5_6RawVecNtNtCs5GBHJSLTkJw_3syn8generics14WherePredicateENtNtNtCs5fsojcNSbun_4core3ops4drop4Drop4dropCs39Y7jx17GSw_12serde_derive, symObjAddr: 0x6F80, symBinAddr: 0x8156C, symSize: 0x68 }
  - { offsetInCU: 0xB1F1, offset: 0xA5F9B, size: 0x8, addend: 0x0, symName: __RNvXs2_NtCsltZDfVD1VKL_5alloc7raw_vecINtB5_6RawVecNtNtNtCs39Y7jx17GSw_12serde_derive9internals3ast5FieldENtNtNtCs5fsojcNSbun_4core3ops4drop4Drop4dropBS_, symObjAddr: 0x6FE8, symBinAddr: 0x815D4, symSize: 0x68 }
  - { offsetInCU: 0xB25B, offset: 0xA6005, size: 0x8, addend: 0x0, symName: __RNvXs2_NtCsltZDfVD1VKL_5alloc7raw_vecINtB5_6RawVecNtNtNtCs39Y7jx17GSw_12serde_derive9internals3ast7VariantENtNtNtCs5fsojcNSbun_4core3ops4drop4Drop4dropBS_, symObjAddr: 0x7050, symBinAddr: 0x8163C, symSize: 0x68 }
  - { offsetInCU: 0xB2C5, offset: 0xA606F, size: 0x8, addend: 0x0, symName: __RNvXs2_NtCsltZDfVD1VKL_5alloc7raw_vecINtB5_6RawVecRNtCs5CKmLD4IrHZ_11proc_macro25IdentENtNtNtCs5fsojcNSbun_4core3ops4drop4Drop4dropCs39Y7jx17GSw_12serde_derive, symObjAddr: 0x70B8, symBinAddr: 0x816A4, symSize: 0x68 }
  - { offsetInCU: 0xB32F, offset: 0xA60D9, size: 0x8, addend: 0x0, symName: __RNvXs2_NtCsltZDfVD1VKL_5alloc7raw_vecINtB5_6RawVecRNtNtCs5GBHJSLTkJw_3syn2ty4TypeENtNtNtCs5fsojcNSbun_4core3ops4drop4Drop4dropCs39Y7jx17GSw_12serde_derive, symObjAddr: 0x7120, symBinAddr: 0x8170C, symSize: 0x68 }
  - { offsetInCU: 0xB399, offset: 0xA6143, size: 0x8, addend: 0x0, symName: __RNvXs2_NtCsltZDfVD1VKL_5alloc7raw_vecINtB5_6RawVecRNtNtCs5GBHJSLTkJw_3syn2ty8TypePathENtNtNtCs5fsojcNSbun_4core3ops4drop4Drop4dropCs39Y7jx17GSw_12serde_derive, symObjAddr: 0x7188, symBinAddr: 0x81774, symSize: 0x68 }
  - { offsetInCU: 0xB403, offset: 0xA61AD, size: 0x8, addend: 0x0, symName: __RNvXs2_NtCsltZDfVD1VKL_5alloc7raw_vecINtB5_6RawVecRNtNtCs5GBHJSLTkJw_3syn4expr6MemberENtNtNtCs5fsojcNSbun_4core3ops4drop4Drop4dropCs39Y7jx17GSw_12serde_derive, symObjAddr: 0x71F0, symBinAddr: 0x817DC, symSize: 0x68 }
  - { offsetInCU: 0xB46D, offset: 0xA6217, size: 0x8, addend: 0x0, symName: __RNvXs2_NtCsltZDfVD1VKL_5alloc7raw_vecINtB5_6RawVecTRNtNtNtCs39Y7jx17GSw_12serde_derive9internals3ast5FieldNtCs5CKmLD4IrHZ_11proc_macro25IdentEENtNtNtCs5fsojcNSbun_4core3ops4drop4Drop4dropBU_, symObjAddr: 0x7258, symBinAddr: 0x81844, symSize: 0x68 }
  - { offsetInCU: 0xB4D7, offset: 0xA6281, size: 0x8, addend: 0x0, symName: __RNvXs2_NtCsltZDfVD1VKL_5alloc7raw_vecINtB5_6RawVecTReNtCs5CKmLD4IrHZ_11proc_macro25IdentRINtNtNtNtB7_11collections5btree3set8BTreeSetNtNtB7_6string6StringEEENtNtNtCs5fsojcNSbun_4core3ops4drop4Drop4dropCs39Y7jx17GSw_12serde_derive, symObjAddr: 0x72C0, symBinAddr: 0x818AC, symSize: 0x68 }
  - { offsetInCU: 0xF07B, offset: 0xA9E25, size: 0x8, addend: 0x0, symName: __RNvMs0_NtCsltZDfVD1VKL_5alloc7raw_vecINtB5_6RawVecINtNtB7_3vec3VecNtNtCs5GBHJSLTkJw_3syn8generics14WherePredicateEE14current_memoryCs39Y7jx17GSw_12serde_derive, symObjAddr: 0x4B0, symBinAddr: 0x7AA9C, symSize: 0xA4 }
  - { offsetInCU: 0xF209, offset: 0xA9FB3, size: 0x8, addend: 0x0, symName: __RNvMs0_NtCsltZDfVD1VKL_5alloc7raw_vecINtB5_6RawVecINtNtB7_3vec3VecNtNtCs5GBHJSLTkJw_3syn8generics14WherePredicateEE8grow_oneCs39Y7jx17GSw_12serde_derive, symObjAddr: 0x554, symBinAddr: 0x7AB40, symSize: 0x68 }
  - { offsetInCU: 0xF2E3, offset: 0xAA08D, size: 0x8, addend: 0x0, symName: __RNvMs0_NtCsltZDfVD1VKL_5alloc7raw_vecINtB5_6RawVecNtCs5CKmLD4IrHZ_11proc_macro211TokenStreamE14current_memoryCs39Y7jx17GSw_12serde_derive, symObjAddr: 0x5BC, symBinAddr: 0x7ABA8, symSize: 0xA4 }
  - { offsetInCU: 0xF4F8, offset: 0xAA2A2, size: 0x8, addend: 0x0, symName: __RNvMs0_NtCsltZDfVD1VKL_5alloc7raw_vecINtB5_6RawVecNtCs5CKmLD4IrHZ_11proc_macro211TokenStreamE15try_allocate_inCs39Y7jx17GSw_12serde_derive, symObjAddr: 0x660, symBinAddr: 0x7AC4C, symSize: 0x2CC }
  - { offsetInCU: 0xF81E, offset: 0xAA5C8, size: 0x8, addend: 0x0, symName: __RNvMs0_NtCsltZDfVD1VKL_5alloc7raw_vecINtB5_6RawVecNtCs5CKmLD4IrHZ_11proc_macro211TokenStreamE6new_inCs39Y7jx17GSw_12serde_derive, symObjAddr: 0x92C, symBinAddr: 0x7AF18, symSize: 0x5C }
  - { offsetInCU: 0xF920, offset: 0xAA6CA, size: 0x8, addend: 0x0, symName: __RNvMs0_NtCsltZDfVD1VKL_5alloc7raw_vecINtB5_6RawVecNtCs5CKmLD4IrHZ_11proc_macro211TokenStreamE8grow_oneCs39Y7jx17GSw_12serde_derive, symObjAddr: 0x988, symBinAddr: 0x7AF74, symSize: 0x68 }
  - { offsetInCU: 0xF9FA, offset: 0xAA7A4, size: 0x8, addend: 0x0, symName: __RNvMs0_NtCsltZDfVD1VKL_5alloc7raw_vecINtB5_6RawVecNtCs5CKmLD4IrHZ_11proc_macro25IdentE14current_memoryCs39Y7jx17GSw_12serde_derive, symObjAddr: 0x9F0, symBinAddr: 0x7AFDC, symSize: 0xA4 }
  - { offsetInCU: 0xFBE4, offset: 0xAA98E, size: 0x8, addend: 0x0, symName: __RNvMs0_NtCsltZDfVD1VKL_5alloc7raw_vecINtB5_6RawVecNtCs5CKmLD4IrHZ_11proc_macro25IdentE15try_allocate_inCs39Y7jx17GSw_12serde_derive, symObjAddr: 0xA94, symBinAddr: 0x7B080, symSize: 0x2CC }
  - { offsetInCU: 0xFF0A, offset: 0xAACB4, size: 0x8, addend: 0x0, symName: __RNvMs0_NtCsltZDfVD1VKL_5alloc7raw_vecINtB5_6RawVecNtCs5CKmLD4IrHZ_11proc_macro25IdentE6new_inCs39Y7jx17GSw_12serde_derive, symObjAddr: 0xD60, symBinAddr: 0x7B34C, symSize: 0x5C }
  - { offsetInCU: 0x10086, offset: 0xAAE30, size: 0x8, addend: 0x0, symName: __RNvMs0_NtCsltZDfVD1VKL_5alloc7raw_vecINtB5_6RawVecNtNtB7_6string6StringE14current_memoryCs39Y7jx17GSw_12serde_derive, symObjAddr: 0xDBC, symBinAddr: 0x7B3A8, symSize: 0xA4 }
  - { offsetInCU: 0x10214, offset: 0xAAFBE, size: 0x8, addend: 0x0, symName: __RNvMs0_NtCsltZDfVD1VKL_5alloc7raw_vecINtB5_6RawVecNtNtB7_6string6StringE8grow_oneCs39Y7jx17GSw_12serde_derive, symObjAddr: 0xE60, symBinAddr: 0x7B44C, symSize: 0x68 }
  - { offsetInCU: 0x102EE, offset: 0xAB098, size: 0x8, addend: 0x0, symName: __RNvMs0_NtCsltZDfVD1VKL_5alloc7raw_vecINtB5_6RawVecNtNtCs5GBHJSLTkJw_3syn3lit6LitStrE14current_memoryCs39Y7jx17GSw_12serde_derive, symObjAddr: 0xEC8, symBinAddr: 0x7B4B4, symSize: 0xA0 }
  - { offsetInCU: 0x1047C, offset: 0xAB226, size: 0x8, addend: 0x0, symName: __RNvMs0_NtCsltZDfVD1VKL_5alloc7raw_vecINtB5_6RawVecNtNtCs5GBHJSLTkJw_3syn3lit6LitStrE8grow_oneCs39Y7jx17GSw_12serde_derive, symObjAddr: 0xF68, symBinAddr: 0x7B554, symSize: 0x68 }
  - { offsetInCU: 0x10556, offset: 0xAB300, size: 0x8, addend: 0x0, symName: __RNvMs0_NtCsltZDfVD1VKL_5alloc7raw_vecINtB5_6RawVecNtNtCs5GBHJSLTkJw_3syn4expr6MemberE14current_memoryCs39Y7jx17GSw_12serde_derive, symObjAddr: 0xFD0, symBinAddr: 0x7B5BC, symSize: 0xA4 }
  - { offsetInCU: 0x10740, offset: 0xAB4EA, size: 0x8, addend: 0x0, symName: __RNvMs0_NtCsltZDfVD1VKL_5alloc7raw_vecINtB5_6RawVecNtNtCs5GBHJSLTkJw_3syn4expr6MemberE15try_allocate_inCs39Y7jx17GSw_12serde_derive, symObjAddr: 0x1074, symBinAddr: 0x7B660, symSize: 0x2CC }
  - { offsetInCU: 0x10A55, offset: 0xAB7FF, size: 0x8, addend: 0x0, symName: __RNvMs0_NtCsltZDfVD1VKL_5alloc7raw_vecINtB5_6RawVecNtNtCs5GBHJSLTkJw_3syn4expr6MemberE17from_raw_parts_inCs39Y7jx17GSw_12serde_derive, symObjAddr: 0x1340, symBinAddr: 0x7B92C, symSize: 0x70 }
  - { offsetInCU: 0x10B68, offset: 0xAB912, size: 0x8, addend: 0x0, symName: __RNvMs0_NtCsltZDfVD1VKL_5alloc7raw_vecINtB5_6RawVecNtNtCs5GBHJSLTkJw_3syn4expr6MemberE6new_inCs39Y7jx17GSw_12serde_derive, symObjAddr: 0x13B0, symBinAddr: 0x7B99C, symSize: 0x5C }
  - { offsetInCU: 0x10CE4, offset: 0xABA8E, size: 0x8, addend: 0x0, symName: __RNvMs0_NtCsltZDfVD1VKL_5alloc7raw_vecINtB5_6RawVecNtNtCs5GBHJSLTkJw_3syn4path11PathSegmentE14current_memoryCs39Y7jx17GSw_12serde_derive, symObjAddr: 0x140C, symBinAddr: 0x7B9F8, symSize: 0xA4 }
  - { offsetInCU: 0x10EAC, offset: 0xABC56, size: 0x8, addend: 0x0, symName: __RNvMs0_NtCsltZDfVD1VKL_5alloc7raw_vecINtB5_6RawVecNtNtCs5GBHJSLTkJw_3syn4path11PathSegmentE17from_raw_parts_inCs39Y7jx17GSw_12serde_derive, symObjAddr: 0x14B0, symBinAddr: 0x7BA9C, symSize: 0x70 }
  - { offsetInCU: 0x11029, offset: 0xABDD3, size: 0x8, addend: 0x0, symName: __RNvMs0_NtCsltZDfVD1VKL_5alloc7raw_vecINtB5_6RawVecNtNtCs5GBHJSLTkJw_3syn5error5ErrorE14current_memoryCs39Y7jx17GSw_12serde_derive, symObjAddr: 0x1520, symBinAddr: 0x7BB0C, symSize: 0xA4 }
  - { offsetInCU: 0x111B7, offset: 0xABF61, size: 0x8, addend: 0x0, symName: __RNvMs0_NtCsltZDfVD1VKL_5alloc7raw_vecINtB5_6RawVecNtNtCs5GBHJSLTkJw_3syn5error5ErrorE8grow_oneCs39Y7jx17GSw_12serde_derive, symObjAddr: 0x15C4, symBinAddr: 0x7BBB0, symSize: 0x68 }
  - { offsetInCU: 0x11291, offset: 0xAC03B, size: 0x8, addend: 0x0, symName: __RNvMs0_NtCsltZDfVD1VKL_5alloc7raw_vecINtB5_6RawVecNtNtCs5GBHJSLTkJw_3syn8generics12GenericParamE14current_memoryCs39Y7jx17GSw_12serde_derive, symObjAddr: 0x162C, symBinAddr: 0x7BC18, symSize: 0xA4 }
  - { offsetInCU: 0x1147B, offset: 0xAC225, size: 0x8, addend: 0x0, symName: __RNvMs0_NtCsltZDfVD1VKL_5alloc7raw_vecINtB5_6RawVecNtNtCs5GBHJSLTkJw_3syn8generics12GenericParamE15try_allocate_inCs39Y7jx17GSw_12serde_derive, symObjAddr: 0x16D0, symBinAddr: 0x7BCBC, symSize: 0x2CC }
  - { offsetInCU: 0x117A1, offset: 0xAC54B, size: 0x8, addend: 0x0, symName: __RNvMs0_NtCsltZDfVD1VKL_5alloc7raw_vecINtB5_6RawVecNtNtCs5GBHJSLTkJw_3syn8generics12GenericParamE6new_inCs39Y7jx17GSw_12serde_derive, symObjAddr: 0x199C, symBinAddr: 0x7BF88, symSize: 0x5C }
  - { offsetInCU: 0x118EA, offset: 0xAC694, size: 0x8, addend: 0x0, symName: __RNvMs0_NtCsltZDfVD1VKL_5alloc7raw_vecINtB5_6RawVecNtNtCs5GBHJSLTkJw_3syn8generics14TypeParamBoundE17from_raw_parts_inCs39Y7jx17GSw_12serde_derive, symObjAddr: 0x19F8, symBinAddr: 0x7BFE4, symSize: 0x70 }
  - { offsetInCU: 0x11A2C, offset: 0xAC7D6, size: 0x8, addend: 0x0, symName: __RNvMs0_NtCsltZDfVD1VKL_5alloc7raw_vecINtB5_6RawVecNtNtCs5GBHJSLTkJw_3syn8generics14WherePredicateE14current_memoryCs39Y7jx17GSw_12serde_derive, symObjAddr: 0x1A68, symBinAddr: 0x7C054, symSize: 0xA4 }
  - { offsetInCU: 0x11C16, offset: 0xAC9C0, size: 0x8, addend: 0x0, symName: __RNvMs0_NtCsltZDfVD1VKL_5alloc7raw_vecINtB5_6RawVecNtNtCs5GBHJSLTkJw_3syn8generics14WherePredicateE15try_allocate_inCs39Y7jx17GSw_12serde_derive, symObjAddr: 0x1B0C, symBinAddr: 0x7C0F8, symSize: 0x2CC }
  - { offsetInCU: 0x11F3C, offset: 0xACCE6, size: 0x8, addend: 0x0, symName: __RNvMs0_NtCsltZDfVD1VKL_5alloc7raw_vecINtB5_6RawVecNtNtCs5GBHJSLTkJw_3syn8generics14WherePredicateE6new_inCs39Y7jx17GSw_12serde_derive, symObjAddr: 0x1DD8, symBinAddr: 0x7C3C4, symSize: 0x5C }
  - { offsetInCU: 0x121CF, offset: 0xACF79, size: 0x8, addend: 0x0, symName: __RNvMs0_NtCsltZDfVD1VKL_5alloc7raw_vecINtB5_6RawVecNtNtNtCs39Y7jx17GSw_12serde_derive9internals3ast5FieldE14current_memoryBS_, symObjAddr: 0x1E34, symBinAddr: 0x7C420, symSize: 0xA4 }
  - { offsetInCU: 0x123B9, offset: 0xAD163, size: 0x8, addend: 0x0, symName: __RNvMs0_NtCsltZDfVD1VKL_5alloc7raw_vecINtB5_6RawVecNtNtNtCs39Y7jx17GSw_12serde_derive9internals3ast5FieldE15try_allocate_inBS_, symObjAddr: 0x1ED8, symBinAddr: 0x7C4C4, symSize: 0x2CC }
  - { offsetInCU: 0x126DF, offset: 0xAD489, size: 0x8, addend: 0x0, symName: __RNvMs0_NtCsltZDfVD1VKL_5alloc7raw_vecINtB5_6RawVecNtNtNtCs39Y7jx17GSw_12serde_derive9internals3ast5FieldE6new_inBS_, symObjAddr: 0x21A4, symBinAddr: 0x7C790, symSize: 0x5C }
  - { offsetInCU: 0x128C0, offset: 0xAD66A, size: 0x8, addend: 0x0, symName: __RNvMs0_NtCsltZDfVD1VKL_5alloc7raw_vecINtB5_6RawVecNtNtNtCs39Y7jx17GSw_12serde_derive9internals3ast7VariantE14current_memoryBS_, symObjAddr: 0x2200, symBinAddr: 0x7C7EC, symSize: 0xA4 }
  - { offsetInCU: 0x12AAA, offset: 0xAD854, size: 0x8, addend: 0x0, symName: __RNvMs0_NtCsltZDfVD1VKL_5alloc7raw_vecINtB5_6RawVecNtNtNtCs39Y7jx17GSw_12serde_derive9internals3ast7VariantE15try_allocate_inBS_, symObjAddr: 0x22A4, symBinAddr: 0x7C890, symSize: 0x2CC }
  - { offsetInCU: 0x12DD0, offset: 0xADB7A, size: 0x8, addend: 0x0, symName: __RNvMs0_NtCsltZDfVD1VKL_5alloc7raw_vecINtB5_6RawVecNtNtNtCs39Y7jx17GSw_12serde_derive9internals3ast7VariantE6new_inBS_, symObjAddr: 0x2570, symBinAddr: 0x7CB5C, symSize: 0x5C }
  - { offsetInCU: 0x12F59, offset: 0xADD03, size: 0x8, addend: 0x0, symName: __RNvMs0_NtCsltZDfVD1VKL_5alloc7raw_vecINtB5_6RawVecRNtCs5CKmLD4IrHZ_11proc_macro25IdentE14current_memoryCs39Y7jx17GSw_12serde_derive, symObjAddr: 0x25CC, symBinAddr: 0x7CBB8, symSize: 0xA0 }
  - { offsetInCU: 0x13143, offset: 0xADEED, size: 0x8, addend: 0x0, symName: __RNvMs0_NtCsltZDfVD1VKL_5alloc7raw_vecINtB5_6RawVecRNtCs5CKmLD4IrHZ_11proc_macro25IdentE15try_allocate_inCs39Y7jx17GSw_12serde_derive, symObjAddr: 0x266C, symBinAddr: 0x7CC58, symSize: 0x2C8 }
  - { offsetInCU: 0x13469, offset: 0xAE213, size: 0x8, addend: 0x0, symName: __RNvMs0_NtCsltZDfVD1VKL_5alloc7raw_vecINtB5_6RawVecRNtCs5CKmLD4IrHZ_11proc_macro25IdentE6new_inCs39Y7jx17GSw_12serde_derive, symObjAddr: 0x2934, symBinAddr: 0x7CF20, symSize: 0x5C }
  - { offsetInCU: 0x135E5, offset: 0xAE38F, size: 0x8, addend: 0x0, symName: __RNvMs0_NtCsltZDfVD1VKL_5alloc7raw_vecINtB5_6RawVecRNtNtCs5GBHJSLTkJw_3syn2ty4TypeE14current_memoryCs39Y7jx17GSw_12serde_derive, symObjAddr: 0x2990, symBinAddr: 0x7CF7C, symSize: 0xA0 }
  - { offsetInCU: 0x137CF, offset: 0xAE579, size: 0x8, addend: 0x0, symName: __RNvMs0_NtCsltZDfVD1VKL_5alloc7raw_vecINtB5_6RawVecRNtNtCs5GBHJSLTkJw_3syn2ty4TypeE15try_allocate_inCs39Y7jx17GSw_12serde_derive, symObjAddr: 0x2A30, symBinAddr: 0x7D01C, symSize: 0x2C8 }
  - { offsetInCU: 0x13AF5, offset: 0xAE89F, size: 0x8, addend: 0x0, symName: __RNvMs0_NtCsltZDfVD1VKL_5alloc7raw_vecINtB5_6RawVecRNtNtCs5GBHJSLTkJw_3syn2ty4TypeE6new_inCs39Y7jx17GSw_12serde_derive, symObjAddr: 0x2CF8, symBinAddr: 0x7D2E4, symSize: 0x5C }
  - { offsetInCU: 0x13C7E, offset: 0xAEA28, size: 0x8, addend: 0x0, symName: __RNvMs0_NtCsltZDfVD1VKL_5alloc7raw_vecINtB5_6RawVecRNtNtCs5GBHJSLTkJw_3syn2ty8TypePathE14current_memoryCs39Y7jx17GSw_12serde_derive, symObjAddr: 0x2D54, symBinAddr: 0x7D340, symSize: 0xA0 }
  - { offsetInCU: 0x13E0C, offset: 0xAEBB6, size: 0x8, addend: 0x0, symName: __RNvMs0_NtCsltZDfVD1VKL_5alloc7raw_vecINtB5_6RawVecRNtNtCs5GBHJSLTkJw_3syn2ty8TypePathE8grow_oneCs39Y7jx17GSw_12serde_derive, symObjAddr: 0x2DF4, symBinAddr: 0x7D3E0, symSize: 0x68 }
  - { offsetInCU: 0x13EF3, offset: 0xAEC9D, size: 0x8, addend: 0x0, symName: __RNvMs0_NtCsltZDfVD1VKL_5alloc7raw_vecINtB5_6RawVecRNtNtCs5GBHJSLTkJw_3syn4expr6MemberE14current_memoryCs39Y7jx17GSw_12serde_derive, symObjAddr: 0x2E5C, symBinAddr: 0x7D448, symSize: 0xA0 }
  - { offsetInCU: 0x140DD, offset: 0xAEE87, size: 0x8, addend: 0x0, symName: __RNvMs0_NtCsltZDfVD1VKL_5alloc7raw_vecINtB5_6RawVecRNtNtCs5GBHJSLTkJw_3syn4expr6MemberE15try_allocate_inCs39Y7jx17GSw_12serde_derive, symObjAddr: 0x2EFC, symBinAddr: 0x7D4E8, symSize: 0x2C8 }
  - { offsetInCU: 0x14403, offset: 0xAF1AD, size: 0x8, addend: 0x0, symName: __RNvMs0_NtCsltZDfVD1VKL_5alloc7raw_vecINtB5_6RawVecRNtNtCs5GBHJSLTkJw_3syn4expr6MemberE6new_inCs39Y7jx17GSw_12serde_derive, symObjAddr: 0x31C4, symBinAddr: 0x7D7B0, symSize: 0x5C }
  - { offsetInCU: 0x145AA, offset: 0xAF354, size: 0x8, addend: 0x0, symName: __RNvMs0_NtCsltZDfVD1VKL_5alloc7raw_vecINtB5_6RawVecTRNtNtNtCs39Y7jx17GSw_12serde_derive9internals3ast5FieldNtCs5CKmLD4IrHZ_11proc_macro25IdentEE14current_memoryBU_, symObjAddr: 0x3220, symBinAddr: 0x7D80C, symSize: 0xA4 }
  - { offsetInCU: 0x14794, offset: 0xAF53E, size: 0x8, addend: 0x0, symName: __RNvMs0_NtCsltZDfVD1VKL_5alloc7raw_vecINtB5_6RawVecTRNtNtNtCs39Y7jx17GSw_12serde_derive9internals3ast5FieldNtCs5CKmLD4IrHZ_11proc_macro25IdentEE15try_allocate_inBU_, symObjAddr: 0x32C4, symBinAddr: 0x7D8B0, symSize: 0x2CC }
  - { offsetInCU: 0x14ABA, offset: 0xAF864, size: 0x8, addend: 0x0, symName: __RNvMs0_NtCsltZDfVD1VKL_5alloc7raw_vecINtB5_6RawVecTRNtNtNtCs39Y7jx17GSw_12serde_derive9internals3ast5FieldNtCs5CKmLD4IrHZ_11proc_macro25IdentEE6new_inBU_, symObjAddr: 0x3590, symBinAddr: 0x7DB7C, symSize: 0x5C }
  - { offsetInCU: 0x14C8A, offset: 0xAFA34, size: 0x8, addend: 0x0, symName: __RNvMs0_NtCsltZDfVD1VKL_5alloc7raw_vecINtB5_6RawVecTReNtCs5CKmLD4IrHZ_11proc_macro25IdentRINtNtNtNtB7_11collections5btree3set8BTreeSetNtNtB7_6string6StringEEE14current_memoryCs39Y7jx17GSw_12serde_derive, symObjAddr: 0x35EC, symBinAddr: 0x7DBD8, symSize: 0xA4 }
  - { offsetInCU: 0x14E74, offset: 0xAFC1E, size: 0x8, addend: 0x0, symName: __RNvMs0_NtCsltZDfVD1VKL_5alloc7raw_vecINtB5_6RawVecTReNtCs5CKmLD4IrHZ_11proc_macro25IdentRINtNtNtNtB7_11collections5btree3set8BTreeSetNtNtB7_6string6StringEEE15try_allocate_inCs39Y7jx17GSw_12serde_derive, symObjAddr: 0x3690, symBinAddr: 0x7DC7C, symSize: 0x2CC }
  - { offsetInCU: 0x1519A, offset: 0xAFF44, size: 0x8, addend: 0x0, symName: __RNvMs0_NtCsltZDfVD1VKL_5alloc7raw_vecINtB5_6RawVecTReNtCs5CKmLD4IrHZ_11proc_macro25IdentRINtNtNtNtB7_11collections5btree3set8BTreeSetNtNtB7_6string6StringEEE6new_inCs39Y7jx17GSw_12serde_derive, symObjAddr: 0x395C, symBinAddr: 0x7DF48, symSize: 0x5C }
  - { offsetInCU: 0x15384, offset: 0xB012E, size: 0x8, addend: 0x0, symName: __RNvMs1_NtCsltZDfVD1VKL_5alloc7raw_vecINtB5_6RawVecINtNtB7_3vec3VecNtNtCs5GBHJSLTkJw_3syn8generics14WherePredicateEE14grow_amortizedCs39Y7jx17GSw_12serde_derive, symObjAddr: 0x39B8, symBinAddr: 0x7DFA4, symSize: 0x2F4 }
  - { offsetInCU: 0x15984, offset: 0xB072E, size: 0x8, addend: 0x0, symName: __RNvMs1_NtCsltZDfVD1VKL_5alloc7raw_vecINtB5_6RawVecNtCs5CKmLD4IrHZ_11proc_macro211TokenStreamE14grow_amortizedCs39Y7jx17GSw_12serde_derive, symObjAddr: 0x3CAC, symBinAddr: 0x7E298, symSize: 0x2F4 }
  - { offsetInCU: 0x15F91, offset: 0xB0D3B, size: 0x8, addend: 0x0, symName: __RNvMs1_NtCsltZDfVD1VKL_5alloc7raw_vecINtB5_6RawVecNtCs5CKmLD4IrHZ_11proc_macro25IdentE14grow_amortizedCs39Y7jx17GSw_12serde_derive, symObjAddr: 0x3FA0, symBinAddr: 0x7E58C, symSize: 0x2F4 }
  - { offsetInCU: 0x16591, offset: 0xB133B, size: 0x8, addend: 0x0, symName: __RNvMs1_NtCsltZDfVD1VKL_5alloc7raw_vecINtB5_6RawVecNtNtB7_6string6StringE14grow_amortizedCs39Y7jx17GSw_12serde_derive, symObjAddr: 0x4294, symBinAddr: 0x7E880, symSize: 0x2F4 }
  - { offsetInCU: 0x16B91, offset: 0xB193B, size: 0x8, addend: 0x0, symName: __RNvMs1_NtCsltZDfVD1VKL_5alloc7raw_vecINtB5_6RawVecNtNtCs5GBHJSLTkJw_3syn3lit6LitStrE14grow_amortizedCs39Y7jx17GSw_12serde_derive, symObjAddr: 0x4588, symBinAddr: 0x7EB74, symSize: 0x2F0 }
  - { offsetInCU: 0x1719E, offset: 0xB1F48, size: 0x8, addend: 0x0, symName: __RNvMs1_NtCsltZDfVD1VKL_5alloc7raw_vecINtB5_6RawVecNtNtCs5GBHJSLTkJw_3syn4expr6MemberE14grow_amortizedCs39Y7jx17GSw_12serde_derive, symObjAddr: 0x4878, symBinAddr: 0x7EE64, symSize: 0x2F4 }
  - { offsetInCU: 0x1779E, offset: 0xB2548, size: 0x8, addend: 0x0, symName: __RNvMs1_NtCsltZDfVD1VKL_5alloc7raw_vecINtB5_6RawVecNtNtCs5GBHJSLTkJw_3syn5error5ErrorE14grow_amortizedCs39Y7jx17GSw_12serde_derive, symObjAddr: 0x4B6C, symBinAddr: 0x7F158, symSize: 0x2F4 }
  - { offsetInCU: 0x17DAB, offset: 0xB2B55, size: 0x8, addend: 0x0, symName: __RNvMs1_NtCsltZDfVD1VKL_5alloc7raw_vecINtB5_6RawVecNtNtCs5GBHJSLTkJw_3syn8generics12GenericParamE14grow_amortizedCs39Y7jx17GSw_12serde_derive, symObjAddr: 0x4E60, symBinAddr: 0x7F44C, symSize: 0x2F4 }
  - { offsetInCU: 0x183B8, offset: 0xB3162, size: 0x8, addend: 0x0, symName: __RNvMs1_NtCsltZDfVD1VKL_5alloc7raw_vecINtB5_6RawVecNtNtCs5GBHJSLTkJw_3syn8generics14WherePredicateE14grow_amortizedCs39Y7jx17GSw_12serde_derive, symObjAddr: 0x5154, symBinAddr: 0x7F740, symSize: 0x2F4 }
  - { offsetInCU: 0x189C5, offset: 0xB376F, size: 0x8, addend: 0x0, symName: __RNvMs1_NtCsltZDfVD1VKL_5alloc7raw_vecINtB5_6RawVecNtNtNtCs39Y7jx17GSw_12serde_derive9internals3ast5FieldE14grow_amortizedBS_, symObjAddr: 0x5448, symBinAddr: 0x7FA34, symSize: 0x2F4 }
  - { offsetInCU: 0x18FD2, offset: 0xB3D7C, size: 0x8, addend: 0x0, symName: __RNvMs1_NtCsltZDfVD1VKL_5alloc7raw_vecINtB5_6RawVecNtNtNtCs39Y7jx17GSw_12serde_derive9internals3ast7VariantE14grow_amortizedBS_, symObjAddr: 0x573C, symBinAddr: 0x7FD28, symSize: 0x2F4 }
  - { offsetInCU: 0x195DF, offset: 0xB4389, size: 0x8, addend: 0x0, symName: __RNvMs1_NtCsltZDfVD1VKL_5alloc7raw_vecINtB5_6RawVecRNtCs5CKmLD4IrHZ_11proc_macro25IdentE14grow_amortizedCs39Y7jx17GSw_12serde_derive, symObjAddr: 0x5A30, symBinAddr: 0x8001C, symSize: 0x2F0 }
  - { offsetInCU: 0x19BEC, offset: 0xB4996, size: 0x8, addend: 0x0, symName: __RNvMs1_NtCsltZDfVD1VKL_5alloc7raw_vecINtB5_6RawVecRNtNtCs5GBHJSLTkJw_3syn2ty4TypeE14grow_amortizedCs39Y7jx17GSw_12serde_derive, symObjAddr: 0x5D20, symBinAddr: 0x8030C, symSize: 0x2F0 }
  - { offsetInCU: 0x1A1EC, offset: 0xB4F96, size: 0x8, addend: 0x0, symName: __RNvMs1_NtCsltZDfVD1VKL_5alloc7raw_vecINtB5_6RawVecRNtNtCs5GBHJSLTkJw_3syn2ty8TypePathE14grow_amortizedCs39Y7jx17GSw_12serde_derive, symObjAddr: 0x6010, symBinAddr: 0x805FC, symSize: 0x2F0 }
  - { offsetInCU: 0x1A7F9, offset: 0xB55A3, size: 0x8, addend: 0x0, symName: __RNvMs1_NtCsltZDfVD1VKL_5alloc7raw_vecINtB5_6RawVecRNtNtCs5GBHJSLTkJw_3syn4expr6MemberE14grow_amortizedCs39Y7jx17GSw_12serde_derive, symObjAddr: 0x6300, symBinAddr: 0x808EC, symSize: 0x2F0 }
  - { offsetInCU: 0x1AE06, offset: 0xB5BB0, size: 0x8, addend: 0x0, symName: __RNvMs1_NtCsltZDfVD1VKL_5alloc7raw_vecINtB5_6RawVecTRNtNtNtCs39Y7jx17GSw_12serde_derive9internals3ast5FieldNtCs5CKmLD4IrHZ_11proc_macro25IdentEE14grow_amortizedBU_, symObjAddr: 0x65F0, symBinAddr: 0x80BDC, symSize: 0x2F4 }
  - { offsetInCU: 0x1B413, offset: 0xB61BD, size: 0x8, addend: 0x0, symName: __RNvMs1_NtCsltZDfVD1VKL_5alloc7raw_vecINtB5_6RawVecTReNtCs5CKmLD4IrHZ_11proc_macro25IdentRINtNtNtNtB7_11collections5btree3set8BTreeSetNtNtB7_6string6StringEEE14grow_amortizedCs39Y7jx17GSw_12serde_derive, symObjAddr: 0x68E4, symBinAddr: 0x80ED0, symSize: 0x2F4 }
  - { offsetInCU: 0x1E, offset: 0xB6711, size: 0x8, addend: 0x0, symName: __RINvCs5GBHJSLTkJw_3syn5parseNtNtB2_6derive11DeriveInputECs39Y7jx17GSw_12serde_derive, symObjAddr: 0x0, symBinAddr: 0x81914, symSize: 0x30 }
  - { offsetInCU: 0x89, offset: 0xB677C, size: 0x8, addend: 0x0, symName: __RNvXNvNtNtCsrEL4bNOiaA_3std2io5Write9write_fmtINtB2_7AdapterNtNtNtNtNtB8_3sys3pal4unix5stdio6StderrENtNtCs5fsojcNSbun_4core3fmt5Write9write_strCs39Y7jx17GSw_12serde_derive, symObjAddr: 0x71A8, symBinAddr: 0x88ABC, symSize: 0xB8 }
  - { offsetInCU: 0x1B8C, offset: 0xB827F, size: 0x8, addend: 0x0, symName: __RINvNtCs5fsojcNSbun_4core3ptr13drop_in_placeANtCs5CKmLD4IrHZ_11proc_macro211TokenStreamj1_ECs39Y7jx17GSw_12serde_derive, symObjAddr: 0x584, symBinAddr: 0x81E98, symSize: 0xA4 }
  - { offsetInCU: 0x1BBB, offset: 0xB82AE, size: 0x8, addend: 0x0, symName: __RINvNtCs5fsojcNSbun_4core3ptr13drop_in_placeDNtNtB4_5error5ErrorNtNtB4_6marker4SyncNtB12_4SendEL_ECs39Y7jx17GSw_12serde_derive, symObjAddr: 0x628, symBinAddr: 0x81F3C, symSize: 0x30 }
  - { offsetInCU: 0x1BEA, offset: 0xB82DD, size: 0x8, addend: 0x0, symName: __RINvNtCs5fsojcNSbun_4core3ptr13drop_in_placeDNtNtNtNtB4_4iter6traits8iterator8Iteratorp4ItemRNtNtNtCs39Y7jx17GSw_12serde_derive9internals3ast5FieldEL_EB1z_, symObjAddr: 0x658, symBinAddr: 0x81F6C, symSize: 0x30 }
  - { offsetInCU: 0x1C19, offset: 0xB830C, size: 0x8, addend: 0x0, symName: __RINvNtCs5fsojcNSbun_4core3ptr13drop_in_placeINtNtB4_4cell10UnsafeCellINtNtB4_6option6OptionINtNtCsltZDfVD1VKL_5alloc3vec3VecNtNtCs5GBHJSLTkJw_3syn5error5ErrorEEEECs39Y7jx17GSw_12serde_derive, symObjAddr: 0x688, symBinAddr: 0x81F9C, symSize: 0x24 }
  - { offsetInCU: 0x1C48, offset: 0xB833B, size: 0x8, addend: 0x0, symName: __RINvNtCs5fsojcNSbun_4core3ptr13drop_in_placeINtNtB4_4cell10UnsafeCellNtNtNtCsiy7sGCDxEIm_10proc_macro6bridge6client6BridgeEECs39Y7jx17GSw_12serde_derive, symObjAddr: 0x6AC, symBinAddr: 0x81FC0, symSize: 0x24 }
  - { offsetInCU: 0x1C77, offset: 0xB836A, size: 0x8, addend: 0x0, symName: __RINvNtCs5fsojcNSbun_4core3ptr13drop_in_placeINtNtB4_4cell3RefINtNtB4_6option6OptionINtNtCsltZDfVD1VKL_5alloc3vec3VecNtNtCs5GBHJSLTkJw_3syn5error5ErrorEEEECs39Y7jx17GSw_12serde_derive, symObjAddr: 0x6D0, symBinAddr: 0x81FE4, symSize: 0x24 }
  - { offsetInCU: 0x1CA6, offset: 0xB8399, size: 0x8, addend: 0x0, symName: __RINvNtCs5fsojcNSbun_4core3ptr13drop_in_placeINtNtB4_4cell6RefMutINtNtB4_6option6OptionINtNtCsltZDfVD1VKL_5alloc3vec3VecNtNtCs5GBHJSLTkJw_3syn5error5ErrorEEEECs39Y7jx17GSw_12serde_derive, symObjAddr: 0x6F4, symBinAddr: 0x82008, symSize: 0x24 }
  - { offsetInCU: 0x1CD5, offset: 0xB83C8, size: 0x8, addend: 0x0, symName: __RINvNtCs5fsojcNSbun_4core3ptr13drop_in_placeINtNtB4_4cell7RefCellINtNtB4_6option6OptionINtNtCsltZDfVD1VKL_5alloc3vec3VecNtNtCs5GBHJSLTkJw_3syn5error5ErrorEEEECs39Y7jx17GSw_12serde_derive, symObjAddr: 0x718, symBinAddr: 0x8202C, symSize: 0x24 }
  - { offsetInCU: 0x1D04, offset: 0xB83F7, size: 0x8, addend: 0x0, symName: __RINvNtCs5fsojcNSbun_4core3ptr13drop_in_placeINtNtB4_4cell7RefCellNtNtNtCsiy7sGCDxEIm_10proc_macro6bridge6client6BridgeEECs39Y7jx17GSw_12serde_derive, symObjAddr: 0x73C, symBinAddr: 0x82050, symSize: 0x24 }
  - { offsetInCU: 0x1D33, offset: 0xB8426, size: 0x8, addend: 0x0, symName: __RINvNtCs5fsojcNSbun_4core3ptr13drop_in_placeINtNtB4_6option4ItemNtNtCs5GBHJSLTkJw_3syn8generics12GenericParamEECs39Y7jx17GSw_12serde_derive, symObjAddr: 0x760, symBinAddr: 0x82074, symSize: 0x24 }
  - { offsetInCU: 0x1D62, offset: 0xB8455, size: 0x8, addend: 0x0, symName: __RINvNtCs5fsojcNSbun_4core3ptr13drop_in_placeINtNtB4_6option4ItemNtNtCs5GBHJSLTkJw_3syn8generics14WherePredicateEECs39Y7jx17GSw_12serde_derive, symObjAddr: 0x784, symBinAddr: 0x82098, symSize: 0x24 }
  - { offsetInCU: 0x1D91, offset: 0xB8484, size: 0x8, addend: 0x0, symName: __RINvNtCs5fsojcNSbun_4core3ptr13drop_in_placeINtNtB4_6option6OptionINtBJ_8IntoIterNtNtCs5GBHJSLTkJw_3syn8generics12GenericParamEEECs39Y7jx17GSw_12serde_derive, symObjAddr: 0x7A8, symBinAddr: 0x820BC, symSize: 0x44 }
  - { offsetInCU: 0x1DC0, offset: 0xB84B3, size: 0x8, addend: 0x0, symName: __RINvNtCs5fsojcNSbun_4core3ptr13drop_in_placeINtNtB4_6option6OptionINtNtCs5GBHJSLTkJw_3syn10punctuated8IntoIterNtNtB17_8generics12GenericParamEEECs39Y7jx17GSw_12serde_derive, symObjAddr: 0x7EC, symBinAddr: 0x82100, symSize: 0x44 }
  - { offsetInCU: 0x1DEF, offset: 0xB84E2, size: 0x8, addend: 0x0, symName: __RINvNtCs5fsojcNSbun_4core3ptr13drop_in_placeINtNtB4_6option6OptionINtNtCsltZDfVD1VKL_5alloc3vec3VecNtNtCs5GBHJSLTkJw_3syn5error5ErrorEEECs39Y7jx17GSw_12serde_derive, symObjAddr: 0x830, symBinAddr: 0x82144, symSize: 0x48 }
  - { offsetInCU: 0x1E1E, offset: 0xB8511, size: 0x8, addend: 0x0, symName: __RINvNtCs5fsojcNSbun_4core3ptr13drop_in_placeINtNtB4_6option6OptionINtNtCsltZDfVD1VKL_5alloc3vec3VecNtNtCs5GBHJSLTkJw_3syn8generics14WherePredicateEEECs39Y7jx17GSw_12serde_derive, symObjAddr: 0x878, symBinAddr: 0x8218C, symSize: 0x48 }
  - { offsetInCU: 0x1E4D, offset: 0xB8540, size: 0x8, addend: 0x0, symName: __RINvNtCs5fsojcNSbun_4core3ptr13drop_in_placeINtNtB4_6option6OptionINtNtNtCsltZDfVD1VKL_5alloc3vec9into_iter8IntoIterNtNtCs5GBHJSLTkJw_3syn8generics14WherePredicateEEECs39Y7jx17GSw_12serde_derive, symObjAddr: 0x8C0, symBinAddr: 0x821D4, symSize: 0x44 }
  - { offsetInCU: 0x1E7C, offset: 0xB856F, size: 0x8, addend: 0x0, symName: __RINvNtCs5fsojcNSbun_4core3ptr13drop_in_placeINtNtB4_6option6OptionINtNtNtNtB4_4iter8adapters3map3MapINtNtB17_10filter_map9FilterMapINtNtCsltZDfVD1VKL_5alloc5boxed3BoxDNtNtNtB19_6traits8iterator8Iteratorp4ItemRNtNtNtCs39Y7jx17GSw_12serde_derive9internals3ast5FieldEL_ENCNvNtB3r_5bound33with_where_predicates_from_fields0ENvMNtB2a_5sliceSNtNtCs5GBHJSLTkJw_3syn8generics14WherePredicate6to_vecEEEB3r_, symObjAddr: 0x904, symBinAddr: 0x82218, symSize: 0x44 }
  - { offsetInCU: 0x1EAB, offset: 0xB859E, size: 0x8, addend: 0x0, symName: __RINvNtCs5fsojcNSbun_4core3ptr13drop_in_placeINtNtB4_6option6OptionINtNtNtNtB4_4iter8adapters3map3MapINtNtB17_6cloned6ClonedINtNtCs5GBHJSLTkJw_3syn10punctuated4IterNtNtB22_8generics12GenericParamEENCNvNtCs39Y7jx17GSw_12serde_derive5bound19with_lifetime_bound0EEEB3e_, symObjAddr: 0x948, symBinAddr: 0x8225C, symSize: 0x44 }
  - { offsetInCU: 0x1EDA, offset: 0xB85CD, size: 0x8, addend: 0x0, symName: __RINvNtCs5fsojcNSbun_4core3ptr13drop_in_placeINtNtB4_6option6OptionINtNtNtNtB4_4iter8adapters3map3MapINtNtB17_6filter6FilterIB13_NtNtCs5GBHJSLTkJw_3syn8generics10TypeParamsNCNvNtCs39Y7jx17GSw_12serde_derive5bound10with_bounds1_0ENCB2L_s2_0ENCB2L_s3_0EEEB2P_, symObjAddr: 0x98C, symBinAddr: 0x822A0, symSize: 0x44 }
  - { offsetInCU: 0x1F09, offset: 0xB85FC, size: 0x8, addend: 0x0, symName: __RINvNtCs5fsojcNSbun_4core3ptr13drop_in_placeINtNtB4_6option6OptionINtNtNtNtB4_4iter8adapters6cloned6ClonedINtNtNtCsltZDfVD1VKL_5alloc3vec9into_iter8IntoIterRNtNtCs5GBHJSLTkJw_3syn2ty8TypePathEEEECs39Y7jx17GSw_12serde_derive, symObjAddr: 0x9D0, symBinAddr: 0x822E4, symSize: 0x44 }
  - { offsetInCU: 0x1F38, offset: 0xB862B, size: 0x8, addend: 0x0, symName: __RINvNtCs5fsojcNSbun_4core3ptr13drop_in_placeINtNtB4_6option6OptionINtNtNtNtCsltZDfVD1VKL_5alloc11collections5btree3set8BTreeSetNtNtCs5GBHJSLTkJw_3syn8lifetime8LifetimeEEECs39Y7jx17GSw_12serde_derive, symObjAddr: 0xA14, symBinAddr: 0x82328, symSize: 0x40 }
  - { offsetInCU: 0x1F67, offset: 0xB865A, size: 0x8, addend: 0x0, symName: __RINvNtCs5fsojcNSbun_4core3ptr13drop_in_placeINtNtB4_6option6OptionNtNtCs39Y7jx17GSw_12serde_derive8fragment4ExprEEB16_, symObjAddr: 0xA54, symBinAddr: 0x82368, symSize: 0x44 }
  - { offsetInCU: 0x1F96, offset: 0xB8689, size: 0x8, addend: 0x0, symName: __RINvNtCs5fsojcNSbun_4core3ptr13drop_in_placeINtNtB4_6option6OptionNtNtCs39Y7jx17GSw_12serde_derive8fragment5StmtsEEB16_, symObjAddr: 0xA98, symBinAddr: 0x823AC, symSize: 0x44 }
  - { offsetInCU: 0x1FC5, offset: 0xB86B8, size: 0x8, addend: 0x0, symName: __RINvNtCs5fsojcNSbun_4core3ptr13drop_in_placeINtNtB4_6option6OptionNtNtCs5GBHJSLTkJw_3syn2ty8TypePathEECs39Y7jx17GSw_12serde_derive, symObjAddr: 0xADC, symBinAddr: 0x823F0, symSize: 0x48 }
  - { offsetInCU: 0x1FF4, offset: 0xB86E7, size: 0x8, addend: 0x0, symName: __RINvNtCs5fsojcNSbun_4core3ptr13drop_in_placeINtNtB4_6option6OptionNtNtCs5GBHJSLTkJw_3syn4expr8ExprPathEECs39Y7jx17GSw_12serde_derive, symObjAddr: 0xB24, symBinAddr: 0x82438, symSize: 0x48 }
  - { offsetInCU: 0x2023, offset: 0xB8716, size: 0x8, addend: 0x0, symName: __RINvNtCs5fsojcNSbun_4core3ptr13drop_in_placeINtNtB4_6option6OptionNtNtCs5GBHJSLTkJw_3syn4path4PathEECs39Y7jx17GSw_12serde_derive, symObjAddr: 0xB6C, symBinAddr: 0x82480, symSize: 0x48 }
  - { offsetInCU: 0x2052, offset: 0xB8745, size: 0x8, addend: 0x0, symName: __RINvNtCs5fsojcNSbun_4core3ptr13drop_in_placeINtNtB4_6option6OptionNtNtCs5GBHJSLTkJw_3syn8generics12GenericParamEECs39Y7jx17GSw_12serde_derive, symObjAddr: 0xBB4, symBinAddr: 0x824C8, symSize: 0x44 }
  - { offsetInCU: 0x2081, offset: 0xB8774, size: 0x8, addend: 0x0, symName: __RINvNtCs5fsojcNSbun_4core3ptr13drop_in_placeINtNtB4_6option6OptionNtNtCs5GBHJSLTkJw_3syn8generics13LifetimeParamEECs39Y7jx17GSw_12serde_derive, symObjAddr: 0xBF8, symBinAddr: 0x8250C, symSize: 0x48 }
  - { offsetInCU: 0x20B0, offset: 0xB87A3, size: 0x8, addend: 0x0, symName: __RINvNtCs5fsojcNSbun_4core3ptr13drop_in_placeINtNtB4_6option6OptionNtNtCs5GBHJSLTkJw_3syn8generics14WherePredicateEECs39Y7jx17GSw_12serde_derive, symObjAddr: 0xC40, symBinAddr: 0x82554, symSize: 0x44 }
  - { offsetInCU: 0x20DF, offset: 0xB87D2, size: 0x8, addend: 0x0, symName: __RINvNtCs5fsojcNSbun_4core3ptr13drop_in_placeINtNtB4_6option6OptionNtNtCsltZDfVD1VKL_5alloc6string6StringEECs39Y7jx17GSw_12serde_derive, symObjAddr: 0xC84, symBinAddr: 0x82598, symSize: 0x48 }
  - { offsetInCU: 0x210E, offset: 0xB8801, size: 0x8, addend: 0x0, symName: __RINvNtCs5fsojcNSbun_4core3ptr13drop_in_placeINtNtB4_6option6OptionNtNtNtCs39Y7jx17GSw_12serde_derive9internals3ast5FieldEEB18_, symObjAddr: 0xCCC, symBinAddr: 0x825E0, symSize: 0x48 }
  - { offsetInCU: 0x213D, offset: 0xB8830, size: 0x8, addend: 0x0, symName: __RINvNtCs5fsojcNSbun_4core3ptr13drop_in_placeINtNtB4_6option6OptionNtNtNtCs39Y7jx17GSw_12serde_derive9internals3ast7VariantEEB18_, symObjAddr: 0xD14, symBinAddr: 0x82628, symSize: 0x44 }
  - { offsetInCU: 0x216C, offset: 0xB885F, size: 0x8, addend: 0x0, symName: __RINvNtCs5fsojcNSbun_4core3ptr13drop_in_placeINtNtB4_6option6OptionNtNtNtCs39Y7jx17GSw_12serde_derive9internals4attr15BorrowAttributeEEB18_, symObjAddr: 0xD58, symBinAddr: 0x8266C, symSize: 0x44 }
  - { offsetInCU: 0x219B, offset: 0xB888E, size: 0x8, addend: 0x0, symName: __RINvNtCs5fsojcNSbun_4core3ptr13drop_in_placeINtNtB4_6option6OptionNtNtNtCs39Y7jx17GSw_12serde_derive9internals4attr7DefaultEEB18_, symObjAddr: 0xD9C, symBinAddr: 0x826B0, symSize: 0x4C }
  - { offsetInCU: 0x21CA, offset: 0xB88BD, size: 0x8, addend: 0x0, symName: __RINvNtCs5fsojcNSbun_4core3ptr13drop_in_placeINtNtB4_6option6OptionTNtCs5CKmLD4IrHZ_11proc_macro211TokenStreamNtNtCsltZDfVD1VKL_5alloc6string6StringEEECs39Y7jx17GSw_12serde_derive, symObjAddr: 0xDE8, symBinAddr: 0x826FC, symSize: 0x48 }
  - { offsetInCU: 0x21F9, offset: 0xB88EC, size: 0x8, addend: 0x0, symName: __RINvNtCs5fsojcNSbun_4core3ptr13drop_in_placeINtNtB4_6option6OptionTNtCs5CKmLD4IrHZ_11proc_macro211TokenStreamuEEECs39Y7jx17GSw_12serde_derive, symObjAddr: 0xE30, symBinAddr: 0x82744, symSize: 0x48 }
  - { offsetInCU: 0x2228, offset: 0xB891B, size: 0x8, addend: 0x0, symName: __RINvNtCs5fsojcNSbun_4core3ptr13drop_in_placeINtNtB4_6option6OptionTNtNtCs5GBHJSLTkJw_3syn8generics12GenericParamNtNtB17_5token5CommaEEECs39Y7jx17GSw_12serde_derive, symObjAddr: 0xE78, symBinAddr: 0x8278C, symSize: 0x44 }
  - { offsetInCU: 0x2257, offset: 0xB894A, size: 0x8, addend: 0x0, symName: __RINvNtCs5fsojcNSbun_4core3ptr13drop_in_placeINtNtB4_6option6OptionTNtNtCs5GBHJSLTkJw_3syn8generics14WherePredicateNtNtB17_5token5CommaEEECs39Y7jx17GSw_12serde_derive, symObjAddr: 0xEBC, symBinAddr: 0x827D0, symSize: 0x44 }
  - { offsetInCU: 0x2286, offset: 0xB8979, size: 0x8, addend: 0x0, symName: __RINvNtCs5fsojcNSbun_4core3ptr13drop_in_placeINtNtB4_6option6OptionTReNtCs5CKmLD4IrHZ_11proc_macro25IdentRINtNtNtNtCsltZDfVD1VKL_5alloc11collections5btree3set8BTreeSetNtNtB1O_6string6StringEEEECs39Y7jx17GSw_12serde_derive, symObjAddr: 0xF00, symBinAddr: 0x82814, symSize: 0x48 }
  - { offsetInCU: 0x22B5, offset: 0xB89A8, size: 0x8, addend: 0x0, symName: __RINvNtCs5fsojcNSbun_4core3ptr13drop_in_placeINtNtB4_6option8IntoIterNtNtCs5GBHJSLTkJw_3syn8generics12GenericParamEECs39Y7jx17GSw_12serde_derive, symObjAddr: 0xF48, symBinAddr: 0x8285C, symSize: 0x24 }
  - { offsetInCU: 0x22E4, offset: 0xB89D7, size: 0x8, addend: 0x0, symName: __RINvNtCs5fsojcNSbun_4core3ptr13drop_in_placeINtNtB4_6option8IntoIterNtNtCs5GBHJSLTkJw_3syn8generics14WherePredicateEECs39Y7jx17GSw_12serde_derive, symObjAddr: 0xF6C, symBinAddr: 0x82880, symSize: 0x24 }
  - { offsetInCU: 0x2313, offset: 0xB8A06, size: 0x8, addend: 0x0, symName: __RINvNtCs5fsojcNSbun_4core3ptr13drop_in_placeINtNtB4_6result6ResultINtNtNtNtCsltZDfVD1VKL_5alloc11collections5btree3set8BTreeSetNtNtCs5GBHJSLTkJw_3syn8lifetime8LifetimeENtNtB25_5error5ErrorEECs39Y7jx17GSw_12serde_derive, symObjAddr: 0xF90, symBinAddr: 0x828A4, symSize: 0x50 }
  - { offsetInCU: 0x2342, offset: 0xB8A35, size: 0x8, addend: 0x0, symName: __RINvNtCs5fsojcNSbun_4core3ptr13drop_in_placeINtNtB4_6result6ResultNtNtCs5GBHJSLTkJw_3syn2ty4TypeNtNtB16_5error5ErrorEECs39Y7jx17GSw_12serde_derive, symObjAddr: 0xFE0, symBinAddr: 0x828F4, symSize: 0x58 }
  - { offsetInCU: 0x2371, offset: 0xB8A64, size: 0x8, addend: 0x0, symName: __RINvNtCs5fsojcNSbun_4core3ptr13drop_in_placeINtNtB4_6result6ResultNtNtCs5GBHJSLTkJw_3syn4expr8ExprPathNtNtB16_5error5ErrorEECs39Y7jx17GSw_12serde_derive, symObjAddr: 0x1038, symBinAddr: 0x8294C, symSize: 0x5C }
  - { offsetInCU: 0x23A0, offset: 0xB8A93, size: 0x8, addend: 0x0, symName: __RINvNtCs5fsojcNSbun_4core3ptr13drop_in_placeINtNtB4_6result6ResultNtNtCs5GBHJSLTkJw_3syn4path4PathNtNtB16_5error5ErrorEECs39Y7jx17GSw_12serde_derive, symObjAddr: 0x1094, symBinAddr: 0x829A8, symSize: 0x5C }
  - { offsetInCU: 0x23CF, offset: 0xB8AC2, size: 0x8, addend: 0x0, symName: __RINvNtCs5fsojcNSbun_4core3ptr13drop_in_placeINtNtB4_6result6ResultuINtNtCsltZDfVD1VKL_5alloc5boxed3BoxDNtNtB4_3any3AnyNtNtB4_6marker4SendEL_EEECs39Y7jx17GSw_12serde_derive, symObjAddr: 0x10F0, symBinAddr: 0x82A04, symSize: 0x44 }
  - { offsetInCU: 0x23FE, offset: 0xB8AF1, size: 0x8, addend: 0x0, symName: __RINvNtCs5fsojcNSbun_4core3ptr13drop_in_placeINtNtB4_6result6ResultuNtNtNtCsrEL4bNOiaA_3std2io5error5ErrorEECs39Y7jx17GSw_12serde_derive, symObjAddr: 0x1134, symBinAddr: 0x82A48, symSize: 0x44 }
  - { offsetInCU: 0x242D, offset: 0xB8B20, size: 0x8, addend: 0x0, symName: __RINvNtCs5fsojcNSbun_4core3ptr13drop_in_placeINtNtCs5GBHJSLTkJw_3syn10punctuated11PrivateIterNtNtBL_2ty4TypeNtNtBL_5token5CommaEECs39Y7jx17GSw_12serde_derive, symObjAddr: 0x1178, symBinAddr: 0x82A8C, symSize: 0x10 }
  - { offsetInCU: 0x245C, offset: 0xB8B4F, size: 0x8, addend: 0x0, symName: __RINvNtCs5fsojcNSbun_4core3ptr13drop_in_placeINtNtCs5GBHJSLTkJw_3syn10punctuated11PrivateIterNtNtBL_2ty9BareFnArgNtNtBL_5token5CommaEECs39Y7jx17GSw_12serde_derive, symObjAddr: 0x1188, symBinAddr: 0x82A9C, symSize: 0x10 }
  - { offsetInCU: 0x248B, offset: 0xB8B7E, size: 0x8, addend: 0x0, symName: __RINvNtCs5fsojcNSbun_4core3ptr13drop_in_placeINtNtCs5GBHJSLTkJw_3syn10punctuated11PrivateIterNtNtBL_4data7VariantNtNtBL_5token5CommaEECs39Y7jx17GSw_12serde_derive, symObjAddr: 0x1198, symBinAddr: 0x82AAC, symSize: 0x10 }
  - { offsetInCU: 0x24BA, offset: 0xB8BAD, size: 0x8, addend: 0x0, symName: __RINvNtCs5fsojcNSbun_4core3ptr13drop_in_placeINtNtCs5GBHJSLTkJw_3syn10punctuated11PrivateIterNtNtBL_4path15GenericArgumentNtNtBL_5token5CommaEECs39Y7jx17GSw_12serde_derive, symObjAddr: 0x11A8, symBinAddr: 0x82ABC, symSize: 0x10 }
  - { offsetInCU: 0x24E9, offset: 0xB8BDC, size: 0x8, addend: 0x0, symName: __RINvNtCs5fsojcNSbun_4core3ptr13drop_in_placeINtNtCs5GBHJSLTkJw_3syn10punctuated14PrivateIterMutNtNtBL_2ty4TypeNtNtBL_5token5CommaEECs39Y7jx17GSw_12serde_derive, symObjAddr: 0x11B8, symBinAddr: 0x82ACC, symSize: 0x10 }
  - { offsetInCU: 0x2518, offset: 0xB8C0B, size: 0x8, addend: 0x0, symName: __RINvNtCs5fsojcNSbun_4core3ptr13drop_in_placeINtNtCs5GBHJSLTkJw_3syn10punctuated14PrivateIterMutNtNtBL_2ty9BareFnArgNtNtBL_5token5CommaEECs39Y7jx17GSw_12serde_derive, symObjAddr: 0x11C8, symBinAddr: 0x82ADC, symSize: 0x10 }
  - { offsetInCU: 0x2547, offset: 0xB8C3A, size: 0x8, addend: 0x0, symName: __RINvNtCs5fsojcNSbun_4core3ptr13drop_in_placeINtNtCs5GBHJSLTkJw_3syn10punctuated14PrivateIterMutNtNtBL_4data7VariantNtNtBL_5token5CommaEECs39Y7jx17GSw_12serde_derive, symObjAddr: 0x11D8, symBinAddr: 0x82AEC, symSize: 0x10 }
  - { offsetInCU: 0x2576, offset: 0xB8C69, size: 0x8, addend: 0x0, symName: __RINvNtCs5fsojcNSbun_4core3ptr13drop_in_placeINtNtCs5GBHJSLTkJw_3syn10punctuated14PrivateIterMutNtNtBL_4expr4ExprNtNtBL_5token5CommaEECs39Y7jx17GSw_12serde_derive, symObjAddr: 0x11E8, symBinAddr: 0x82AFC, symSize: 0x10 }
  - { offsetInCU: 0x25A5, offset: 0xB8C98, size: 0x8, addend: 0x0, symName: __RINvNtCs5fsojcNSbun_4core3ptr13drop_in_placeINtNtCs5GBHJSLTkJw_3syn10punctuated14PrivateIterMutNtNtBL_4path15GenericArgumentNtNtBL_5token5CommaEECs39Y7jx17GSw_12serde_derive, symObjAddr: 0x11F8, symBinAddr: 0x82B0C, symSize: 0x10 }
  - { offsetInCU: 0x25D4, offset: 0xB8CC7, size: 0x8, addend: 0x0, symName: __RINvNtCs5fsojcNSbun_4core3ptr13drop_in_placeINtNtCs5GBHJSLTkJw_3syn10punctuated14PrivateIterMutNtNtBL_8generics14TypeParamBoundNtNtBL_5token4PlusEECs39Y7jx17GSw_12serde_derive, symObjAddr: 0x1208, symBinAddr: 0x82B1C, symSize: 0x10 }
  - { offsetInCU: 0x2603, offset: 0xB8CF6, size: 0x8, addend: 0x0, symName: __RINvNtCs5fsojcNSbun_4core3ptr13drop_in_placeINtNtCs5GBHJSLTkJw_3syn10punctuated14PrivateIterMutNtNtBL_8generics14WherePredicateNtNtBL_5token5CommaEECs39Y7jx17GSw_12serde_derive, symObjAddr: 0x1218, symBinAddr: 0x82B2C, symSize: 0x10 }
  - { offsetInCU: 0x2632, offset: 0xB8D25, size: 0x8, addend: 0x0, symName: __RINvNtCs5fsojcNSbun_4core3ptr13drop_in_placeINtNtCs5GBHJSLTkJw_3syn10punctuated4IterNtNtBL_2ty4TypeEECs39Y7jx17GSw_12serde_derive, symObjAddr: 0x1228, symBinAddr: 0x82B3C, symSize: 0x24 }
  - { offsetInCU: 0x2661, offset: 0xB8D54, size: 0x8, addend: 0x0, symName: __RINvNtCs5fsojcNSbun_4core3ptr13drop_in_placeINtNtCs5GBHJSLTkJw_3syn10punctuated4IterNtNtBL_2ty9BareFnArgEECs39Y7jx17GSw_12serde_derive, symObjAddr: 0x124C, symBinAddr: 0x82B60, symSize: 0x24 }
  - { offsetInCU: 0x2690, offset: 0xB8D83, size: 0x8, addend: 0x0, symName: __RINvNtCs5fsojcNSbun_4core3ptr13drop_in_placeINtNtCs5GBHJSLTkJw_3syn10punctuated4IterNtNtBL_4data5FieldEECs39Y7jx17GSw_12serde_derive, symObjAddr: 0x1270, symBinAddr: 0x82B84, symSize: 0x24 }
  - { offsetInCU: 0x26BF, offset: 0xB8DB2, size: 0x8, addend: 0x0, symName: __RINvNtCs5fsojcNSbun_4core3ptr13drop_in_placeINtNtCs5GBHJSLTkJw_3syn10punctuated4IterNtNtBL_4data7VariantEECs39Y7jx17GSw_12serde_derive, symObjAddr: 0x1294, symBinAddr: 0x82BA8, symSize: 0x24 }
  - { offsetInCU: 0x26EE, offset: 0xB8DE1, size: 0x8, addend: 0x0, symName: __RINvNtCs5fsojcNSbun_4core3ptr13drop_in_placeINtNtCs5GBHJSLTkJw_3syn10punctuated4IterNtNtBL_4path15GenericArgumentEECs39Y7jx17GSw_12serde_derive, symObjAddr: 0x12B8, symBinAddr: 0x82BCC, symSize: 0x24 }
  - { offsetInCU: 0x271D, offset: 0xB8E10, size: 0x8, addend: 0x0, symName: __RINvNtCs5fsojcNSbun_4core3ptr13drop_in_placeINtNtCs5GBHJSLTkJw_3syn10punctuated7IterMutNtNtBL_2ty4TypeEECs39Y7jx17GSw_12serde_derive, symObjAddr: 0x12DC, symBinAddr: 0x82BF0, symSize: 0x24 }
  - { offsetInCU: 0x274C, offset: 0xB8E3F, size: 0x8, addend: 0x0, symName: __RINvNtCs5fsojcNSbun_4core3ptr13drop_in_placeINtNtCs5GBHJSLTkJw_3syn10punctuated7IterMutNtNtBL_2ty9BareFnArgEECs39Y7jx17GSw_12serde_derive, symObjAddr: 0x1300, symBinAddr: 0x82C14, symSize: 0x24 }
  - { offsetInCU: 0x277B, offset: 0xB8E6E, size: 0x8, addend: 0x0, symName: __RINvNtCs5fsojcNSbun_4core3ptr13drop_in_placeINtNtCs5GBHJSLTkJw_3syn10punctuated7IterMutNtNtBL_4data5FieldEECs39Y7jx17GSw_12serde_derive, symObjAddr: 0x1324, symBinAddr: 0x82C38, symSize: 0x24 }
  - { offsetInCU: 0x27AA, offset: 0xB8E9D, size: 0x8, addend: 0x0, symName: __RINvNtCs5fsojcNSbun_4core3ptr13drop_in_placeINtNtCs5GBHJSLTkJw_3syn10punctuated7IterMutNtNtBL_4data7VariantEECs39Y7jx17GSw_12serde_derive, symObjAddr: 0x1348, symBinAddr: 0x82C5C, symSize: 0x24 }
  - { offsetInCU: 0x27D9, offset: 0xB8ECC, size: 0x8, addend: 0x0, symName: __RINvNtCs5fsojcNSbun_4core3ptr13drop_in_placeINtNtCs5GBHJSLTkJw_3syn10punctuated7IterMutNtNtBL_4expr4ExprEECs39Y7jx17GSw_12serde_derive, symObjAddr: 0x136C, symBinAddr: 0x82C80, symSize: 0x24 }
  - { offsetInCU: 0x2808, offset: 0xB8EFB, size: 0x8, addend: 0x0, symName: __RINvNtCs5fsojcNSbun_4core3ptr13drop_in_placeINtNtCs5GBHJSLTkJw_3syn10punctuated7IterMutNtNtBL_4path15GenericArgumentEECs39Y7jx17GSw_12serde_derive, symObjAddr: 0x1390, symBinAddr: 0x82CA4, symSize: 0x24 }
  - { offsetInCU: 0x2837, offset: 0xB8F2A, size: 0x8, addend: 0x0, symName: __RINvNtCs5fsojcNSbun_4core3ptr13drop_in_placeINtNtCs5GBHJSLTkJw_3syn10punctuated7IterMutNtNtBL_8generics14TypeParamBoundEECs39Y7jx17GSw_12serde_derive, symObjAddr: 0x13B4, symBinAddr: 0x82CC8, symSize: 0x24 }
  - { offsetInCU: 0x2866, offset: 0xB8F59, size: 0x8, addend: 0x0, symName: __RINvNtCs5fsojcNSbun_4core3ptr13drop_in_placeINtNtCs5GBHJSLTkJw_3syn10punctuated7IterMutNtNtBL_8generics14WherePredicateEECs39Y7jx17GSw_12serde_derive, symObjAddr: 0x13D8, symBinAddr: 0x82CEC, symSize: 0x24 }
  - { offsetInCU: 0x2895, offset: 0xB8F88, size: 0x8, addend: 0x0, symName: __RINvNtCs5fsojcNSbun_4core3ptr13drop_in_placeINtNtCs5GBHJSLTkJw_3syn10punctuated8IntoIterNtNtBL_8generics12GenericParamEECs39Y7jx17GSw_12serde_derive, symObjAddr: 0x13FC, symBinAddr: 0x82D10, symSize: 0x24 }
  - { offsetInCU: 0x28C4, offset: 0xB8FB7, size: 0x8, addend: 0x0, symName: __RINvNtCs5fsojcNSbun_4core3ptr13drop_in_placeINtNtCs5GBHJSLTkJw_3syn10punctuated8IntoIterNtNtBL_8generics14WherePredicateEECs39Y7jx17GSw_12serde_derive, symObjAddr: 0x1420, symBinAddr: 0x82D34, symSize: 0x24 }
  - { offsetInCU: 0x28F3, offset: 0xB8FE6, size: 0x8, addend: 0x0, symName: __RINvNtCs5fsojcNSbun_4core3ptr13drop_in_placeINtNtCs8wgAxfFqjdh_9hashbrown10scopeguard10ScopeGuardNtNtBL_3raw13RawTableInnerNCINvMsa_B1z_B1x_14prepare_resizeNtNtCsltZDfVD1VKL_5alloc5alloc6GlobalE0EECs39Y7jx17GSw_12serde_derive, symObjAddr: 0x1444, symBinAddr: 0x82D58, symSize: 0x24 }
  - { offsetInCU: 0x2922, offset: 0xB9015, size: 0x8, addend: 0x0, symName: __RINvNtCs5fsojcNSbun_4core3ptr13drop_in_placeINtNtCs8wgAxfFqjdh_9hashbrown10scopeguard10ScopeGuardQNtNtBL_3raw13RawTableInnerNCNvMsa_B1A_B1y_15rehash_in_place0EECs39Y7jx17GSw_12serde_derive, symObjAddr: 0x1468, symBinAddr: 0x82D7C, symSize: 0x24 }
  - { offsetInCU: 0x2951, offset: 0xB9044, size: 0x8, addend: 0x0, symName: __RINvNtCs5fsojcNSbun_4core3ptr13drop_in_placeINtNtCs8wgAxfFqjdh_9hashbrown3map7HashMapNtCs5CKmLD4IrHZ_11proc_macro25IdentuNtNtNtCsrEL4bNOiaA_3std4hash6random11RandomStateEECs39Y7jx17GSw_12serde_derive, symObjAddr: 0x148C, symBinAddr: 0x82DA0, symSize: 0x24 }
  - { offsetInCU: 0x2980, offset: 0xB9073, size: 0x8, addend: 0x0, symName: __RINvNtCs5fsojcNSbun_4core3ptr13drop_in_placeINtNtCs8wgAxfFqjdh_9hashbrown3raw8RawTableTNtCs5CKmLD4IrHZ_11proc_macro25IdentuEEECs39Y7jx17GSw_12serde_derive, symObjAddr: 0x14B0, symBinAddr: 0x82DC4, symSize: 0x24 }
  - { offsetInCU: 0x29AF, offset: 0xB90A2, size: 0x8, addend: 0x0, symName: __RINvNtCs5fsojcNSbun_4core3ptr13drop_in_placeINtNtCs8wgAxfFqjdh_9hashbrown3set7HashSetNtCs5CKmLD4IrHZ_11proc_macro25IdentNtNtNtCsrEL4bNOiaA_3std4hash6random11RandomStateEECs39Y7jx17GSw_12serde_derive, symObjAddr: 0x14D4, symBinAddr: 0x82DE8, symSize: 0x24 }
  - { offsetInCU: 0x29DE, offset: 0xB90D1, size: 0x8, addend: 0x0, symName: __RINvNtCs5fsojcNSbun_4core3ptr13drop_in_placeINtNtCshYXbwB3frNp_5quote9___private9RepInterpNtCs5CKmLD4IrHZ_11proc_macro211TokenStreamEECs39Y7jx17GSw_12serde_derive, symObjAddr: 0x14F8, symBinAddr: 0x82E0C, symSize: 0x24 }
  - { offsetInCU: 0x2A0D, offset: 0xB9100, size: 0x8, addend: 0x0, symName: __RINvNtCs5fsojcNSbun_4core3ptr13drop_in_placeINtNtCshYXbwB3frNp_5quote9___private9RepInterpNtCs5CKmLD4IrHZ_11proc_macro25IdentEECs39Y7jx17GSw_12serde_derive, symObjAddr: 0x151C, symBinAddr: 0x82E30, symSize: 0x24 }
  - { offsetInCU: 0x2A3C, offset: 0xB912F, size: 0x8, addend: 0x0, symName: __RINvNtCs5fsojcNSbun_4core3ptr13drop_in_placeINtNtCshYXbwB3frNp_5quote9___private9RepInterpNtCs5CKmLD4IrHZ_11proc_macro27LiteralEECs39Y7jx17GSw_12serde_derive, symObjAddr: 0x1540, symBinAddr: 0x82E54, symSize: 0x24 }
  - { offsetInCU: 0x2A6B, offset: 0xB915E, size: 0x8, addend: 0x0, symName: __RINvNtCs5fsojcNSbun_4core3ptr13drop_in_placeINtNtCshYXbwB3frNp_5quote9___private9RepInterpNtNtCs39Y7jx17GSw_12serde_derive8fragment4ExprEEB1u_, symObjAddr: 0x1564, symBinAddr: 0x82E78, symSize: 0x24 }
  - { offsetInCU: 0x2A9A, offset: 0xB918D, size: 0x8, addend: 0x0, symName: __RINvNtCs5fsojcNSbun_4core3ptr13drop_in_placeINtNtCshYXbwB3frNp_5quote9___private9RepInterpNtNtCs5GBHJSLTkJw_3syn4expr6MemberEECs39Y7jx17GSw_12serde_derive, symObjAddr: 0x1588, symBinAddr: 0x82E9C, symSize: 0x24 }
  - { offsetInCU: 0x2AC9, offset: 0xB91BC, size: 0x8, addend: 0x0, symName: __RINvNtCs5fsojcNSbun_4core3ptr13drop_in_placeINtNtCsltZDfVD1VKL_5alloc3vec3VecIBH_NtNtCs5GBHJSLTkJw_3syn8generics14WherePredicateEEECs39Y7jx17GSw_12serde_derive, symObjAddr: 0x15AC, symBinAddr: 0x82EC0, symSize: 0x5C }
  - { offsetInCU: 0x2AF8, offset: 0xB91EB, size: 0x8, addend: 0x0, symName: __RINvNtCs5fsojcNSbun_4core3ptr13drop_in_placeINtNtCsltZDfVD1VKL_5alloc3vec3VecNtCs5CKmLD4IrHZ_11proc_macro211TokenStreamEECs39Y7jx17GSw_12serde_derive, symObjAddr: 0x1608, symBinAddr: 0x82F1C, symSize: 0x5C }
  - { offsetInCU: 0x2B27, offset: 0xB921A, size: 0x8, addend: 0x0, symName: __RINvNtCs5fsojcNSbun_4core3ptr13drop_in_placeINtNtCsltZDfVD1VKL_5alloc3vec3VecNtCs5CKmLD4IrHZ_11proc_macro25IdentEECs39Y7jx17GSw_12serde_derive, symObjAddr: 0x1664, symBinAddr: 0x82F78, symSize: 0x5C }
  - { offsetInCU: 0x2B56, offset: 0xB9249, size: 0x8, addend: 0x0, symName: __RINvNtCs5fsojcNSbun_4core3ptr13drop_in_placeINtNtCsltZDfVD1VKL_5alloc3vec3VecNtNtBL_6string6StringEECs39Y7jx17GSw_12serde_derive, symObjAddr: 0x16C0, symBinAddr: 0x82FD4, symSize: 0x5C }
  - { offsetInCU: 0x2B85, offset: 0xB9278, size: 0x8, addend: 0x0, symName: __RINvNtCs5fsojcNSbun_4core3ptr13drop_in_placeINtNtCsltZDfVD1VKL_5alloc3vec3VecNtNtCs5GBHJSLTkJw_3syn3lit6LitStrEECs39Y7jx17GSw_12serde_derive, symObjAddr: 0x171C, symBinAddr: 0x83030, symSize: 0x5C }
  - { offsetInCU: 0x2BB4, offset: 0xB92A7, size: 0x8, addend: 0x0, symName: __RINvNtCs5fsojcNSbun_4core3ptr13drop_in_placeINtNtCsltZDfVD1VKL_5alloc3vec3VecNtNtCs5GBHJSLTkJw_3syn4expr6MemberEECs39Y7jx17GSw_12serde_derive, symObjAddr: 0x1778, symBinAddr: 0x8308C, symSize: 0x5C }
  - { offsetInCU: 0x2BE3, offset: 0xB92D6, size: 0x8, addend: 0x0, symName: __RINvNtCs5fsojcNSbun_4core3ptr13drop_in_placeINtNtCsltZDfVD1VKL_5alloc3vec3VecNtNtCs5GBHJSLTkJw_3syn5error5ErrorEECs39Y7jx17GSw_12serde_derive, symObjAddr: 0x17D4, symBinAddr: 0x830E8, symSize: 0x5C }
  - { offsetInCU: 0x2C12, offset: 0xB9305, size: 0x8, addend: 0x0, symName: __RINvNtCs5fsojcNSbun_4core3ptr13drop_in_placeINtNtCsltZDfVD1VKL_5alloc3vec3VecNtNtCs5GBHJSLTkJw_3syn8generics12GenericParamEECs39Y7jx17GSw_12serde_derive, symObjAddr: 0x1830, symBinAddr: 0x83144, symSize: 0x5C }
  - { offsetInCU: 0x2C41, offset: 0xB9334, size: 0x8, addend: 0x0, symName: __RINvNtCs5fsojcNSbun_4core3ptr13drop_in_placeINtNtCsltZDfVD1VKL_5alloc3vec3VecNtNtCs5GBHJSLTkJw_3syn8generics14WherePredicateEECs39Y7jx17GSw_12serde_derive, symObjAddr: 0x188C, symBinAddr: 0x831A0, symSize: 0x5C }
  - { offsetInCU: 0x2C70, offset: 0xB9363, size: 0x8, addend: 0x0, symName: __RINvNtCs5fsojcNSbun_4core3ptr13drop_in_placeINtNtCsltZDfVD1VKL_5alloc3vec3VecNtNtNtCs39Y7jx17GSw_12serde_derive9internals3ast5FieldEEB1j_, symObjAddr: 0x18E8, symBinAddr: 0x831FC, symSize: 0x5C }
  - { offsetInCU: 0x2C9F, offset: 0xB9392, size: 0x8, addend: 0x0, symName: __RINvNtCs5fsojcNSbun_4core3ptr13drop_in_placeINtNtCsltZDfVD1VKL_5alloc3vec3VecNtNtNtCs39Y7jx17GSw_12serde_derive9internals3ast7VariantEEB1j_, symObjAddr: 0x1944, symBinAddr: 0x83258, symSize: 0x5C }
  - { offsetInCU: 0x2CCE, offset: 0xB93C1, size: 0x8, addend: 0x0, symName: __RINvNtCs5fsojcNSbun_4core3ptr13drop_in_placeINtNtCsltZDfVD1VKL_5alloc3vec3VecRNtCs5CKmLD4IrHZ_11proc_macro25IdentEECs39Y7jx17GSw_12serde_derive, symObjAddr: 0x19A0, symBinAddr: 0x832B4, symSize: 0x5C }
  - { offsetInCU: 0x2CFD, offset: 0xB93F0, size: 0x8, addend: 0x0, symName: __RINvNtCs5fsojcNSbun_4core3ptr13drop_in_placeINtNtCsltZDfVD1VKL_5alloc3vec3VecRNtNtCs5GBHJSLTkJw_3syn2ty4TypeEECs39Y7jx17GSw_12serde_derive, symObjAddr: 0x19FC, symBinAddr: 0x83310, symSize: 0x5C }
  - { offsetInCU: 0x2D2C, offset: 0xB941F, size: 0x8, addend: 0x0, symName: __RINvNtCs5fsojcNSbun_4core3ptr13drop_in_placeINtNtCsltZDfVD1VKL_5alloc3vec3VecRNtNtCs5GBHJSLTkJw_3syn2ty8TypePathEECs39Y7jx17GSw_12serde_derive, symObjAddr: 0x1A58, symBinAddr: 0x8336C, symSize: 0x5C }
  - { offsetInCU: 0x2D5B, offset: 0xB944E, size: 0x8, addend: 0x0, symName: __RINvNtCs5fsojcNSbun_4core3ptr13drop_in_placeINtNtCsltZDfVD1VKL_5alloc3vec3VecRNtNtCs5GBHJSLTkJw_3syn4expr6MemberEECs39Y7jx17GSw_12serde_derive, symObjAddr: 0x1AB4, symBinAddr: 0x833C8, symSize: 0x5C }
  - { offsetInCU: 0x2D8A, offset: 0xB947D, size: 0x8, addend: 0x0, symName: __RINvNtCs5fsojcNSbun_4core3ptr13drop_in_placeINtNtCsltZDfVD1VKL_5alloc3vec3VecTRNtNtNtCs39Y7jx17GSw_12serde_derive9internals3ast5FieldNtCs5CKmLD4IrHZ_11proc_macro25IdentEEEB1l_, symObjAddr: 0x1B10, symBinAddr: 0x83424, symSize: 0x5C }
  - { offsetInCU: 0x2DB9, offset: 0xB94AC, size: 0x8, addend: 0x0, symName: __RINvNtCs5fsojcNSbun_4core3ptr13drop_in_placeINtNtCsltZDfVD1VKL_5alloc3vec3VecTReNtCs5CKmLD4IrHZ_11proc_macro25IdentRINtNtNtNtBL_11collections5btree3set8BTreeSetNtNtBL_6string6StringEEEECs39Y7jx17GSw_12serde_derive, symObjAddr: 0x1B6C, symBinAddr: 0x83480, symSize: 0x5C }
  - { offsetInCU: 0x2DE8, offset: 0xB94DB, size: 0x8, addend: 0x0, symName: __RINvNtCs5fsojcNSbun_4core3ptr13drop_in_placeINtNtCsltZDfVD1VKL_5alloc5boxed3BoxDNtNtB4_5error5ErrorNtNtB4_6marker4SyncNtB1B_4SendEL_EECs39Y7jx17GSw_12serde_derive, symObjAddr: 0x1BC8, symBinAddr: 0x834DC, symSize: 0x6C }
  - { offsetInCU: 0x2E17, offset: 0xB950A, size: 0x8, addend: 0x0, symName: __RINvNtCs5fsojcNSbun_4core3ptr13drop_in_placeINtNtCsltZDfVD1VKL_5alloc5boxed3BoxDNtNtNtNtB4_4iter6traits8iterator8Iteratorp4ItemRNtNtNtCs39Y7jx17GSw_12serde_derive9internals3ast5FieldEL_EEB28_, symObjAddr: 0x1C34, symBinAddr: 0x83548, symSize: 0x6C }
  - { offsetInCU: 0x2E46, offset: 0xB9539, size: 0x8, addend: 0x0, symName: __RINvNtCs5fsojcNSbun_4core3ptr13drop_in_placeINtNtCsltZDfVD1VKL_5alloc5boxed3BoxINtNtCs5GBHJSLTkJw_3syn5drops6NoDropDINtNtB1k_10punctuated12IterMutTraitNtNtB1k_2ty4TypeEp4ItemQB2p_EL_EEECs39Y7jx17GSw_12serde_derive, symObjAddr: 0x1CA0, symBinAddr: 0x835B4, symSize: 0x2C }
  - { offsetInCU: 0x2E75, offset: 0xB9568, size: 0x8, addend: 0x0, symName: __RINvNtCs5fsojcNSbun_4core3ptr13drop_in_placeINtNtCsltZDfVD1VKL_5alloc5boxed3BoxINtNtCs5GBHJSLTkJw_3syn5drops6NoDropDINtNtB1k_10punctuated12IterMutTraitNtNtB1k_2ty9BareFnArgEp4ItemQB2p_EL_EEECs39Y7jx17GSw_12serde_derive, symObjAddr: 0x1CCC, symBinAddr: 0x835E0, symSize: 0x2C }
  - { offsetInCU: 0x2EA4, offset: 0xB9597, size: 0x8, addend: 0x0, symName: __RINvNtCs5fsojcNSbun_4core3ptr13drop_in_placeINtNtCsltZDfVD1VKL_5alloc5boxed3BoxINtNtCs5GBHJSLTkJw_3syn5drops6NoDropDINtNtB1k_10punctuated12IterMutTraitNtNtB1k_4data5FieldEp4ItemQB2p_EL_EEECs39Y7jx17GSw_12serde_derive, symObjAddr: 0x1CF8, symBinAddr: 0x8360C, symSize: 0x2C }
  - { offsetInCU: 0x2ED3, offset: 0xB95C6, size: 0x8, addend: 0x0, symName: __RINvNtCs5fsojcNSbun_4core3ptr13drop_in_placeINtNtCsltZDfVD1VKL_5alloc5boxed3BoxINtNtCs5GBHJSLTkJw_3syn5drops6NoDropDINtNtB1k_10punctuated12IterMutTraitNtNtB1k_4data7VariantEp4ItemQB2p_EL_EEECs39Y7jx17GSw_12serde_derive, symObjAddr: 0x1D24, symBinAddr: 0x83638, symSize: 0x2C }
  - { offsetInCU: 0x2F02, offset: 0xB95F5, size: 0x8, addend: 0x0, symName: __RINvNtCs5fsojcNSbun_4core3ptr13drop_in_placeINtNtCsltZDfVD1VKL_5alloc5boxed3BoxINtNtCs5GBHJSLTkJw_3syn5drops6NoDropDINtNtB1k_10punctuated12IterMutTraitNtNtB1k_4expr4ExprEp4ItemQB2p_EL_EEECs39Y7jx17GSw_12serde_derive, symObjAddr: 0x1D50, symBinAddr: 0x83664, symSize: 0x2C }
  - { offsetInCU: 0x2F31, offset: 0xB9624, size: 0x8, addend: 0x0, symName: __RINvNtCs5fsojcNSbun_4core3ptr13drop_in_placeINtNtCsltZDfVD1VKL_5alloc5boxed3BoxINtNtCs5GBHJSLTkJw_3syn5drops6NoDropDINtNtB1k_10punctuated12IterMutTraitNtNtB1k_4path15GenericArgumentEp4ItemQB2p_EL_EEECs39Y7jx17GSw_12serde_derive, symObjAddr: 0x1D7C, symBinAddr: 0x83690, symSize: 0x2C }
  - { offsetInCU: 0x2F60, offset: 0xB9653, size: 0x8, addend: 0x0, symName: __RINvNtCs5fsojcNSbun_4core3ptr13drop_in_placeINtNtCsltZDfVD1VKL_5alloc5boxed3BoxINtNtCs5GBHJSLTkJw_3syn5drops6NoDropDINtNtB1k_10punctuated12IterMutTraitNtNtB1k_8generics14TypeParamBoundEp4ItemQB2p_EL_EEECs39Y7jx17GSw_12serde_derive, symObjAddr: 0x1DA8, symBinAddr: 0x836BC, symSize: 0x2C }
  - { offsetInCU: 0x2F8F, offset: 0xB9682, size: 0x8, addend: 0x0, symName: __RINvNtCs5fsojcNSbun_4core3ptr13drop_in_placeINtNtCsltZDfVD1VKL_5alloc5boxed3BoxINtNtCs5GBHJSLTkJw_3syn5drops6NoDropDINtNtB1k_10punctuated12IterMutTraitNtNtB1k_8generics14WherePredicateEp4ItemQB2p_EL_EEECs39Y7jx17GSw_12serde_derive, symObjAddr: 0x1DD4, symBinAddr: 0x836E8, symSize: 0x2C }
  - { offsetInCU: 0x2FBE, offset: 0xB96B1, size: 0x8, addend: 0x0, symName: __RINvNtCs5fsojcNSbun_4core3ptr13drop_in_placeINtNtCsltZDfVD1VKL_5alloc5boxed3BoxINtNtCs5GBHJSLTkJw_3syn5drops6NoDropDINtNtB1k_10punctuated9IterTraitNtNtB1k_2ty4TypeEp4ItemRB2l_EL_EEECs39Y7jx17GSw_12serde_derive, symObjAddr: 0x1E00, symBinAddr: 0x83714, symSize: 0x2C }
  - { offsetInCU: 0x2FED, offset: 0xB96E0, size: 0x8, addend: 0x0, symName: __RINvNtCs5fsojcNSbun_4core3ptr13drop_in_placeINtNtCsltZDfVD1VKL_5alloc5boxed3BoxINtNtCs5GBHJSLTkJw_3syn5drops6NoDropDINtNtB1k_10punctuated9IterTraitNtNtB1k_2ty9BareFnArgEp4ItemRB2l_EL_EEECs39Y7jx17GSw_12serde_derive, symObjAddr: 0x1E2C, symBinAddr: 0x83740, symSize: 0x2C }
  - { offsetInCU: 0x301C, offset: 0xB970F, size: 0x8, addend: 0x0, symName: __RINvNtCs5fsojcNSbun_4core3ptr13drop_in_placeINtNtCsltZDfVD1VKL_5alloc5boxed3BoxINtNtCs5GBHJSLTkJw_3syn5drops6NoDropDINtNtB1k_10punctuated9IterTraitNtNtB1k_4data5FieldEp4ItemRB2l_EL_EEECs39Y7jx17GSw_12serde_derive, symObjAddr: 0x1E58, symBinAddr: 0x8376C, symSize: 0x2C }
  - { offsetInCU: 0x304B, offset: 0xB973E, size: 0x8, addend: 0x0, symName: __RINvNtCs5fsojcNSbun_4core3ptr13drop_in_placeINtNtCsltZDfVD1VKL_5alloc5boxed3BoxINtNtCs5GBHJSLTkJw_3syn5drops6NoDropDINtNtB1k_10punctuated9IterTraitNtNtB1k_4data7VariantEp4ItemRB2l_EL_EEECs39Y7jx17GSw_12serde_derive, symObjAddr: 0x1E84, symBinAddr: 0x83798, symSize: 0x2C }
  - { offsetInCU: 0x307A, offset: 0xB976D, size: 0x8, addend: 0x0, symName: __RINvNtCs5fsojcNSbun_4core3ptr13drop_in_placeINtNtCsltZDfVD1VKL_5alloc5boxed3BoxINtNtCs5GBHJSLTkJw_3syn5drops6NoDropDINtNtB1k_10punctuated9IterTraitNtNtB1k_4path15GenericArgumentEp4ItemRB2l_EL_EEECs39Y7jx17GSw_12serde_derive, symObjAddr: 0x1EB0, symBinAddr: 0x837C4, symSize: 0x2C }
  - { offsetInCU: 0x30A9, offset: 0xB979C, size: 0x8, addend: 0x0, symName: __RINvNtCs5fsojcNSbun_4core3ptr13drop_in_placeINtNtCsltZDfVD1VKL_5alloc5boxed3BoxINtNtNtNtBL_11collections5btree4node12InternalNodeNtNtBL_6string6StringNtNtB1k_7set_val9SetValZSTEEECs39Y7jx17GSw_12serde_derive, symObjAddr: 0x1EDC, symBinAddr: 0x837F0, symSize: 0x2C }
  - { offsetInCU: 0x30D8, offset: 0xB97CB, size: 0x8, addend: 0x0, symName: __RINvNtCs5fsojcNSbun_4core3ptr13drop_in_placeINtNtCsltZDfVD1VKL_5alloc5boxed3BoxINtNtNtNtBL_11collections5btree4node12InternalNodeNtNtCs5GBHJSLTkJw_3syn8lifetime8LifetimeNtNtB1k_7set_val9SetValZSTEEECs39Y7jx17GSw_12serde_derive, symObjAddr: 0x1F08, symBinAddr: 0x8381C, symSize: 0x2C }
  - { offsetInCU: 0x3107, offset: 0xB97FA, size: 0x8, addend: 0x0, symName: __RINvNtCs5fsojcNSbun_4core3ptr13drop_in_placeINtNtCsltZDfVD1VKL_5alloc5boxed3BoxINtNtNtNtBL_11collections5btree4node8LeafNodeNtNtBL_6string6StringNtNtB1k_7set_val9SetValZSTEEECs39Y7jx17GSw_12serde_derive, symObjAddr: 0x1F34, symBinAddr: 0x83848, symSize: 0x2C }
  - { offsetInCU: 0x3136, offset: 0xB9829, size: 0x8, addend: 0x0, symName: __RINvNtCs5fsojcNSbun_4core3ptr13drop_in_placeINtNtCsltZDfVD1VKL_5alloc5boxed3BoxINtNtNtNtBL_11collections5btree4node8LeafNodeNtNtCs5GBHJSLTkJw_3syn8lifetime8LifetimeNtNtB1k_7set_val9SetValZSTEEECs39Y7jx17GSw_12serde_derive, symObjAddr: 0x1F60, symBinAddr: 0x83874, symSize: 0x2C }
  - { offsetInCU: 0x3165, offset: 0xB9858, size: 0x8, addend: 0x0, symName: __RINvNtCs5fsojcNSbun_4core3ptr13drop_in_placeINtNtCsltZDfVD1VKL_5alloc5boxed3BoxNtNtNtCsrEL4bNOiaA_3std2io5error6CustomEECs39Y7jx17GSw_12serde_derive, symObjAddr: 0x1F8C, symBinAddr: 0x838A0, symSize: 0x60 }
  - { offsetInCU: 0x3194, offset: 0xB9887, size: 0x8, addend: 0x0, symName: __RINvNtCs5fsojcNSbun_4core3ptr13drop_in_placeINtNtCsltZDfVD1VKL_5alloc6borrow3CowNtNtCs5GBHJSLTkJw_3syn4path4PathEECs39Y7jx17GSw_12serde_derive, symObjAddr: 0x1FEC, symBinAddr: 0x83900, symSize: 0x48 }
  - { offsetInCU: 0x31C3, offset: 0xB98B6, size: 0x8, addend: 0x0, symName: __RINvNtCs5fsojcNSbun_4core3ptr13drop_in_placeINtNtCsltZDfVD1VKL_5alloc7raw_vec6RawVecINtNtBL_3vec3VecNtNtCs5GBHJSLTkJw_3syn8generics14WherePredicateEEECs39Y7jx17GSw_12serde_derive, symObjAddr: 0x2034, symBinAddr: 0x83948, symSize: 0x24 }
  - { offsetInCU: 0x31F2, offset: 0xB98E5, size: 0x8, addend: 0x0, symName: __RINvNtCs5fsojcNSbun_4core3ptr13drop_in_placeINtNtCsltZDfVD1VKL_5alloc7raw_vec6RawVecNtCs5CKmLD4IrHZ_11proc_macro211TokenStreamEECs39Y7jx17GSw_12serde_derive, symObjAddr: 0x2058, symBinAddr: 0x8396C, symSize: 0x24 }
  - { offsetInCU: 0x3221, offset: 0xB9914, size: 0x8, addend: 0x0, symName: __RINvNtCs5fsojcNSbun_4core3ptr13drop_in_placeINtNtCsltZDfVD1VKL_5alloc7raw_vec6RawVecNtCs5CKmLD4IrHZ_11proc_macro25IdentEECs39Y7jx17GSw_12serde_derive, symObjAddr: 0x207C, symBinAddr: 0x83990, symSize: 0x24 }
  - { offsetInCU: 0x3250, offset: 0xB9943, size: 0x8, addend: 0x0, symName: __RINvNtCs5fsojcNSbun_4core3ptr13drop_in_placeINtNtCsltZDfVD1VKL_5alloc7raw_vec6RawVecNtNtBL_6string6StringEECs39Y7jx17GSw_12serde_derive, symObjAddr: 0x20A0, symBinAddr: 0x839B4, symSize: 0x24 }
  - { offsetInCU: 0x327F, offset: 0xB9972, size: 0x8, addend: 0x0, symName: __RINvNtCs5fsojcNSbun_4core3ptr13drop_in_placeINtNtCsltZDfVD1VKL_5alloc7raw_vec6RawVecNtNtCs5GBHJSLTkJw_3syn3lit6LitStrEECs39Y7jx17GSw_12serde_derive, symObjAddr: 0x20C4, symBinAddr: 0x839D8, symSize: 0x24 }
  - { offsetInCU: 0x32AE, offset: 0xB99A1, size: 0x8, addend: 0x0, symName: __RINvNtCs5fsojcNSbun_4core3ptr13drop_in_placeINtNtCsltZDfVD1VKL_5alloc7raw_vec6RawVecNtNtCs5GBHJSLTkJw_3syn4expr6MemberEECs39Y7jx17GSw_12serde_derive, symObjAddr: 0x20E8, symBinAddr: 0x839FC, symSize: 0x24 }
  - { offsetInCU: 0x32DD, offset: 0xB99D0, size: 0x8, addend: 0x0, symName: __RINvNtCs5fsojcNSbun_4core3ptr13drop_in_placeINtNtCsltZDfVD1VKL_5alloc7raw_vec6RawVecNtNtCs5GBHJSLTkJw_3syn4path11PathSegmentEECs39Y7jx17GSw_12serde_derive, symObjAddr: 0x210C, symBinAddr: 0x83A20, symSize: 0x24 }
  - { offsetInCU: 0x330C, offset: 0xB99FF, size: 0x8, addend: 0x0, symName: __RINvNtCs5fsojcNSbun_4core3ptr13drop_in_placeINtNtCsltZDfVD1VKL_5alloc7raw_vec6RawVecNtNtCs5GBHJSLTkJw_3syn5error5ErrorEECs39Y7jx17GSw_12serde_derive, symObjAddr: 0x2130, symBinAddr: 0x83A44, symSize: 0x24 }
  - { offsetInCU: 0x333B, offset: 0xB9A2E, size: 0x8, addend: 0x0, symName: __RINvNtCs5fsojcNSbun_4core3ptr13drop_in_placeINtNtCsltZDfVD1VKL_5alloc7raw_vec6RawVecNtNtCs5GBHJSLTkJw_3syn8generics12GenericParamEECs39Y7jx17GSw_12serde_derive, symObjAddr: 0x2154, symBinAddr: 0x83A68, symSize: 0x24 }
  - { offsetInCU: 0x336A, offset: 0xB9A5D, size: 0x8, addend: 0x0, symName: __RINvNtCs5fsojcNSbun_4core3ptr13drop_in_placeINtNtCsltZDfVD1VKL_5alloc7raw_vec6RawVecNtNtCs5GBHJSLTkJw_3syn8generics14WherePredicateEECs39Y7jx17GSw_12serde_derive, symObjAddr: 0x2178, symBinAddr: 0x83A8C, symSize: 0x24 }
  - { offsetInCU: 0x3399, offset: 0xB9A8C, size: 0x8, addend: 0x0, symName: __RINvNtCs5fsojcNSbun_4core3ptr13drop_in_placeINtNtCsltZDfVD1VKL_5alloc7raw_vec6RawVecNtNtNtCs39Y7jx17GSw_12serde_derive9internals3ast5FieldEEB1q_, symObjAddr: 0x219C, symBinAddr: 0x83AB0, symSize: 0x24 }
  - { offsetInCU: 0x33C8, offset: 0xB9ABB, size: 0x8, addend: 0x0, symName: __RINvNtCs5fsojcNSbun_4core3ptr13drop_in_placeINtNtCsltZDfVD1VKL_5alloc7raw_vec6RawVecNtNtNtCs39Y7jx17GSw_12serde_derive9internals3ast7VariantEEB1q_, symObjAddr: 0x21C0, symBinAddr: 0x83AD4, symSize: 0x24 }
  - { offsetInCU: 0x33F7, offset: 0xB9AEA, size: 0x8, addend: 0x0, symName: __RINvNtCs5fsojcNSbun_4core3ptr13drop_in_placeINtNtCsltZDfVD1VKL_5alloc7raw_vec6RawVecRNtCs5CKmLD4IrHZ_11proc_macro25IdentEECs39Y7jx17GSw_12serde_derive, symObjAddr: 0x21E4, symBinAddr: 0x83AF8, symSize: 0x24 }
  - { offsetInCU: 0x3426, offset: 0xB9B19, size: 0x8, addend: 0x0, symName: __RINvNtCs5fsojcNSbun_4core3ptr13drop_in_placeINtNtCsltZDfVD1VKL_5alloc7raw_vec6RawVecRNtNtCs5GBHJSLTkJw_3syn2ty4TypeEECs39Y7jx17GSw_12serde_derive, symObjAddr: 0x2208, symBinAddr: 0x83B1C, symSize: 0x24 }
  - { offsetInCU: 0x3455, offset: 0xB9B48, size: 0x8, addend: 0x0, symName: __RINvNtCs5fsojcNSbun_4core3ptr13drop_in_placeINtNtCsltZDfVD1VKL_5alloc7raw_vec6RawVecRNtNtCs5GBHJSLTkJw_3syn2ty8TypePathEECs39Y7jx17GSw_12serde_derive, symObjAddr: 0x222C, symBinAddr: 0x83B40, symSize: 0x24 }
  - { offsetInCU: 0x3484, offset: 0xB9B77, size: 0x8, addend: 0x0, symName: __RINvNtCs5fsojcNSbun_4core3ptr13drop_in_placeINtNtCsltZDfVD1VKL_5alloc7raw_vec6RawVecRNtNtCs5GBHJSLTkJw_3syn4expr6MemberEECs39Y7jx17GSw_12serde_derive, symObjAddr: 0x2250, symBinAddr: 0x83B64, symSize: 0x24 }
  - { offsetInCU: 0x34B3, offset: 0xB9BA6, size: 0x8, addend: 0x0, symName: __RINvNtCs5fsojcNSbun_4core3ptr13drop_in_placeINtNtCsltZDfVD1VKL_5alloc7raw_vec6RawVecTRNtNtNtCs39Y7jx17GSw_12serde_derive9internals3ast5FieldNtCs5CKmLD4IrHZ_11proc_macro25IdentEEEB1s_, symObjAddr: 0x2274, symBinAddr: 0x83B88, symSize: 0x24 }
  - { offsetInCU: 0x34E2, offset: 0xB9BD5, size: 0x8, addend: 0x0, symName: __RINvNtCs5fsojcNSbun_4core3ptr13drop_in_placeINtNtCsltZDfVD1VKL_5alloc7raw_vec6RawVecTReNtCs5CKmLD4IrHZ_11proc_macro25IdentRINtNtNtNtBL_11collections5btree3set8BTreeSetNtNtBL_6string6StringEEEECs39Y7jx17GSw_12serde_derive, symObjAddr: 0x2298, symBinAddr: 0x83BAC, symSize: 0x24 }
  - { offsetInCU: 0x3511, offset: 0xB9C04, size: 0x8, addend: 0x0, symName: __RINvNtCs5fsojcNSbun_4core3ptr13drop_in_placeINtNtNtB4_3ops12control_flow11ControlFlowNtCs5CKmLD4IrHZ_11proc_macro211TokenStreamEECs39Y7jx17GSw_12serde_derive, symObjAddr: 0x22BC, symBinAddr: 0x83BD0, symSize: 0x48 }
  - { offsetInCU: 0x3540, offset: 0xB9C33, size: 0x8, addend: 0x0, symName: __RINvNtCs5fsojcNSbun_4core3ptr13drop_in_placeINtNtNtB4_3ops12control_flow11ControlFlowNtCs5CKmLD4IrHZ_11proc_macro25IdentEECs39Y7jx17GSw_12serde_derive, symObjAddr: 0x2304, symBinAddr: 0x83C18, symSize: 0x48 }
  - { offsetInCU: 0x356F, offset: 0xB9C62, size: 0x8, addend: 0x0, symName: __RINvNtCs5fsojcNSbun_4core3ptr13drop_in_placeINtNtNtB4_5slice4iter4IterNtNtNtCs39Y7jx17GSw_12serde_derive9internals3ast5FieldEEB1c_, symObjAddr: 0x234C, symBinAddr: 0x83C60, symSize: 0x10 }
  - { offsetInCU: 0x359E, offset: 0xB9C91, size: 0x8, addend: 0x0, symName: __RINvNtCs5fsojcNSbun_4core3ptr13drop_in_placeINtNtNtCs39Y7jx17GSw_12serde_derive9internals4attr4AttrINtNtCsltZDfVD1VKL_5alloc3vec3VecNtNtCs5GBHJSLTkJw_3syn8generics14WherePredicateEEEBN_, symObjAddr: 0x235C, symBinAddr: 0x83C70, symSize: 0x60 }
  - { offsetInCU: 0x35CD, offset: 0xB9CC0, size: 0x8, addend: 0x0, symName: __RINvNtCs5fsojcNSbun_4core3ptr13drop_in_placeINtNtNtCs39Y7jx17GSw_12serde_derive9internals4attr4AttrINtNtNtNtCsltZDfVD1VKL_5alloc11collections5btree3set8BTreeSetNtNtCs5GBHJSLTkJw_3syn8lifetime8LifetimeEEEBN_, symObjAddr: 0x23BC, symBinAddr: 0x83CD0, symSize: 0x5C }
  - { offsetInCU: 0x35FC, offset: 0xB9CEF, size: 0x8, addend: 0x0, symName: __RINvNtCs5fsojcNSbun_4core3ptr13drop_in_placeINtNtNtCs39Y7jx17GSw_12serde_derive9internals4attr4AttrNtBJ_15BorrowAttributeEEBN_, symObjAddr: 0x2418, symBinAddr: 0x83D2C, symSize: 0x5C }
  - { offsetInCU: 0x362B, offset: 0xB9D1E, size: 0x8, addend: 0x0, symName: __RINvNtCs5fsojcNSbun_4core3ptr13drop_in_placeINtNtNtCs39Y7jx17GSw_12serde_derive9internals4attr4AttrNtBJ_7DefaultEEBN_, symObjAddr: 0x2474, symBinAddr: 0x83D88, symSize: 0x60 }
  - { offsetInCU: 0x365A, offset: 0xB9D4D, size: 0x8, addend: 0x0, symName: __RINvNtCs5fsojcNSbun_4core3ptr13drop_in_placeINtNtNtCs39Y7jx17GSw_12serde_derive9internals4attr4AttrNtNtBL_4case10RenameRuleEEBN_, symObjAddr: 0x24D4, symBinAddr: 0x83DE8, symSize: 0x24 }
  - { offsetInCU: 0x3689, offset: 0xB9D7C, size: 0x8, addend: 0x0, symName: __RINvNtCs5fsojcNSbun_4core3ptr13drop_in_placeINtNtNtCs39Y7jx17GSw_12serde_derive9internals4attr4AttrNtNtCs5GBHJSLTkJw_3syn2ty4TypeEEBN_, symObjAddr: 0x24F8, symBinAddr: 0x83E0C, symSize: 0x5C }
  - { offsetInCU: 0x36B8, offset: 0xB9DAB, size: 0x8, addend: 0x0, symName: __RINvNtCs5fsojcNSbun_4core3ptr13drop_in_placeINtNtNtCs39Y7jx17GSw_12serde_derive9internals4attr4AttrNtNtCs5GBHJSLTkJw_3syn4expr8ExprPathEEBN_, symObjAddr: 0x2554, symBinAddr: 0x83E68, symSize: 0x60 }
  - { offsetInCU: 0x36E7, offset: 0xB9DDA, size: 0x8, addend: 0x0, symName: __RINvNtCs5fsojcNSbun_4core3ptr13drop_in_placeINtNtNtCs39Y7jx17GSw_12serde_derive9internals4attr4AttrNtNtCs5GBHJSLTkJw_3syn4path4PathEEBN_, symObjAddr: 0x25B4, symBinAddr: 0x83EC8, symSize: 0x60 }
  - { offsetInCU: 0x3716, offset: 0xB9E09, size: 0x8, addend: 0x0, symName: __RINvNtCs5fsojcNSbun_4core3ptr13drop_in_placeINtNtNtCs39Y7jx17GSw_12serde_derive9internals4attr4AttrNtNtCsltZDfVD1VKL_5alloc6string6StringEEBN_, symObjAddr: 0x2614, symBinAddr: 0x83F28, symSize: 0x60 }
  - { offsetInCU: 0x3745, offset: 0xB9E38, size: 0x8, addend: 0x0, symName: __RINvNtCs5fsojcNSbun_4core3ptr13drop_in_placeINtNtNtCs39Y7jx17GSw_12serde_derive9internals4attr4AttruEEBN_, symObjAddr: 0x2674, symBinAddr: 0x83F88, symSize: 0x24 }
  - { offsetInCU: 0x3774, offset: 0xB9E67, size: 0x8, addend: 0x0, symName: __RINvNtCs5fsojcNSbun_4core3ptr13drop_in_placeINtNtNtCs39Y7jx17GSw_12serde_derive9internals4attr7VecAttrINtNtCsltZDfVD1VKL_5alloc3vec3VecNtNtCs5GBHJSLTkJw_3syn8generics14WherePredicateEEEBN_, symObjAddr: 0x2698, symBinAddr: 0x83FAC, symSize: 0x5C }
  - { offsetInCU: 0x37A3, offset: 0xB9E96, size: 0x8, addend: 0x0, symName: __RINvNtCs5fsojcNSbun_4core3ptr13drop_in_placeINtNtNtCs39Y7jx17GSw_12serde_derive9internals4attr7VecAttrNtNtCs5GBHJSLTkJw_3syn3lit6LitStrEEBN_, symObjAddr: 0x26F4, symBinAddr: 0x84008, symSize: 0x5C }
  - { offsetInCU: 0x37D2, offset: 0xB9EC5, size: 0x8, addend: 0x0, symName: __RINvNtCs5fsojcNSbun_4core3ptr13drop_in_placeINtNtNtCs39Y7jx17GSw_12serde_derive9internals4attr7VecAttrNtNtCsltZDfVD1VKL_5alloc6string6StringEEBN_, symObjAddr: 0x2750, symBinAddr: 0x84064, symSize: 0x5C }
  - { offsetInCU: 0x3801, offset: 0xB9EF4, size: 0x8, addend: 0x0, symName: __RINvNtCs5fsojcNSbun_4core3ptr13drop_in_placeINtNtNtCsltZDfVD1VKL_5alloc3vec9into_iter8IntoIterNtNtBN_6string6StringEECs39Y7jx17GSw_12serde_derive, symObjAddr: 0x27AC, symBinAddr: 0x840C0, symSize: 0x24 }
  - { offsetInCU: 0x3830, offset: 0xB9F23, size: 0x8, addend: 0x0, symName: __RINvNtCs5fsojcNSbun_4core3ptr13drop_in_placeINtNtNtCsltZDfVD1VKL_5alloc3vec9into_iter8IntoIterNtNtCs5GBHJSLTkJw_3syn3lit6LitStrEECs39Y7jx17GSw_12serde_derive, symObjAddr: 0x27D0, symBinAddr: 0x840E4, symSize: 0x24 }
  - { offsetInCU: 0x385F, offset: 0xB9F52, size: 0x8, addend: 0x0, symName: __RINvNtCs5fsojcNSbun_4core3ptr13drop_in_placeINtNtNtCsltZDfVD1VKL_5alloc3vec9into_iter8IntoIterNtNtCs5GBHJSLTkJw_3syn4path11PathSegmentEECs39Y7jx17GSw_12serde_derive, symObjAddr: 0x27F4, symBinAddr: 0x84108, symSize: 0x24 }
  - { offsetInCU: 0x388E, offset: 0xB9F81, size: 0x8, addend: 0x0, symName: __RINvNtCs5fsojcNSbun_4core3ptr13drop_in_placeINtNtNtCsltZDfVD1VKL_5alloc3vec9into_iter8IntoIterNtNtCs5GBHJSLTkJw_3syn5error5ErrorEECs39Y7jx17GSw_12serde_derive, symObjAddr: 0x2818, symBinAddr: 0x8412C, symSize: 0x24 }
  - { offsetInCU: 0x38BD, offset: 0xB9FB0, size: 0x8, addend: 0x0, symName: __RINvNtCs5fsojcNSbun_4core3ptr13drop_in_placeINtNtNtCsltZDfVD1VKL_5alloc3vec9into_iter8IntoIterNtNtCs5GBHJSLTkJw_3syn8generics12GenericParamEECs39Y7jx17GSw_12serde_derive, symObjAddr: 0x283C, symBinAddr: 0x84150, symSize: 0x24 }
  - { offsetInCU: 0x38EC, offset: 0xB9FDF, size: 0x8, addend: 0x0, symName: __RINvNtCs5fsojcNSbun_4core3ptr13drop_in_placeINtNtNtCsltZDfVD1VKL_5alloc3vec9into_iter8IntoIterNtNtCs5GBHJSLTkJw_3syn8generics14WherePredicateEECs39Y7jx17GSw_12serde_derive, symObjAddr: 0x2860, symBinAddr: 0x84174, symSize: 0x24 }
  - { offsetInCU: 0x391B, offset: 0xBA00E, size: 0x8, addend: 0x0, symName: __RINvNtCs5fsojcNSbun_4core3ptr13drop_in_placeINtNtNtCsltZDfVD1VKL_5alloc3vec9into_iter8IntoIterRNtNtCs5GBHJSLTkJw_3syn2ty8TypePathEECs39Y7jx17GSw_12serde_derive, symObjAddr: 0x2884, symBinAddr: 0x84198, symSize: 0x24 }
  - { offsetInCU: 0x394A, offset: 0xBA03D, size: 0x8, addend: 0x0, symName: __RINvNtCs5fsojcNSbun_4core3ptr13drop_in_placeINtNtNtCsltZDfVD1VKL_5alloc3vec9into_iter8IntoIterTNtNtCs5GBHJSLTkJw_3syn8generics12GenericParamNtNtB1z_5token5CommaEEECs39Y7jx17GSw_12serde_derive, symObjAddr: 0x28A8, symBinAddr: 0x841BC, symSize: 0x24 }
  - { offsetInCU: 0x3979, offset: 0xBA06C, size: 0x8, addend: 0x0, symName: __RINvNtCs5fsojcNSbun_4core3ptr13drop_in_placeINtNtNtCsltZDfVD1VKL_5alloc3vec9into_iter8IntoIterTNtNtCs5GBHJSLTkJw_3syn8generics14WherePredicateNtNtB1z_5token5CommaEEECs39Y7jx17GSw_12serde_derive, symObjAddr: 0x28CC, symBinAddr: 0x841E0, symSize: 0x24 }
  - { offsetInCU: 0x39A8, offset: 0xBA09B, size: 0x8, addend: 0x0, symName: __RINvNtCs5fsojcNSbun_4core3ptr13drop_in_placeINtNtNtCsrEL4bNOiaA_3std2io5error9ErrorDataINtNtCsltZDfVD1VKL_5alloc5boxed3BoxNtBJ_6CustomEEECs39Y7jx17GSw_12serde_derive, symObjAddr: 0x28F0, symBinAddr: 0x84204, symSize: 0x48 }
  - { offsetInCU: 0x39D7, offset: 0xBA0CA, size: 0x8, addend: 0x0, symName: __RINvNtCs5fsojcNSbun_4core3ptr13drop_in_placeINtNtNtNtB4_4iter8adapters10filter_map9FilterMapINtNtCsltZDfVD1VKL_5alloc5boxed3BoxDNtNtNtBN_6traits8iterator8Iteratorp4ItemRNtNtNtCs39Y7jx17GSw_12serde_derive9internals3ast5FieldEL_ENCNvNtB2N_5bound33with_where_predicates_from_fields0EEB2N_, symObjAddr: 0x2938, symBinAddr: 0x8424C, symSize: 0x24 }
  - { offsetInCU: 0x3A06, offset: 0xBA0F9, size: 0x8, addend: 0x0, symName: __RINvNtCs5fsojcNSbun_4core3ptr13drop_in_placeINtNtNtNtB4_4iter8adapters3map3MapIBH_NtNtCs5CKmLD4IrHZ_11proc_macro212token_stream8IntoIterNCNvNtNtCs39Y7jx17GSw_12serde_derive9internals6respan6respan0ENvNtB1m_3imp19into_compiler_tokenEEB2i_, symObjAddr: 0x295C, symBinAddr: 0x84270, symSize: 0x24 }
  - { offsetInCU: 0x3A35, offset: 0xBA128, size: 0x8, addend: 0x0, symName: __RINvNtCs5fsojcNSbun_4core3ptr13drop_in_placeINtNtNtNtB4_4iter8adapters3map3MapIBH_NtNtCs5GBHJSLTkJw_3syn8generics10TypeParamsNCNvNtCs39Y7jx17GSw_12serde_derive5bound10with_bound0ENCINvXs9_NtCs8wgAxfFqjdh_9hashbrown3setINtB30_7HashSetNtCs5CKmLD4IrHZ_11proc_macro25IdentNtNtNtCsrEL4bNOiaA_3std4hash6random11RandomStateEINtNtNtBN_6traits7collect6ExtendB3J_E6extendB1e_E0EEB25_, symObjAddr: 0x2980, symBinAddr: 0x84294, symSize: 0x24 }
  - { offsetInCU: 0x3A64, offset: 0xBA157, size: 0x8, addend: 0x0, symName: __RINvNtCs5fsojcNSbun_4core3ptr13drop_in_placeINtNtNtNtB4_4iter8adapters3map3MapINtNtBL_10filter_map9FilterMapINtNtCsltZDfVD1VKL_5alloc5boxed3BoxDNtNtNtBN_6traits8iterator8Iteratorp4ItemRNtNtNtCs39Y7jx17GSw_12serde_derive9internals3ast5FieldEL_ENCNvNtB33_5bound33with_where_predicates_from_fields0ENvMNtB1N_5sliceSNtNtCs5GBHJSLTkJw_3syn8generics14WherePredicate6to_vecEEB33_, symObjAddr: 0x29A4, symBinAddr: 0x842B8, symSize: 0x24 }
  - { offsetInCU: 0x3A93, offset: 0xBA186, size: 0x8, addend: 0x0, symName: __RINvNtCs5fsojcNSbun_4core3ptr13drop_in_placeINtNtNtNtB4_4iter8adapters3map3MapINtNtBL_5chain5ChainIBH_INtNtBL_6filter6FilterIBH_NtNtCs5GBHJSLTkJw_3syn8generics10TypeParamsNCNvNtCs39Y7jx17GSw_12serde_derive5bound10with_bounds1_0ENCB2L_s2_0ENCB2L_s3_0EINtNtBL_6cloned6ClonedINtNtNtCsltZDfVD1VKL_5alloc3vec9into_iter8IntoIterRNtNtB26_2ty8TypePathEEENCB2L_s4_0EEB2P_, symObjAddr: 0x29C8, symBinAddr: 0x842DC, symSize: 0x24 }
  - { offsetInCU: 0x3AC2, offset: 0xBA1B5, size: 0x8, addend: 0x0, symName: __RINvNtCs5fsojcNSbun_4core3ptr13drop_in_placeINtNtNtNtB4_4iter8adapters3map3MapINtNtBL_6cloned6ClonedINtNtCs5GBHJSLTkJw_3syn10punctuated4IterNtNtB1F_8generics12GenericParamEENCNvNtCs39Y7jx17GSw_12serde_derive5bound19with_lifetime_bound0EEB2R_, symObjAddr: 0x29EC, symBinAddr: 0x84300, symSize: 0x24 }
  - { offsetInCU: 0x3AF1, offset: 0xBA1E4, size: 0x8, addend: 0x0, symName: __RINvNtCs5fsojcNSbun_4core3ptr13drop_in_placeINtNtNtNtB4_4iter8adapters3map3MapINtNtBL_6filter6FilterIBH_NtNtCs5GBHJSLTkJw_3syn8generics10TypeParamsNCNvNtCs39Y7jx17GSw_12serde_derive5bound10with_bounds1_0ENCB2n_s2_0ENCB2n_s3_0EEB2r_, symObjAddr: 0x2A10, symBinAddr: 0x84324, symSize: 0x24 }
  - { offsetInCU: 0x3B20, offset: 0xBA213, size: 0x8, addend: 0x0, symName: __RINvNtCs5fsojcNSbun_4core3ptr13drop_in_placeINtNtNtNtB4_4iter8adapters3map3MapINtNtBL_9enumerate9EnumerateINtNtCs5GBHJSLTkJw_3syn10punctuated4IterNtNtB1L_4data5FieldEENCNvNtNtCs39Y7jx17GSw_12serde_derive9internals3ast15fields_from_ast0EEB2N_, symObjAddr: 0x2A34, symBinAddr: 0x84348, symSize: 0x24 }
  - { offsetInCU: 0x3B4F, offset: 0xBA242, size: 0x8, addend: 0x0, symName: __RINvNtCs5fsojcNSbun_4core3ptr13drop_in_placeINtNtNtNtB4_4iter8adapters3map3MapINtNtCs5GBHJSLTkJw_3syn10punctuated4IterNtNtB1j_4data7VariantENCNvNtNtCs39Y7jx17GSw_12serde_derive9internals3ast13enum_from_ast0EEB2m_, symObjAddr: 0x2A58, symBinAddr: 0x8436C, symSize: 0x24 }
  - { offsetInCU: 0x3B7E, offset: 0xBA271, size: 0x8, addend: 0x0, symName: __RINvNtCs5fsojcNSbun_4core3ptr13drop_in_placeINtNtNtNtB4_4iter8adapters3map3MapINtNtCs5GBHJSLTkJw_3syn10punctuated4IterNtNtB1j_8generics12GenericParamENCNvNtCs39Y7jx17GSw_12serde_derive5bound12type_of_item0EEB2u_, symObjAddr: 0x2A7C, symBinAddr: 0x84390, symSize: 0x24 }
  - { offsetInCU: 0x3BAD, offset: 0xBA2A0, size: 0x8, addend: 0x0, symName: __RINvNtCs5fsojcNSbun_4core3ptr13drop_in_placeINtNtNtNtB4_4iter8adapters3map3MapINtNtCs5GBHJSLTkJw_3syn10punctuated4IterNtNtB1j_8generics12GenericParamENCNvNtCs39Y7jx17GSw_12serde_derive5bound16without_defaults0EEB2u_, symObjAddr: 0x2AA0, symBinAddr: 0x843B4, symSize: 0x24 }
  - { offsetInCU: 0x3BDC, offset: 0xBA2CF, size: 0x8, addend: 0x0, symName: __RINvNtCs5fsojcNSbun_4core3ptr13drop_in_placeINtNtNtNtB4_4iter8adapters3map3MapINtNtNtCsltZDfVD1VKL_5alloc3vec9into_iter8IntoIterTNtNtCs5GBHJSLTkJw_3syn8generics12GenericParamNtNtB27_5token5CommaEENCNvXs4_NtB27_10punctuatedINtB3g_10PunctuatedB23_B2M_ENtNtNtBN_6traits7collect12IntoIterator9into_iter0EECs39Y7jx17GSw_12serde_derive, symObjAddr: 0x2AC4, symBinAddr: 0x843D8, symSize: 0x24 }
  - { offsetInCU: 0x3C0B, offset: 0xBA2FE, size: 0x8, addend: 0x0, symName: __RINvNtCs5fsojcNSbun_4core3ptr13drop_in_placeINtNtNtNtB4_4iter8adapters3map3MapINtNtNtCsltZDfVD1VKL_5alloc3vec9into_iter8IntoIterTNtNtCs5GBHJSLTkJw_3syn8generics14WherePredicateNtNtB27_5token5CommaEENCNvXs4_NtB27_10punctuatedINtB3i_10PunctuatedB23_B2O_ENtNtNtBN_6traits7collect12IntoIterator9into_iter0EECs39Y7jx17GSw_12serde_derive, symObjAddr: 0x2AE8, symBinAddr: 0x843FC, symSize: 0x24 }
  - { offsetInCU: 0x3C3A, offset: 0xBA32D, size: 0x8, addend: 0x0, symName: __RINvNtCs5fsojcNSbun_4core3ptr13drop_in_placeINtNtNtNtB4_4iter8adapters3map3MapNtNtCs5CKmLD4IrHZ_11proc_macro212token_stream8IntoIterNCNvNtNtCs39Y7jx17GSw_12serde_derive9internals6respan6respan0EEB2e_, symObjAddr: 0x2B0C, symBinAddr: 0x84420, symSize: 0x24 }
  - { offsetInCU: 0x3C69, offset: 0xBA35C, size: 0x8, addend: 0x0, symName: __RINvNtCs5fsojcNSbun_4core3ptr13drop_in_placeINtNtNtNtB4_4iter8adapters3map3MapNtNtCs5GBHJSLTkJw_3syn8generics10TypeParamsNCNvNtCs39Y7jx17GSw_12serde_derive5bound10with_bound0EEB21_, symObjAddr: 0x2B30, symBinAddr: 0x84444, symSize: 0x24 }
  - { offsetInCU: 0x3C98, offset: 0xBA38B, size: 0x8, addend: 0x0, symName: __RINvNtCs5fsojcNSbun_4core3ptr13drop_in_placeINtNtNtNtB4_4iter8adapters3map3MapNtNtCs5GBHJSLTkJw_3syn8generics10TypeParamsNCNvNtCs39Y7jx17GSw_12serde_derive5bound10with_bounds1_0EEB21_, symObjAddr: 0x2B54, symBinAddr: 0x84468, symSize: 0x24 }
  - { offsetInCU: 0x3CC7, offset: 0xBA3BA, size: 0x8, addend: 0x0, symName: __RINvNtCs5fsojcNSbun_4core3ptr13drop_in_placeINtNtNtNtB4_4iter8adapters4fuse4FuseINtNtBL_3map3MapINtNtBL_10filter_map9FilterMapINtNtCsltZDfVD1VKL_5alloc5boxed3BoxDNtNtNtBN_6traits8iterator8Iteratorp4ItemRNtNtNtCs39Y7jx17GSw_12serde_derive9internals3ast5FieldEL_ENCNvNtB3l_5bound33with_where_predicates_from_fields0ENvMNtB25_5sliceSNtNtCs5GBHJSLTkJw_3syn8generics14WherePredicate6to_vecEEEB3l_, symObjAddr: 0x2B78, symBinAddr: 0x8448C, symSize: 0x24 }
  - { offsetInCU: 0x3CF6, offset: 0xBA3E9, size: 0x8, addend: 0x0, symName: __RINvNtCs5fsojcNSbun_4core3ptr13drop_in_placeINtNtNtNtB4_4iter8adapters4skip4SkipINtNtCs5GBHJSLTkJw_3syn10punctuated9IntoPairsNtNtB1l_4path11PathSegmentNtNtB1l_5token7PathSepEEECs39Y7jx17GSw_12serde_derive, symObjAddr: 0x2B9C, symBinAddr: 0x844B0, symSize: 0x24 }
  - { offsetInCU: 0x3D25, offset: 0xBA418, size: 0x8, addend: 0x0, symName: __RINvNtCs5fsojcNSbun_4core3ptr13drop_in_placeINtNtNtNtB4_4iter8adapters5chain5ChainINtNtB4_6option8IntoIterNtNtCs5GBHJSLTkJw_3syn8generics12GenericParamEINtNtB1K_10punctuated8IntoIterB1G_EEECs39Y7jx17GSw_12serde_derive, symObjAddr: 0x2BC0, symBinAddr: 0x844D4, symSize: 0x60 }
  - { offsetInCU: 0x3D54, offset: 0xBA447, size: 0x8, addend: 0x0, symName: __RINvNtCs5fsojcNSbun_4core3ptr13drop_in_placeINtNtNtNtB4_4iter8adapters5chain5ChainINtNtB4_6option8IntoIterNtNtCs5GBHJSLTkJw_3syn8generics12GenericParamEINtNtBL_3map3MapINtNtBL_6cloned6ClonedINtNtB1K_10punctuated4IterB1G_EENCNvNtCs39Y7jx17GSw_12serde_derive5bound19with_lifetime_bound0EEEB3E_, symObjAddr: 0x2C20, symBinAddr: 0x84534, symSize: 0x60 }
  - { offsetInCU: 0x3D83, offset: 0xBA476, size: 0x8, addend: 0x0, symName: __RINvNtCs5fsojcNSbun_4core3ptr13drop_in_placeINtNtNtNtB4_4iter8adapters5chain5ChainINtNtBL_3map3MapINtNtBL_6filter6FilterIB1j_NtNtCs5GBHJSLTkJw_3syn8generics10TypeParamsNCNvNtCs39Y7jx17GSw_12serde_derive5bound10with_bounds1_0ENCB2I_s2_0ENCB2I_s3_0EINtNtBL_6cloned6ClonedINtNtNtCsltZDfVD1VKL_5alloc3vec9into_iter8IntoIterRNtNtB23_2ty8TypePathEEEEB2M_, symObjAddr: 0x2C80, symBinAddr: 0x84594, symSize: 0x5C }
  - { offsetInCU: 0x3DB2, offset: 0xBA4A5, size: 0x8, addend: 0x0, symName: __RINvNtCs5fsojcNSbun_4core3ptr13drop_in_placeINtNtNtNtB4_4iter8adapters6cloned6ClonedINtNtCs5GBHJSLTkJw_3syn10punctuated4IterNtNtB1p_8generics12GenericParamEEECs39Y7jx17GSw_12serde_derive, symObjAddr: 0x2CDC, symBinAddr: 0x845F0, symSize: 0x24 }
  - { offsetInCU: 0x3DE1, offset: 0xBA4D4, size: 0x8, addend: 0x0, symName: __RINvNtCs5fsojcNSbun_4core3ptr13drop_in_placeINtNtNtNtB4_4iter8adapters6cloned6ClonedINtNtNtCsltZDfVD1VKL_5alloc3vec9into_iter8IntoIterRNtNtCs5GBHJSLTkJw_3syn2ty8TypePathEEECs39Y7jx17GSw_12serde_derive, symObjAddr: 0x2D00, symBinAddr: 0x84614, symSize: 0x24 }
  - { offsetInCU: 0x3E10, offset: 0xBA503, size: 0x8, addend: 0x0, symName: __RINvNtCs5fsojcNSbun_4core3ptr13drop_in_placeINtNtNtNtB4_4iter8adapters6filter6FilterINtNtBL_3map3MapNtNtCs5GBHJSLTkJw_3syn8generics10TypeParamsNCNvNtCs39Y7jx17GSw_12serde_derive5bound10with_bounds1_0ENCB2j_s2_0EEB2n_, symObjAddr: 0x2D24, symBinAddr: 0x84638, symSize: 0x24 }
  - { offsetInCU: 0x3E3F, offset: 0xBA532, size: 0x8, addend: 0x0, symName: __RINvNtCs5fsojcNSbun_4core3ptr13drop_in_placeINtNtNtNtB4_4iter8adapters7flatten13FlattenCompatINtNtBL_3map3MapINtNtBL_10filter_map9FilterMapINtNtCsltZDfVD1VKL_5alloc5boxed3BoxDNtNtNtBN_6traits8iterator8Iteratorp4ItemRNtNtNtCs39Y7jx17GSw_12serde_derive9internals3ast5FieldEL_ENCNvNtB3y_5bound33with_where_predicates_from_fields0ENvMNtB2i_5sliceSNtNtCs5GBHJSLTkJw_3syn8generics14WherePredicate6to_vecEINtNtNtB2i_3vec9into_iter8IntoIterB5v_EEEB3y_, symObjAddr: 0x2D48, symBinAddr: 0x8465C, symSize: 0x8C }
  - { offsetInCU: 0x3E6E, offset: 0xBA561, size: 0x8, addend: 0x0, symName: __RINvNtCs5fsojcNSbun_4core3ptr13drop_in_placeINtNtNtNtB4_4iter8adapters7flatten13FlattenCompatINtNtBL_3map3MapINtNtBL_10filter_map9FilterMapINtNtNtB4_5slice4iter4IterNtNtNtCs39Y7jx17GSw_12serde_derive9internals3ast7VariantENCNvNtB2J_5bound35with_where_predicates_from_variants0ENvMNtCsltZDfVD1VKL_5alloc5sliceSNtNtCs5GBHJSLTkJw_3syn8generics14WherePredicate6to_vecEINtNtNtB4w_3vec9into_iter8IntoIterB4X_EEEB2J_, symObjAddr: 0x2DD4, symBinAddr: 0x846E8, symSize: 0x60 }
  - { offsetInCU: 0x3E9D, offset: 0xBA590, size: 0x8, addend: 0x0, symName: __RINvNtCs5fsojcNSbun_4core3ptr13drop_in_placeINtNtNtNtB4_4iter8adapters7flatten7FlatMapINtNtBL_10filter_map9FilterMapINtNtCsltZDfVD1VKL_5alloc5boxed3BoxDNtNtNtBN_6traits8iterator8Iteratorp4ItemRNtNtNtCs39Y7jx17GSw_12serde_derive9internals3ast5FieldEL_ENCNvNtB3b_5bound33with_where_predicates_from_fields0EINtNtB1V_3vec3VecNtNtCs5GBHJSLTkJw_3syn8generics14WherePredicateENvMNtB1V_5sliceSB59_6to_vecEEB3b_, symObjAddr: 0x2E34, symBinAddr: 0x84748, symSize: 0x24 }
  - { offsetInCU: 0x3ECC, offset: 0xBA5BF, size: 0x8, addend: 0x0, symName: __RINvNtCs5fsojcNSbun_4core3ptr13drop_in_placeINtNtNtNtB4_4iter8adapters7flatten7FlatMapINtNtBL_10filter_map9FilterMapINtNtNtB4_5slice4iter4IterNtNtNtCs39Y7jx17GSw_12serde_derive9internals3ast7VariantENCNvNtB2m_5bound35with_where_predicates_from_variants0EINtNtCsltZDfVD1VKL_5alloc3vec3VecNtNtCs5GBHJSLTkJw_3syn8generics14WherePredicateENvMNtB49_5sliceSB4B_6to_vecEEB2m_, symObjAddr: 0x2E58, symBinAddr: 0x8476C, symSize: 0x24 }
  - { offsetInCU: 0x3EFB, offset: 0xBA5EE, size: 0x8, addend: 0x0, symName: __RINvNtCs5fsojcNSbun_4core3ptr13drop_in_placeINtNtNtNtB4_4iter8adapters7flatten7FlatMapINtNtNtB4_5slice4iter4IterNtNtNtCs39Y7jx17GSw_12serde_derive9internals3ast7VariantEIB1n_NtB1O_5FieldENCNvMs_B1O_NtB1O_4Data10all_fields0EEB1S_, symObjAddr: 0x2E7C, symBinAddr: 0x84790, symSize: 0x10 }
  - { offsetInCU: 0x3F2A, offset: 0xBA61D, size: 0x8, addend: 0x0, symName: __RINvNtCs5fsojcNSbun_4core3ptr13drop_in_placeINtNtNtNtB4_4iter8adapters9enumerate9EnumerateINtNtCs5GBHJSLTkJw_3syn10punctuated4IterNtNtB1v_4data5FieldEEECs39Y7jx17GSw_12serde_derive, symObjAddr: 0x2E8C, symBinAddr: 0x847A0, symSize: 0x24 }
  - { offsetInCU: 0x3F59, offset: 0xBA64C, size: 0x8, addend: 0x0, symName: __RINvNtCs5fsojcNSbun_4core3ptr13drop_in_placeINtNtNtNtCsltZDfVD1VKL_5alloc11collections5btree3map8BTreeMapNtNtBP_6string6StringNtNtBL_7set_val9SetValZSTEECs39Y7jx17GSw_12serde_derive, symObjAddr: 0x2EB0, symBinAddr: 0x847C4, symSize: 0x24 }
  - { offsetInCU: 0x3F88, offset: 0xBA67B, size: 0x8, addend: 0x0, symName: __RINvNtCs5fsojcNSbun_4core3ptr13drop_in_placeINtNtNtNtCsltZDfVD1VKL_5alloc11collections5btree3map8BTreeMapNtNtCs5GBHJSLTkJw_3syn8lifetime8LifetimeNtNtBL_7set_val9SetValZSTEECs39Y7jx17GSw_12serde_derive, symObjAddr: 0x2ED4, symBinAddr: 0x847E8, symSize: 0x24 }
  - { offsetInCU: 0x3FB7, offset: 0xBA6AA, size: 0x8, addend: 0x0, symName: __RINvNtCs5fsojcNSbun_4core3ptr13drop_in_placeINtNtNtNtCsltZDfVD1VKL_5alloc11collections5btree3map8IntoIterNtNtBP_6string6StringNtNtBL_7set_val9SetValZSTEECs39Y7jx17GSw_12serde_derive, symObjAddr: 0x2EF8, symBinAddr: 0x8480C, symSize: 0x24 }
  - { offsetInCU: 0x3FE6, offset: 0xBA6D9, size: 0x8, addend: 0x0, symName: __RINvNtCs5fsojcNSbun_4core3ptr13drop_in_placeINtNtNtNtCsltZDfVD1VKL_5alloc11collections5btree3map8IntoIterNtNtCs5GBHJSLTkJw_3syn8lifetime8LifetimeNtNtBL_7set_val9SetValZSTEECs39Y7jx17GSw_12serde_derive, symObjAddr: 0x2F1C, symBinAddr: 0x84830, symSize: 0x24 }
  - { offsetInCU: 0x4015, offset: 0xBA708, size: 0x8, addend: 0x0, symName: __RINvNtCs5fsojcNSbun_4core3ptr13drop_in_placeINtNtNtNtCsltZDfVD1VKL_5alloc11collections5btree3set8BTreeSetNtNtBP_6string6StringEECs39Y7jx17GSw_12serde_derive, symObjAddr: 0x2F40, symBinAddr: 0x84854, symSize: 0x24 }
  - { offsetInCU: 0x4044, offset: 0xBA737, size: 0x8, addend: 0x0, symName: __RINvNtCs5fsojcNSbun_4core3ptr13drop_in_placeINtNtNtNtCsltZDfVD1VKL_5alloc11collections5btree3set8BTreeSetNtNtCs5GBHJSLTkJw_3syn8lifetime8LifetimeEECs39Y7jx17GSw_12serde_derive, symObjAddr: 0x2F64, symBinAddr: 0x84878, symSize: 0x24 }
  - { offsetInCU: 0x4073, offset: 0xBA766, size: 0x8, addend: 0x0, symName: __RINvNtCs5fsojcNSbun_4core3ptr13drop_in_placeINtNtNtNtCsltZDfVD1VKL_5alloc11collections5btree4node11SplitResultNtNtBP_6string6StringNtNtBL_7set_val9SetValZSTNtNtBJ_6marker4LeafEECs39Y7jx17GSw_12serde_derive, symObjAddr: 0x2F88, symBinAddr: 0x8489C, symSize: 0x24 }
  - { offsetInCU: 0x40A2, offset: 0xBA795, size: 0x8, addend: 0x0, symName: __RINvNtCs5fsojcNSbun_4core3ptr13drop_in_placeINtNtNtNtCsltZDfVD1VKL_5alloc11collections5btree4node11SplitResultNtNtBP_6string6StringNtNtBL_7set_val9SetValZSTNtNtBJ_6marker8InternalEECs39Y7jx17GSw_12serde_derive, symObjAddr: 0x2FAC, symBinAddr: 0x848C0, symSize: 0x24 }
  - { offsetInCU: 0x40D1, offset: 0xBA7C4, size: 0x8, addend: 0x0, symName: __RINvNtCs5fsojcNSbun_4core3ptr13drop_in_placeINtNtNtNtCsltZDfVD1VKL_5alloc11collections5btree4node11SplitResultNtNtCs5GBHJSLTkJw_3syn8lifetime8LifetimeNtNtBL_7set_val9SetValZSTNtNtBJ_6marker4LeafEECs39Y7jx17GSw_12serde_derive, symObjAddr: 0x2FD0, symBinAddr: 0x848E4, symSize: 0x24 }
  - { offsetInCU: 0x4100, offset: 0xBA7F3, size: 0x8, addend: 0x0, symName: __RINvNtCs5fsojcNSbun_4core3ptr13drop_in_placeINtNtNtNtCsltZDfVD1VKL_5alloc11collections5btree4node11SplitResultNtNtCs5GBHJSLTkJw_3syn8lifetime8LifetimeNtNtBL_7set_val9SetValZSTNtNtBJ_6marker8InternalEECs39Y7jx17GSw_12serde_derive, symObjAddr: 0x2FF4, symBinAddr: 0x84908, symSize: 0x24 }
  - { offsetInCU: 0x412F, offset: 0xBA822, size: 0x8, addend: 0x0, symName: __RINvNtCs5fsojcNSbun_4core3ptr13drop_in_placeINtNtNtNtCsrEL4bNOiaA_3std11collections4hash3set7HashSetNtCs5CKmLD4IrHZ_11proc_macro25IdentEECs39Y7jx17GSw_12serde_derive, symObjAddr: 0x3018, symBinAddr: 0x8492C, symSize: 0x24 }
  - { offsetInCU: 0x415E, offset: 0xBA851, size: 0x8, addend: 0x0, symName: __RINvNtCs5fsojcNSbun_4core3ptr13drop_in_placeINtNvNtCsrEL4bNOiaA_3std9panicking11begin_panic7PayloadReEECs39Y7jx17GSw_12serde_derive, symObjAddr: 0x303C, symBinAddr: 0x84950, symSize: 0x10 }
  - { offsetInCU: 0x418D, offset: 0xBA880, size: 0x8, addend: 0x0, symName: __RINvNtCs5fsojcNSbun_4core3ptr13drop_in_placeINtNvNtNtCsrEL4bNOiaA_3std2io5Write9write_fmt7AdapterNtNtNtNtNtBP_3sys3pal4unix5stdio6StderrEECs39Y7jx17GSw_12serde_derive, symObjAddr: 0x304C, symBinAddr: 0x84960, symSize: 0x24 }
  - { offsetInCU: 0x41BC, offset: 0xBA8AF, size: 0x8, addend: 0x0, symName: __RINvNtCs5fsojcNSbun_4core3ptr13drop_in_placeINtNvXNtNtCsltZDfVD1VKL_5alloc5slice4hackpNtBM_10ConvertVec6to_vec9DropGuardNtNtCs5GBHJSLTkJw_3syn8generics14WherePredicateNtNtBQ_5alloc6GlobalEECs39Y7jx17GSw_12serde_derive, symObjAddr: 0x3070, symBinAddr: 0x84984, symSize: 0x24 }
  - { offsetInCU: 0x41EB, offset: 0xBA8DE, size: 0x8, addend: 0x0, symName: __RINvNtCs5fsojcNSbun_4core3ptr13drop_in_placeINtNvXsd_NtNtCsltZDfVD1VKL_5alloc3vec9into_iterINtBP_8IntoIterppENtNtNtB4_3ops4drop4Drop4drop9DropGuardNtNtBT_6string6StringNtNtBT_5alloc6GlobalEECs39Y7jx17GSw_12serde_derive, symObjAddr: 0x3094, symBinAddr: 0x849A8, symSize: 0x24 }
  - { offsetInCU: 0x421A, offset: 0xBA90D, size: 0x8, addend: 0x0, symName: __RINvNtCs5fsojcNSbun_4core3ptr13drop_in_placeINtNvXsd_NtNtCsltZDfVD1VKL_5alloc3vec9into_iterINtBP_8IntoIterppENtNtNtB4_3ops4drop4Drop4drop9DropGuardNtNtCs5GBHJSLTkJw_3syn3lit6LitStrNtNtBT_5alloc6GlobalEECs39Y7jx17GSw_12serde_derive, symObjAddr: 0x30B8, symBinAddr: 0x849CC, symSize: 0x24 }
  - { offsetInCU: 0x4249, offset: 0xBA93C, size: 0x8, addend: 0x0, symName: __RINvNtCs5fsojcNSbun_4core3ptr13drop_in_placeINtNvXsd_NtNtCsltZDfVD1VKL_5alloc3vec9into_iterINtBP_8IntoIterppENtNtNtB4_3ops4drop4Drop4drop9DropGuardNtNtCs5GBHJSLTkJw_3syn4path11PathSegmentNtNtBT_5alloc6GlobalEECs39Y7jx17GSw_12serde_derive, symObjAddr: 0x30DC, symBinAddr: 0x849F0, symSize: 0x24 }
  - { offsetInCU: 0x4278, offset: 0xBA96B, size: 0x8, addend: 0x0, symName: __RINvNtCs5fsojcNSbun_4core3ptr13drop_in_placeINtNvXsd_NtNtCsltZDfVD1VKL_5alloc3vec9into_iterINtBP_8IntoIterppENtNtNtB4_3ops4drop4Drop4drop9DropGuardNtNtCs5GBHJSLTkJw_3syn5error5ErrorNtNtBT_5alloc6GlobalEECs39Y7jx17GSw_12serde_derive, symObjAddr: 0x3100, symBinAddr: 0x84A14, symSize: 0x24 }
  - { offsetInCU: 0x42A7, offset: 0xBA99A, size: 0x8, addend: 0x0, symName: __RINvNtCs5fsojcNSbun_4core3ptr13drop_in_placeINtNvXsd_NtNtCsltZDfVD1VKL_5alloc3vec9into_iterINtBP_8IntoIterppENtNtNtB4_3ops4drop4Drop4drop9DropGuardNtNtCs5GBHJSLTkJw_3syn8generics12GenericParamNtNtBT_5alloc6GlobalEECs39Y7jx17GSw_12serde_derive, symObjAddr: 0x3124, symBinAddr: 0x84A38, symSize: 0x24 }
  - { offsetInCU: 0x42D6, offset: 0xBA9C9, size: 0x8, addend: 0x0, symName: __RINvNtCs5fsojcNSbun_4core3ptr13drop_in_placeINtNvXsd_NtNtCsltZDfVD1VKL_5alloc3vec9into_iterINtBP_8IntoIterppENtNtNtB4_3ops4drop4Drop4drop9DropGuardNtNtCs5GBHJSLTkJw_3syn8generics14WherePredicateNtNtBT_5alloc6GlobalEECs39Y7jx17GSw_12serde_derive, symObjAddr: 0x3148, symBinAddr: 0x84A5C, symSize: 0x24 }
  - { offsetInCU: 0x4305, offset: 0xBA9F8, size: 0x8, addend: 0x0, symName: __RINvNtCs5fsojcNSbun_4core3ptr13drop_in_placeINtNvXsd_NtNtCsltZDfVD1VKL_5alloc3vec9into_iterINtBP_8IntoIterppENtNtNtB4_3ops4drop4Drop4drop9DropGuardRNtNtCs5GBHJSLTkJw_3syn2ty8TypePathNtNtBT_5alloc6GlobalEECs39Y7jx17GSw_12serde_derive, symObjAddr: 0x316C, symBinAddr: 0x84A80, symSize: 0x24 }
  - { offsetInCU: 0x4334, offset: 0xBAA27, size: 0x8, addend: 0x0, symName: __RINvNtCs5fsojcNSbun_4core3ptr13drop_in_placeINtNvXsd_NtNtCsltZDfVD1VKL_5alloc3vec9into_iterINtBP_8IntoIterppENtNtNtB4_3ops4drop4Drop4drop9DropGuardTNtNtCs5GBHJSLTkJw_3syn8generics12GenericParamNtNtB2q_5token5CommaENtNtBT_5alloc6GlobalEECs39Y7jx17GSw_12serde_derive, symObjAddr: 0x3190, symBinAddr: 0x84AA4, symSize: 0x24 }
  - { offsetInCU: 0x4363, offset: 0xBAA56, size: 0x8, addend: 0x0, symName: __RINvNtCs5fsojcNSbun_4core3ptr13drop_in_placeINtNvXsd_NtNtCsltZDfVD1VKL_5alloc3vec9into_iterINtBP_8IntoIterppENtNtNtB4_3ops4drop4Drop4drop9DropGuardTNtNtCs5GBHJSLTkJw_3syn8generics14WherePredicateNtNtB2q_5token5CommaENtNtBT_5alloc6GlobalEECs39Y7jx17GSw_12serde_derive, symObjAddr: 0x31B4, symBinAddr: 0x84AC8, symSize: 0x24 }
  - { offsetInCU: 0x4392, offset: 0xBAA85, size: 0x8, addend: 0x0, symName: __RINvNtCs5fsojcNSbun_4core3ptr13drop_in_placeINtNvXsw_NtNtNtCsltZDfVD1VKL_5alloc11collections5btree3mapINtBP_8IntoIterpppENtNtNtB4_3ops4drop4Drop4drop9DropGuardNtNtBV_6string6StringNtNtBR_7set_val9SetValZSTNtNtBV_5alloc6GlobalEECs39Y7jx17GSw_12serde_derive, symObjAddr: 0x31D8, symBinAddr: 0x84AEC, symSize: 0x24 }
  - { offsetInCU: 0x43C1, offset: 0xBAAB4, size: 0x8, addend: 0x0, symName: __RINvNtCs5fsojcNSbun_4core3ptr13drop_in_placeINtNvXsw_NtNtNtCsltZDfVD1VKL_5alloc11collections5btree3mapINtBP_8IntoIterpppENtNtNtB4_3ops4drop4Drop4drop9DropGuardNtNtCs5GBHJSLTkJw_3syn8lifetime8LifetimeNtNtBR_7set_val9SetValZSTNtNtBV_5alloc6GlobalEECs39Y7jx17GSw_12serde_derive, symObjAddr: 0x31FC, symBinAddr: 0x84B10, symSize: 0x24 }
  - { offsetInCU: 0x43F0, offset: 0xBAAE3, size: 0x8, addend: 0x0, symName: __RINvNtCs5fsojcNSbun_4core3ptr13drop_in_placeNCINvMs6_NtCs8wgAxfFqjdh_9hashbrown3rawINtBP_8RawTableTNtCs5CKmLD4IrHZ_11proc_macro25IdentuEE14reserve_rehashNCINvNtBR_3map11make_hasherB1z_uNtNtNtCsrEL4bNOiaA_3std4hash6random11RandomStateE0E0ECs39Y7jx17GSw_12serde_derive, symObjAddr: 0x3220, symBinAddr: 0x84B34, symSize: 0x10 }
  - { offsetInCU: 0x441F, offset: 0xBAB12, size: 0x8, addend: 0x0, symName: __RINvNtCs5fsojcNSbun_4core3ptr13drop_in_placeNCINvMs6_NtCs8wgAxfFqjdh_9hashbrown3rawINtBP_8RawTableTNtCs5CKmLD4IrHZ_11proc_macro25IdentuEE24find_or_find_insert_slotNCINvNtBR_3map14equivalent_keyB1z_B1z_uE0NCINvB2G_11make_hasherB1z_uNtNtNtCsrEL4bNOiaA_3std4hash6random11RandomStateE0E0ECs39Y7jx17GSw_12serde_derive, symObjAddr: 0x3230, symBinAddr: 0x84B44, symSize: 0x10 }
  - { offsetInCU: 0x444E, offset: 0xBAB41, size: 0x8, addend: 0x0, symName: __RINvNtCs5fsojcNSbun_4core3ptr13drop_in_placeNCINvMs6_NtCs8wgAxfFqjdh_9hashbrown3rawINtBP_8RawTableTNtCs5CKmLD4IrHZ_11proc_macro25IdentuEE4findNCINvNtBR_3map14equivalent_keyB1z_B1z_uE0E0ECs39Y7jx17GSw_12serde_derive, symObjAddr: 0x3240, symBinAddr: 0x84B54, symSize: 0x10 }
  - { offsetInCU: 0x447D, offset: 0xBAB70, size: 0x8, addend: 0x0, symName: __RINvNtCs5fsojcNSbun_4core3ptr13drop_in_placeNCINvMsi_NtCsltZDfVD1VKL_5alloc3vecINtBP_3VecNtCs5CKmLD4IrHZ_11proc_macro211TokenStreamE14extend_trustedINtNtNtNtB4_4iter8adapters3map3MapINtNtB2r_9enumerate9EnumerateINtNtNtB4_5slice4iter4IterNtNtNtCs39Y7jx17GSw_12serde_derive9internals3ast7VariantEENCNvNtB3T_3ser14serialize_enum0EE0EB3T_, symObjAddr: 0x3250, symBinAddr: 0x84B64, symSize: 0x24 }
  - { offsetInCU: 0x44AC, offset: 0xBAB9F, size: 0x8, addend: 0x0, symName: __RINvNtCs5fsojcNSbun_4core3ptr13drop_in_placeNCINvMsi_NtCsltZDfVD1VKL_5alloc3vecINtBP_3VecNtCs5CKmLD4IrHZ_11proc_macro211TokenStreamE14extend_trustedINtNtNtNtB4_4iter8adapters3map3MapINtNtNtB4_5slice4iter4IterNtNtNtCs39Y7jx17GSw_12serde_derive9internals3ast5FieldENCNvNtB3q_3ser27wrap_serialize_variant_withs_0EE0EB3q_, symObjAddr: 0x3274, symBinAddr: 0x84B88, symSize: 0x24 }
  - { offsetInCU: 0x44DB, offset: 0xBABCE, size: 0x8, addend: 0x0, symName: __RINvNtCs5fsojcNSbun_4core3ptr13drop_in_placeNCINvMsi_NtCsltZDfVD1VKL_5alloc3vecINtBP_3VecNtCs5CKmLD4IrHZ_11proc_macro25IdentE14extend_trustedINtNtNtNtB4_4iter8adapters3map3MapINtNtNtB4_3ops5range5RangejENCNCNvNtCs39Y7jx17GSw_12serde_derive7pretend21pretend_variants_used00EE0EB3n_, symObjAddr: 0x3298, symBinAddr: 0x84BAC, symSize: 0x24 }
  - { offsetInCU: 0x450A, offset: 0xBABFD, size: 0x8, addend: 0x0, symName: __RINvNtCs5fsojcNSbun_4core3ptr13drop_in_placeNCINvMsi_NtCsltZDfVD1VKL_5alloc3vecINtBP_3VecNtNtCs5GBHJSLTkJw_3syn4expr6MemberE14extend_trustedINtNtNtNtB4_4iter8adapters3map3MapINtNtNtB4_3ops5range5RangejENCNvNtCs39Y7jx17GSw_12serde_derive3ser35serialize_adjacently_tagged_variants_0EE0EB3k_, symObjAddr: 0x32BC, symBinAddr: 0x84BD0, symSize: 0x24 }
  - { offsetInCU: 0x4539, offset: 0xBAC2C, size: 0x8, addend: 0x0, symName: __RINvNtCs5fsojcNSbun_4core3ptr13drop_in_placeNCINvMsi_NtCsltZDfVD1VKL_5alloc3vecINtBP_3VecNtNtCs5GBHJSLTkJw_3syn4expr6MemberE14extend_trustedINtNtNtNtB4_4iter8adapters3map3MapINtNtNtB4_5slice4iter4IterNtNtNtCs39Y7jx17GSw_12serde_derive9internals3ast5FieldENCNvNtB3i_3ser35serialize_adjacently_tagged_variants0_0EE0EB3i_, symObjAddr: 0x32E0, symBinAddr: 0x84BF4, symSize: 0x24 }
  - { offsetInCU: 0x4568, offset: 0xBAC5B, size: 0x8, addend: 0x0, symName: __RINvNtCs5fsojcNSbun_4core3ptr13drop_in_placeNCINvMsi_NtCsltZDfVD1VKL_5alloc3vecINtBP_3VecNtNtCs5GBHJSLTkJw_3syn8generics12GenericParamE14extend_trustedINtNtB4_6option8IntoIterB1p_EE0ECs39Y7jx17GSw_12serde_derive, symObjAddr: 0x3304, symBinAddr: 0x84C18, symSize: 0x24 }
  - { offsetInCU: 0x4597, offset: 0xBAC8A, size: 0x8, addend: 0x0, symName: __RINvNtCs5fsojcNSbun_4core3ptr13drop_in_placeNCINvMsi_NtCsltZDfVD1VKL_5alloc3vecINtBP_3VecNtNtCs5GBHJSLTkJw_3syn8generics12GenericParamE14extend_trustedINtNtNtNtB4_4iter8adapters3map3MapINtNtBP_9into_iter8IntoIterTB1p_NtNtB1t_5token5CommaEENCNvXs4_NtB1t_10punctuatedINtB3X_10PunctuatedB1p_B3t_ENtNtNtB2w_6traits7collect12IntoIterator9into_iter0EE0ECs39Y7jx17GSw_12serde_derive, symObjAddr: 0x3328, symBinAddr: 0x84C3C, symSize: 0x24 }
  - { offsetInCU: 0x45C6, offset: 0xBACB9, size: 0x8, addend: 0x0, symName: __RINvNtCs5fsojcNSbun_4core3ptr13drop_in_placeNCINvMsi_NtCsltZDfVD1VKL_5alloc3vecINtBP_3VecNtNtCs5GBHJSLTkJw_3syn8generics14WherePredicateE14extend_trustedINtNtB4_6option8IntoIterB1p_EE0ECs39Y7jx17GSw_12serde_derive, symObjAddr: 0x334C, symBinAddr: 0x84C60, symSize: 0x24 }
  - { offsetInCU: 0x45F5, offset: 0xBACE8, size: 0x8, addend: 0x0, symName: __RINvNtCs5fsojcNSbun_4core3ptr13drop_in_placeNCINvMsi_NtCsltZDfVD1VKL_5alloc3vecINtBP_3VecNtNtCs5GBHJSLTkJw_3syn8generics14WherePredicateE14extend_trustedINtNtNtNtB4_4iter8adapters3map3MapINtNtBP_9into_iter8IntoIterTB1p_NtNtB1t_5token5CommaEENCNvXs4_NtB1t_10punctuatedINtB3Z_10PunctuatedB1p_B3v_ENtNtNtB2y_6traits7collect12IntoIterator9into_iter0EE0ECs39Y7jx17GSw_12serde_derive, symObjAddr: 0x3370, symBinAddr: 0x84C84, symSize: 0x24 }
  - { offsetInCU: 0x4624, offset: 0xBAD17, size: 0x8, addend: 0x0, symName: __RINvNtCs5fsojcNSbun_4core3ptr13drop_in_placeNCINvMsi_NtCsltZDfVD1VKL_5alloc3vecINtBP_3VecRNtCs5CKmLD4IrHZ_11proc_macro25IdentE14extend_trustedINtNtNtNtB4_4iter8adapters3map3MapINtNtNtB4_5slice4iter4IterTReB1q_RINtNtNtNtBR_11collections5btree3set8BTreeSetNtNtBR_6string6StringEEENCNvNtCs39Y7jx17GSw_12serde_derive2de32deserialize_generated_identifier0EE0EB4y_, symObjAddr: 0x3394, symBinAddr: 0x84CA8, symSize: 0x24 }
  - { offsetInCU: 0x4653, offset: 0xBAD46, size: 0x8, addend: 0x0, symName: __RINvNtCs5fsojcNSbun_4core3ptr13drop_in_placeNCINvMsi_NtCsltZDfVD1VKL_5alloc3vecINtBP_3VecRNtNtCs5GBHJSLTkJw_3syn2ty4TypeE14extend_trustedINtNtNtNtB4_4iter8adapters3map3MapINtNtNtB4_5slice4iter4IterNtNtNtCs39Y7jx17GSw_12serde_derive9internals3ast5FieldENCNvNtB3f_3ser27wrap_serialize_variant_with0EE0EB3f_, symObjAddr: 0x33B8, symBinAddr: 0x84CCC, symSize: 0x24 }
  - { offsetInCU: 0x4682, offset: 0xBAD75, size: 0x8, addend: 0x0, symName: __RINvNtCs5fsojcNSbun_4core3ptr13drop_in_placeNCINvMsi_NtCsltZDfVD1VKL_5alloc3vecINtBP_3VecRNtNtCs5GBHJSLTkJw_3syn4expr6MemberE14extend_trustedINtNtNtNtB4_4iter8adapters3map3MapINtNtNtB4_5slice4iter4IterNtNtNtCs39Y7jx17GSw_12serde_derive9internals3ast5FieldENCNvNtB3j_3ser37serialize_struct_variant_with_flattens0_0EE0EB3j_, symObjAddr: 0x33DC, symBinAddr: 0x84CF0, symSize: 0x24 }
  - { offsetInCU: 0x46B1, offset: 0xBADA4, size: 0x8, addend: 0x0, symName: __RINvNtCs5fsojcNSbun_4core3ptr13drop_in_placeNCINvMsi_NtCsltZDfVD1VKL_5alloc3vecINtBP_3VecRNtNtCs5GBHJSLTkJw_3syn4expr6MemberE14extend_trustedINtNtNtNtB4_4iter8adapters3map3MapINtNtNtB4_5slice4iter4IterNtNtNtCs39Y7jx17GSw_12serde_derive9internals3ast5FieldENCNvNtB3j_7pretend33pretend_fields_used_struct_packed0EE0EB3j_, symObjAddr: 0x3400, symBinAddr: 0x84D14, symSize: 0x24 }
  - { offsetInCU: 0x46E0, offset: 0xBADD3, size: 0x8, addend: 0x0, symName: __RINvNtCs5fsojcNSbun_4core3ptr13drop_in_placeNCINvMsi_NtCsltZDfVD1VKL_5alloc3vecINtBP_3VecTRNtNtNtCs39Y7jx17GSw_12serde_derive9internals3ast5FieldNtCs5CKmLD4IrHZ_11proc_macro25IdentEE14extend_trustedINtNtNtNtB4_4iter8adapters3map3MapINtNtB3f_9enumerate9EnumerateINtNtNtB4_5slice4iter4IterB1r_EENCNvNtB1x_2de15deserialize_map0EE0EB1x_, symObjAddr: 0x3424, symBinAddr: 0x84D38, symSize: 0x24 }
  - { offsetInCU: 0x470F, offset: 0xBAE02, size: 0x8, addend: 0x0, symName: __RINvNtCs5fsojcNSbun_4core3ptr13drop_in_placeNCINvMsi_NtCsltZDfVD1VKL_5alloc3vecINtBP_3VecTReNtCs5CKmLD4IrHZ_11proc_macro25IdentRINtNtNtNtBR_11collections5btree3set8BTreeSetNtNtBR_6string6StringEEE14extend_trustedINtNtNtNtB4_4iter8adapters3map3MapINtNtNtB4_5slice4iter4IterNtNtNtCs39Y7jx17GSw_12serde_derive9internals3ast7VariantENCNvNtB4s_2de29deserialize_custom_identifiers_0EE0EB4s_, symObjAddr: 0x3448, symBinAddr: 0x84D5C, symSize: 0x24 }
  - { offsetInCU: 0x473E, offset: 0xBAE31, size: 0x8, addend: 0x0, symName: __RINvNtCs5fsojcNSbun_4core3ptr13drop_in_placeNCINvNtNtNtB4_4iter8adapters3map8map_foldRNtNtNtCs39Y7jx17GSw_12serde_derive9internals3ast5FieldNtCs5CKmLD4IrHZ_11proc_macro211TokenStreamuNCNvNtB1s_3ser27wrap_serialize_variant_withs_0NCINvNvNtNtNtBP_6traits8iterator8Iterator8for_each4callB2e_NCINvMsi_NtCsltZDfVD1VKL_5alloc3vecINtB4L_3VecB2e_E14extend_trustedINtBL_3MapINtNtNtB4_5slice4iter4IterB1m_EB2V_EE0E0E0EB1s_, symObjAddr: 0x346C, symBinAddr: 0x84D80, symSize: 0x24 }
  - { offsetInCU: 0x476D, offset: 0xBAE60, size: 0x8, addend: 0x0, symName: __RINvNtCs5fsojcNSbun_4core3ptr13drop_in_placeNCINvNtNtNtB4_4iter8adapters3map8map_foldRNtNtNtCs39Y7jx17GSw_12serde_derive9internals3ast5FieldNtNtCs5GBHJSLTkJw_3syn4expr6MemberuNCNvNtB1s_3ser35serialize_adjacently_tagged_variants0_0NCINvNvNtNtNtBP_6traits8iterator8Iterator8for_each4callB2e_NCINvMsi_NtCsltZDfVD1VKL_5alloc3vecINtB4M_3VecB2e_E14extend_trustedINtBL_3MapINtNtNtB4_5slice4iter4IterB1m_EB2N_EE0E0E0EB1s_, symObjAddr: 0x3490, symBinAddr: 0x84DA4, symSize: 0x24 }
  - { offsetInCU: 0x479C, offset: 0xBAE8F, size: 0x8, addend: 0x0, symName: __RINvNtCs5fsojcNSbun_4core3ptr13drop_in_placeNCINvNtNtNtB4_4iter8adapters3map8map_foldRNtNtNtCs39Y7jx17GSw_12serde_derive9internals3ast5FieldRNtNtCs5GBHJSLTkJw_3syn2ty4TypeuNCNvNtB1s_3ser27wrap_serialize_variant_with0NCINvNvNtNtNtBP_6traits8iterator8Iterator8for_each4callB2e_NCINvMsi_NtCsltZDfVD1VKL_5alloc3vecINtB4y_3VecB2e_E14extend_trustedINtBL_3MapINtNtNtB4_5slice4iter4IterB1m_EB2K_EE0E0E0EB1s_, symObjAddr: 0x34B4, symBinAddr: 0x84DC8, symSize: 0x24 }
  - { offsetInCU: 0x47CB, offset: 0xBAEBE, size: 0x8, addend: 0x0, symName: __RINvNtCs5fsojcNSbun_4core3ptr13drop_in_placeNCINvNtNtNtB4_4iter8adapters3map8map_foldRNtNtNtCs39Y7jx17GSw_12serde_derive9internals3ast5FieldRNtNtCs5GBHJSLTkJw_3syn4expr6MemberuNCNvNtB1s_3ser37serialize_struct_variant_with_flattens0_0NCINvNvNtNtNtBP_6traits8iterator8Iterator8for_each4callB2e_NCINvMsi_NtCsltZDfVD1VKL_5alloc3vecINtB4P_3VecB2e_E14extend_trustedINtBL_3MapINtNtNtB4_5slice4iter4IterB1m_EB2O_EE0E0E0EB1s_, symObjAddr: 0x34D8, symBinAddr: 0x84DEC, symSize: 0x24 }
  - { offsetInCU: 0x47FA, offset: 0xBAEED, size: 0x8, addend: 0x0, symName: __RINvNtCs5fsojcNSbun_4core3ptr13drop_in_placeNCINvNtNtNtB4_4iter8adapters3map8map_foldRNtNtNtCs39Y7jx17GSw_12serde_derive9internals3ast5FieldRNtNtCs5GBHJSLTkJw_3syn4expr6MemberuNCNvNtB1s_7pretend33pretend_fields_used_struct_packed0NCINvNvNtNtNtBP_6traits8iterator8Iterator8for_each4callB2e_NCINvMsi_NtCsltZDfVD1VKL_5alloc3vecINtB4M_3VecB2e_E14extend_trustedINtBL_3MapINtNtNtB4_5slice4iter4IterB1m_EB2O_EE0E0E0EB1s_, symObjAddr: 0x34FC, symBinAddr: 0x84E10, symSize: 0x24 }
  - { offsetInCU: 0x4829, offset: 0xBAF1C, size: 0x8, addend: 0x0, symName: __RINvNtCs5fsojcNSbun_4core3ptr13drop_in_placeNCINvNtNtNtB4_4iter8adapters3map8map_foldRNtNtNtCs39Y7jx17GSw_12serde_derive9internals3ast7VariantTReNtCs5CKmLD4IrHZ_11proc_macro25IdentRINtNtNtNtCsltZDfVD1VKL_5alloc11collections5btree3set8BTreeSetNtNtB32_6string6StringEEuNCNvNtB1s_2de29deserialize_custom_identifiers_0NCINvNvNtNtNtBP_6traits8iterator8Iterator8for_each4callB2g_NCINvMsi_NtB32_3vecINtB68_3VecB2g_E14extend_trustedINtBL_3MapINtNtNtB4_5slice4iter4IterB1m_EB4h_EE0E0E0EB1s_, symObjAddr: 0x3520, symBinAddr: 0x84E34, symSize: 0x24 }
  - { offsetInCU: 0x4858, offset: 0xBAF4B, size: 0x8, addend: 0x0, symName: __RINvNtCs5fsojcNSbun_4core3ptr13drop_in_placeNCINvNtNtNtB4_4iter8adapters3map8map_foldRTReNtCs5CKmLD4IrHZ_11proc_macro25IdentRINtNtNtNtCsltZDfVD1VKL_5alloc11collections5btree3set8BTreeSetNtNtB28_6string6StringEERB1p_uNCNvNtCs39Y7jx17GSw_12serde_derive2de32deserialize_generated_identifier0NCINvNvNtNtNtBP_6traits8iterator8Iterator8for_each4callB3m_NCINvMsi_NtB28_3vecINtB5I_3VecB3m_E14extend_trustedINtBL_3MapINtNtNtB4_5slice4iter4IterB1m_EB3s_EE0E0E0EB3y_, symObjAddr: 0x3544, symBinAddr: 0x84E58, symSize: 0x24 }
  - { offsetInCU: 0x4887, offset: 0xBAF7A, size: 0x8, addend: 0x0, symName: __RINvNtCs5fsojcNSbun_4core3ptr13drop_in_placeNCINvNtNtNtB4_4iter8adapters3map8map_foldTNtNtCs5GBHJSLTkJw_3syn8generics12GenericParamNtNtB1q_5token5CommaEB1m_uNCNvXs4_NtB1q_10punctuatedINtB2D_10PunctuatedB1m_B25_ENtNtNtBP_6traits7collect12IntoIterator9into_iter0NCINvNvNtNtB3r_8iterator8Iterator8for_each4callB1m_NCINvMsi_NtCsltZDfVD1VKL_5alloc3vecINtB58_3VecB1m_E14extend_trustedINtBL_3MapINtNtB58_9into_iter8IntoIterB1l_EB2v_EE0E0E0ECs39Y7jx17GSw_12serde_derive, symObjAddr: 0x3568, symBinAddr: 0x84E7C, symSize: 0x24 }
  - { offsetInCU: 0x48B6, offset: 0xBAFA9, size: 0x8, addend: 0x0, symName: __RINvNtCs5fsojcNSbun_4core3ptr13drop_in_placeNCINvNtNtNtB4_4iter8adapters3map8map_foldTNtNtCs5GBHJSLTkJw_3syn8generics14WherePredicateNtNtB1q_5token5CommaEB1m_uNCNvXs4_NtB1q_10punctuatedINtB2F_10PunctuatedB1m_B27_ENtNtNtBP_6traits7collect12IntoIterator9into_iter0NCINvNvNtNtB3t_8iterator8Iterator8for_each4callB1m_NCINvMsi_NtCsltZDfVD1VKL_5alloc3vecINtB5a_3VecB1m_E14extend_trustedINtBL_3MapINtNtB5a_9into_iter8IntoIterB1l_EB2x_EE0E0E0ECs39Y7jx17GSw_12serde_derive, symObjAddr: 0x358C, symBinAddr: 0x84EA0, symSize: 0x24 }
  - { offsetInCU: 0x48E5, offset: 0xBAFD8, size: 0x8, addend: 0x0, symName: __RINvNtCs5fsojcNSbun_4core3ptr13drop_in_placeNCINvNtNtNtB4_4iter8adapters3map8map_foldTjRNtNtNtCs39Y7jx17GSw_12serde_derive9internals3ast5FieldETB1n_NtCs5CKmLD4IrHZ_11proc_macro25IdentEuNCNvNtB1u_2de15deserialize_map0NCINvNvNtNtNtBP_6traits8iterator8Iterator8for_each4callB2h_NCINvMsi_NtCsltZDfVD1VKL_5alloc3vecINtB4y_3VecB2h_E14extend_trustedINtBL_3MapINtNtBN_9enumerate9EnumerateINtNtNtB4_5slice4iter4IterB1o_EEB2X_EE0E0E0EB1u_, symObjAddr: 0x35B0, symBinAddr: 0x84EC4, symSize: 0x24 }
  - { offsetInCU: 0x4914, offset: 0xBB007, size: 0x8, addend: 0x0, symName: __RINvNtCs5fsojcNSbun_4core3ptr13drop_in_placeNCINvNtNtNtB4_4iter8adapters3map8map_foldTjRNtNtNtCs39Y7jx17GSw_12serde_derive9internals3ast7VariantENtCs5CKmLD4IrHZ_11proc_macro211TokenStreamuNCNvNtB1u_3ser14serialize_enum0NCINvNvNtNtNtBP_6traits8iterator8Iterator8for_each4callB2j_NCINvMsi_NtCsltZDfVD1VKL_5alloc3vecINtB4B_3VecB2j_E14extend_trustedINtBL_3MapINtNtBN_9enumerate9EnumerateINtNtNtB4_5slice4iter4IterB1o_EEB30_EE0E0E0EB1u_, symObjAddr: 0x35D4, symBinAddr: 0x84EE8, symSize: 0x24 }
  - { offsetInCU: 0x4943, offset: 0xBB036, size: 0x8, addend: 0x0, symName: __RINvNtCs5fsojcNSbun_4core3ptr13drop_in_placeNCINvNtNtNtB4_4iter8adapters3map8map_foldjNtCs5CKmLD4IrHZ_11proc_macro25IdentuNCNCNvNtCs39Y7jx17GSw_12serde_derive7pretend21pretend_variants_used00NCINvNvNtNtNtBP_6traits8iterator8Iterator8for_each4callB1m_NCINvMsi_NtCsltZDfVD1VKL_5alloc3vecINtB49_3VecB1m_E14extend_trustedINtBL_3MapINtNtNtB4_3ops5range5RangejEB1W_EE0E0E0EB24_, symObjAddr: 0x35F8, symBinAddr: 0x84F0C, symSize: 0x24 }
  - { offsetInCU: 0x4972, offset: 0xBB065, size: 0x8, addend: 0x0, symName: __RINvNtCs5fsojcNSbun_4core3ptr13drop_in_placeNCINvNtNtNtB4_4iter8adapters3map8map_foldjNtNtCs5GBHJSLTkJw_3syn4expr6MemberuNCNvNtCs39Y7jx17GSw_12serde_derive3ser35serialize_adjacently_tagged_variants_0NCINvNvNtNtNtBP_6traits8iterator8Iterator8for_each4callB1m_NCINvMsi_NtCsltZDfVD1VKL_5alloc3vecINtB4h_3VecB1m_E14extend_trustedINtBL_3MapINtNtNtB4_3ops5range5RangejEB1V_EE0E0E0EB21_, symObjAddr: 0x361C, symBinAddr: 0x84F30, symSize: 0x24 }
  - { offsetInCU: 0x49A1, offset: 0xBB094, size: 0x8, addend: 0x0, symName: __RINvNtCs5fsojcNSbun_4core3ptr13drop_in_placeNCINvNvNtNtNtNtB4_4iter6traits8iterator8Iterator8for_each4callNtCs5CKmLD4IrHZ_11proc_macro211TokenStreamNCINvMsi_NtCsltZDfVD1VKL_5alloc3vecINtB2v_3VecB1G_E14extend_trustedINtNtNtBT_8adapters3map3MapINtNtB3w_9enumerate9EnumerateINtNtNtB4_5slice4iter4IterNtNtNtCs39Y7jx17GSw_12serde_derive9internals3ast7VariantEENCNvNtB4R_3ser14serialize_enum0EE0E0EB4R_, symObjAddr: 0x3640, symBinAddr: 0x84F54, symSize: 0x24 }
  - { offsetInCU: 0x49D0, offset: 0xBB0C3, size: 0x8, addend: 0x0, symName: __RINvNtCs5fsojcNSbun_4core3ptr13drop_in_placeNCINvNvNtNtNtNtB4_4iter6traits8iterator8Iterator8for_each4callNtCs5CKmLD4IrHZ_11proc_macro211TokenStreamNCINvMsi_NtCsltZDfVD1VKL_5alloc3vecINtB2v_3VecB1G_E14extend_trustedINtNtNtBT_8adapters3map3MapINtNtNtB4_5slice4iter4IterNtNtNtCs39Y7jx17GSw_12serde_derive9internals3ast5FieldENCNvNtB4o_3ser27wrap_serialize_variant_withs_0EE0E0EB4o_, symObjAddr: 0x3664, symBinAddr: 0x84F78, symSize: 0x24 }
  - { offsetInCU: 0x49FF, offset: 0xBB0F2, size: 0x8, addend: 0x0, symName: __RINvNtCs5fsojcNSbun_4core3ptr13drop_in_placeNCINvNvNtNtNtNtB4_4iter6traits8iterator8Iterator8for_each4callNtCs5CKmLD4IrHZ_11proc_macro25IdentNCINvMsi_NtCsltZDfVD1VKL_5alloc3vecINtB2o_3VecB1G_E14extend_trustedINtNtNtBT_8adapters3map3MapINtNtNtB4_3ops5range5RangejENCNCNvNtCs39Y7jx17GSw_12serde_derive7pretend21pretend_variants_used00EE0E0EB4l_, symObjAddr: 0x3688, symBinAddr: 0x84F9C, symSize: 0x24 }
  - { offsetInCU: 0x4A2E, offset: 0xBB121, size: 0x8, addend: 0x0, symName: __RINvNtCs5fsojcNSbun_4core3ptr13drop_in_placeNCINvNvNtNtNtNtB4_4iter6traits8iterator8Iterator8for_each4callNtNtCs5GBHJSLTkJw_3syn4expr6MemberNCINvMsi_NtCsltZDfVD1VKL_5alloc3vecINtB2n_3VecB1G_E14extend_trustedINtNtNtBT_8adapters3map3MapINtNtNtB4_3ops5range5RangejENCNvNtCs39Y7jx17GSw_12serde_derive3ser35serialize_adjacently_tagged_variants_0EE0E0EB4i_, symObjAddr: 0x36AC, symBinAddr: 0x84FC0, symSize: 0x24 }
  - { offsetInCU: 0x4A5D, offset: 0xBB150, size: 0x8, addend: 0x0, symName: __RINvNtCs5fsojcNSbun_4core3ptr13drop_in_placeNCINvNvNtNtNtNtB4_4iter6traits8iterator8Iterator8for_each4callNtNtCs5GBHJSLTkJw_3syn4expr6MemberNCINvMsi_NtCsltZDfVD1VKL_5alloc3vecINtB2n_3VecB1G_E14extend_trustedINtNtNtBT_8adapters3map3MapINtNtNtB4_5slice4iter4IterNtNtNtCs39Y7jx17GSw_12serde_derive9internals3ast5FieldENCNvNtB4g_3ser35serialize_adjacently_tagged_variants0_0EE0E0EB4g_, symObjAddr: 0x36D0, symBinAddr: 0x84FE4, symSize: 0x24 }
  - { offsetInCU: 0x4A8C, offset: 0xBB17F, size: 0x8, addend: 0x0, symName: __RINvNtCs5fsojcNSbun_4core3ptr13drop_in_placeNCINvNvNtNtNtNtB4_4iter6traits8iterator8Iterator8for_each4callNtNtCs5GBHJSLTkJw_3syn8generics12GenericParamNCINvMsi_NtCsltZDfVD1VKL_5alloc3vecINtB2y_3VecB1G_E14extend_trustedINtNtB4_6option8IntoIterB1G_EE0E0ECs39Y7jx17GSw_12serde_derive, symObjAddr: 0x36F4, symBinAddr: 0x85008, symSize: 0x24 }
  - { offsetInCU: 0x4ABB, offset: 0xBB1AE, size: 0x8, addend: 0x0, symName: __RINvNtCs5fsojcNSbun_4core3ptr13drop_in_placeNCINvNvNtNtNtNtB4_4iter6traits8iterator8Iterator8for_each4callNtNtCs5GBHJSLTkJw_3syn8generics12GenericParamNCINvMsi_NtCsltZDfVD1VKL_5alloc3vecINtB2y_3VecB1G_E14extend_trustedINtNtNtBT_8adapters3map3MapINtNtB2y_9into_iter8IntoIterTB1G_NtNtB1K_5token5CommaEENCNvXs4_NtB1K_10punctuatedINtB4W_10PunctuatedB1G_B4s_ENtNtBR_7collect12IntoIterator9into_iter0EE0E0ECs39Y7jx17GSw_12serde_derive, symObjAddr: 0x3718, symBinAddr: 0x8502C, symSize: 0x24 }
  - { offsetInCU: 0x4AEA, offset: 0xBB1DD, size: 0x8, addend: 0x0, symName: __RINvNtCs5fsojcNSbun_4core3ptr13drop_in_placeNCINvNvNtNtNtNtB4_4iter6traits8iterator8Iterator8for_each4callNtNtCs5GBHJSLTkJw_3syn8generics14WherePredicateNCINvMsi_NtCsltZDfVD1VKL_5alloc3vecINtB2A_3VecB1G_E14extend_trustedINtNtB4_6option8IntoIterB1G_EE0E0ECs39Y7jx17GSw_12serde_derive, symObjAddr: 0x373C, symBinAddr: 0x85050, symSize: 0x24 }
  - { offsetInCU: 0x4B19, offset: 0xBB20C, size: 0x8, addend: 0x0, symName: __RINvNtCs5fsojcNSbun_4core3ptr13drop_in_placeNCINvNvNtNtNtNtB4_4iter6traits8iterator8Iterator8for_each4callNtNtCs5GBHJSLTkJw_3syn8generics14WherePredicateNCINvMsi_NtCsltZDfVD1VKL_5alloc3vecINtB2A_3VecB1G_E14extend_trustedINtNtNtBT_8adapters3map3MapINtNtB2A_9into_iter8IntoIterTB1G_NtNtB1K_5token5CommaEENCNvXs4_NtB1K_10punctuatedINtB4Y_10PunctuatedB1G_B4u_ENtNtBR_7collect12IntoIterator9into_iter0EE0E0ECs39Y7jx17GSw_12serde_derive, symObjAddr: 0x3760, symBinAddr: 0x85074, symSize: 0x24 }
  - { offsetInCU: 0x4B48, offset: 0xBB23B, size: 0x8, addend: 0x0, symName: __RINvNtCs5fsojcNSbun_4core3ptr13drop_in_placeNCINvNvNtNtNtNtB4_4iter6traits8iterator8Iterator8for_each4callRNtCs5CKmLD4IrHZ_11proc_macro25IdentNCINvMsi_NtCsltZDfVD1VKL_5alloc3vecINtB2p_3VecB1G_E14extend_trustedINtNtNtBT_8adapters3map3MapINtNtNtB4_5slice4iter4IterTReB1H_RINtNtNtNtB2r_11collections5btree3set8BTreeSetNtNtB2r_6string6StringEEENCNvNtCs39Y7jx17GSw_12serde_derive2de32deserialize_generated_identifier0EE0E0EB5y_, symObjAddr: 0x3784, symBinAddr: 0x85098, symSize: 0x24 }
  - { offsetInCU: 0x4B77, offset: 0xBB26A, size: 0x8, addend: 0x0, symName: __RINvNtCs5fsojcNSbun_4core3ptr13drop_in_placeNCINvNvNtNtNtNtB4_4iter6traits8iterator8Iterator8for_each4callRNtNtCs5GBHJSLTkJw_3syn2ty4TypeNCINvMsi_NtCsltZDfVD1VKL_5alloc3vecINtB2k_3VecB1G_E14extend_trustedINtNtNtBT_8adapters3map3MapINtNtNtB4_5slice4iter4IterNtNtNtCs39Y7jx17GSw_12serde_derive9internals3ast5FieldENCNvNtB4d_3ser27wrap_serialize_variant_with0EE0E0EB4d_, symObjAddr: 0x37A8, symBinAddr: 0x850BC, symSize: 0x24 }
  - { offsetInCU: 0x4BA6, offset: 0xBB299, size: 0x8, addend: 0x0, symName: __RINvNtCs5fsojcNSbun_4core3ptr13drop_in_placeNCINvNvNtNtNtNtB4_4iter6traits8iterator8Iterator8for_each4callRNtNtCs5GBHJSLTkJw_3syn4expr6MemberNCINvMsi_NtCsltZDfVD1VKL_5alloc3vecINtB2o_3VecB1G_E14extend_trustedINtNtNtBT_8adapters3map3MapINtNtNtB4_5slice4iter4IterNtNtNtCs39Y7jx17GSw_12serde_derive9internals3ast5FieldENCNvNtB4h_3ser37serialize_struct_variant_with_flattens0_0EE0E0EB4h_, symObjAddr: 0x37CC, symBinAddr: 0x850E0, symSize: 0x24 }
  - { offsetInCU: 0x4BD5, offset: 0xBB2C8, size: 0x8, addend: 0x0, symName: __RINvNtCs5fsojcNSbun_4core3ptr13drop_in_placeNCINvNvNtNtNtNtB4_4iter6traits8iterator8Iterator8for_each4callRNtNtCs5GBHJSLTkJw_3syn4expr6MemberNCINvMsi_NtCsltZDfVD1VKL_5alloc3vecINtB2o_3VecB1G_E14extend_trustedINtNtNtBT_8adapters3map3MapINtNtNtB4_5slice4iter4IterNtNtNtCs39Y7jx17GSw_12serde_derive9internals3ast5FieldENCNvNtB4h_7pretend33pretend_fields_used_struct_packed0EE0E0EB4h_, symObjAddr: 0x37F0, symBinAddr: 0x85104, symSize: 0x24 }
  - { offsetInCU: 0x4C04, offset: 0xBB2F7, size: 0x8, addend: 0x0, symName: __RINvNtCs5fsojcNSbun_4core3ptr13drop_in_placeNCINvNvNtNtNtNtB4_4iter6traits8iterator8Iterator8for_each4callTRNtNtNtCs39Y7jx17GSw_12serde_derive9internals3ast5FieldNtCs5CKmLD4IrHZ_11proc_macro25IdentENCINvMsi_NtCsltZDfVD1VKL_5alloc3vecINtB3j_3VecB1G_E14extend_trustedINtNtNtBT_8adapters3map3MapINtNtB4k_9enumerate9EnumerateINtNtNtB4_5slice4iter4IterB1I_EENCNvNtB1O_2de15deserialize_map0EE0E0EB1O_, symObjAddr: 0x3814, symBinAddr: 0x85128, symSize: 0x24 }
  - { offsetInCU: 0x4C33, offset: 0xBB326, size: 0x8, addend: 0x0, symName: __RINvNtCs5fsojcNSbun_4core3ptr13drop_in_placeNCINvNvNtNtNtNtB4_4iter6traits8iterator8Iterator8for_each4callTReNtCs5CKmLD4IrHZ_11proc_macro25IdentRINtNtNtNtCsltZDfVD1VKL_5alloc11collections5btree3set8BTreeSetNtNtB2s_6string6StringEENCINvMsi_NtB2s_3vecINtB3P_3VecB1G_E14extend_trustedINtNtNtBT_8adapters3map3MapINtNtNtB4_5slice4iter4IterNtNtNtCs39Y7jx17GSw_12serde_derive9internals3ast7VariantENCNvNtB5s_2de29deserialize_custom_identifiers_0EE0E0EB5s_, symObjAddr: 0x3838, symBinAddr: 0x8514C, symSize: 0x24 }
  - { offsetInCU: 0x4C62, offset: 0xBB355, size: 0x8, addend: 0x0, symName: __RINvNtCs5fsojcNSbun_4core3ptr13drop_in_placeNCINvNvXs_NtNtNtB4_4iter8adapters9enumerateINtBQ_9EnumeratepENtNtNtBU_6traits8iterator8Iterator4fold9enumerateRNtNtNtCs39Y7jx17GSw_12serde_derive9internals3ast5FielduNCINvNtBS_3map8map_foldTjB2s_ETB2s_NtCs5CKmLD4IrHZ_11proc_macro25IdentEuNCNvNtB2z_2de15deserialize_map0NCINvNvB1F_8for_each4callB3Q_NCINvMsi_NtCsltZDfVD1VKL_5alloc3vecINtB5D_3VecB3Q_E14extend_trustedINtB3r_3MapIB1o_INtNtNtB4_5slice4iter4IterB2t_EEB4w_EE0E0E0E0EB2z_, symObjAddr: 0x385C, symBinAddr: 0x85170, symSize: 0x24 }
  - { offsetInCU: 0x4C91, offset: 0xBB384, size: 0x8, addend: 0x0, symName: __RINvNtCs5fsojcNSbun_4core3ptr13drop_in_placeNCINvNvXs_NtNtNtB4_4iter8adapters9enumerateINtBQ_9EnumeratepENtNtNtBU_6traits8iterator8Iterator4fold9enumerateRNtNtNtCs39Y7jx17GSw_12serde_derive9internals3ast7VariantuNCINvNtBS_3map8map_foldTjB2s_ENtCs5CKmLD4IrHZ_11proc_macro211TokenStreamuNCNvNtB2z_3ser14serialize_enum0NCINvNvB1F_8for_each4callB3S_NCINvMsi_NtCsltZDfVD1VKL_5alloc3vecINtB5G_3VecB3S_E14extend_trustedINtB3t_3MapIB1o_INtNtNtB4_5slice4iter4IterB2t_EEB4z_EE0E0E0E0EB2z_, symObjAddr: 0x3880, symBinAddr: 0x85194, symSize: 0x24 }
  - { offsetInCU: 0x4CC0, offset: 0xBB3B3, size: 0x8, addend: 0x0, symName: __RINvNtCs5fsojcNSbun_4core3ptr13drop_in_placeNCNCINvNtNtCsiy7sGCDxEIm_10proc_macro6bridge6client10run_clientNtBN_11TokenStreamINtNtB4_6option6OptionB1H_ENCNCINvMs7_BN_INtBN_6ClientNtBR_11TokenStreamB2R_E7expand1NvCs39Y7jx17GSw_12serde_derive16derive_serializeE00E00EB3o_, symObjAddr: 0x38A4, symBinAddr: 0x851B8, symSize: 0x24 }
  - { offsetInCU: 0x4CEF, offset: 0xBB3E2, size: 0x8, addend: 0x0, symName: __RINvNtCs5fsojcNSbun_4core3ptr13drop_in_placeNCNCINvNtNtCsiy7sGCDxEIm_10proc_macro6bridge6client10run_clientNtBN_11TokenStreamINtNtB4_6option6OptionB1H_ENCNCINvMs7_BN_INtBN_6ClientNtBR_11TokenStreamB2R_E7expand1NvCs39Y7jx17GSw_12serde_derive18derive_deserializeE00E00EB3o_, symObjAddr: 0x38C8, symBinAddr: 0x851DC, symSize: 0x24 }
  - { offsetInCU: 0x4D1E, offset: 0xBB411, size: 0x8, addend: 0x0, symName: __RINvNtCs5fsojcNSbun_4core3ptr13drop_in_placeNtNtCs39Y7jx17GSw_12serde_derive2de10ParametersEBK_, symObjAddr: 0x38EC, symBinAddr: 0x85200, symSize: 0xEC }
  - { offsetInCU: 0x4D4D, offset: 0xBB440, size: 0x8, addend: 0x0, symName: __RINvNtCs5fsojcNSbun_4core3ptr13drop_in_placeNtNtCs39Y7jx17GSw_12serde_derive2de17BorrowedLifetimesEBK_, symObjAddr: 0x39D8, symBinAddr: 0x852EC, symSize: 0x40 }
  - { offsetInCU: 0x4D7C, offset: 0xBB46F, size: 0x8, addend: 0x0, symName: __RINvNtCs5fsojcNSbun_4core3ptr13drop_in_placeNtNtCs39Y7jx17GSw_12serde_derive3ser10ParametersEBK_, symObjAddr: 0x3A18, symBinAddr: 0x8532C, symSize: 0xBC }
  - { offsetInCU: 0x4DAB, offset: 0xBB49E, size: 0x8, addend: 0x0, symName: __RINvNtCs5fsojcNSbun_4core3ptr13drop_in_placeNtNtCs39Y7jx17GSw_12serde_derive8fragment4ExprEBK_, symObjAddr: 0x3AD4, symBinAddr: 0x853E8, symSize: 0x24 }
  - { offsetInCU: 0x4DDA, offset: 0xBB4CD, size: 0x8, addend: 0x0, symName: __RINvNtCs5fsojcNSbun_4core3ptr13drop_in_placeNtNtCs39Y7jx17GSw_12serde_derive8fragment5MatchEBK_, symObjAddr: 0x3AF8, symBinAddr: 0x8540C, symSize: 0x24 }
  - { offsetInCU: 0x4E09, offset: 0xBB4FC, size: 0x8, addend: 0x0, symName: __RINvNtCs5fsojcNSbun_4core3ptr13drop_in_placeNtNtCs39Y7jx17GSw_12serde_derive8fragment5StmtsEBK_, symObjAddr: 0x3B1C, symBinAddr: 0x85430, symSize: 0x24 }
  - { offsetInCU: 0x4E38, offset: 0xBB52B, size: 0x8, addend: 0x0, symName: __RINvNtCs5fsojcNSbun_4core3ptr13drop_in_placeNtNtCs39Y7jx17GSw_12serde_derive8fragment8FragmentEBK_, symObjAddr: 0x3B40, symBinAddr: 0x85454, symSize: 0x50 }
  - { offsetInCU: 0x4E67, offset: 0xBB55A, size: 0x8, addend: 0x0, symName: __RINvNtCs5fsojcNSbun_4core3ptr13drop_in_placeNtNtCs5GBHJSLTkJw_3syn4meta15ParseNestedMetaECs39Y7jx17GSw_12serde_derive, symObjAddr: 0x3B90, symBinAddr: 0x854A4, symSize: 0x24 }
  - { offsetInCU: 0x4E96, offset: 0xBB589, size: 0x8, addend: 0x0, symName: __RINvNtCs5fsojcNSbun_4core3ptr13drop_in_placeNtNtNtCs39Y7jx17GSw_12serde_derive9internals3ast4DataEBM_, symObjAddr: 0x3BB4, symBinAddr: 0x854C8, symSize: 0x58 }
  - { offsetInCU: 0x4EC5, offset: 0xBB5B8, size: 0x8, addend: 0x0, symName: __RINvNtCs5fsojcNSbun_4core3ptr13drop_in_placeNtNtNtCs39Y7jx17GSw_12serde_derive9internals3ast5FieldEBM_, symObjAddr: 0x3C0C, symBinAddr: 0x85520, symSize: 0x5C }
  - { offsetInCU: 0x4EF4, offset: 0xBB5E7, size: 0x8, addend: 0x0, symName: __RINvNtCs5fsojcNSbun_4core3ptr13drop_in_placeNtNtNtCs39Y7jx17GSw_12serde_derive9internals3ast7VariantEBM_, symObjAddr: 0x3C68, symBinAddr: 0x8557C, symSize: 0x8C }
  - { offsetInCU: 0x4F23, offset: 0xBB616, size: 0x8, addend: 0x0, symName: __RINvNtCs5fsojcNSbun_4core3ptr13drop_in_placeNtNtNtCs39Y7jx17GSw_12serde_derive9internals3ast9ContainerEBM_, symObjAddr: 0x3CF4, symBinAddr: 0x85608, symSize: 0x8C }
  - { offsetInCU: 0x4F52, offset: 0xBB645, size: 0x8, addend: 0x0, symName: __RINvNtCs5fsojcNSbun_4core3ptr13drop_in_placeNtNtNtCs39Y7jx17GSw_12serde_derive9internals4attr15BorrowAttributeEBM_, symObjAddr: 0x3D80, symBinAddr: 0x85694, symSize: 0x5C }
  - { offsetInCU: 0x4F81, offset: 0xBB674, size: 0x8, addend: 0x0, symName: __RINvNtCs5fsojcNSbun_4core3ptr13drop_in_placeNtNtNtCs39Y7jx17GSw_12serde_derive9internals4attr4NameEBM_, symObjAddr: 0x3DDC, symBinAddr: 0x856F0, symSize: 0x90 }
  - { offsetInCU: 0x4FB0, offset: 0xBB6A3, size: 0x8, addend: 0x0, symName: __RINvNtCs5fsojcNSbun_4core3ptr13drop_in_placeNtNtNtCs39Y7jx17GSw_12serde_derive9internals4attr5FieldEBM_, symObjAddr: 0x3E6C, symBinAddr: 0x85780, symSize: 0x1B0 }
  - { offsetInCU: 0x4FDF, offset: 0xBB6D2, size: 0x8, addend: 0x0, symName: __RINvNtCs5fsojcNSbun_4core3ptr13drop_in_placeNtNtNtCs39Y7jx17GSw_12serde_derive9internals4attr7DefaultEBM_, symObjAddr: 0x401C, symBinAddr: 0x85930, symSize: 0x58 }
  - { offsetInCU: 0x500E, offset: 0xBB701, size: 0x8, addend: 0x0, symName: __RINvNtCs5fsojcNSbun_4core3ptr13drop_in_placeNtNtNtCs39Y7jx17GSw_12serde_derive9internals4attr7TagTypeEBM_, symObjAddr: 0x4074, symBinAddr: 0x85988, symSize: 0xBC }
  - { offsetInCU: 0x503D, offset: 0xBB730, size: 0x8, addend: 0x0, symName: __RINvNtCs5fsojcNSbun_4core3ptr13drop_in_placeNtNtNtCs39Y7jx17GSw_12serde_derive9internals4attr7VariantEBM_, symObjAddr: 0x4130, symBinAddr: 0x85A44, symSize: 0x11C }
  - { offsetInCU: 0x506C, offset: 0xBB75F, size: 0x8, addend: 0x0, symName: __RINvNtCs5fsojcNSbun_4core3ptr13drop_in_placeNtNtNtCs39Y7jx17GSw_12serde_derive9internals4attr8BoolAttrEBM_, symObjAddr: 0x424C, symBinAddr: 0x85B60, symSize: 0x24 }
  - { offsetInCU: 0x509B, offset: 0xBB78E, size: 0x8, addend: 0x0, symName: __RINvNtCs5fsojcNSbun_4core3ptr13drop_in_placeNtNtNtCs39Y7jx17GSw_12serde_derive9internals4attr9ContainerEBM_, symObjAddr: 0x4270, symBinAddr: 0x85B84, symSize: 0x20C }
  - { offsetInCU: 0x50CA, offset: 0xBB7BD, size: 0x8, addend: 0x0, symName: __RINvNtCs5fsojcNSbun_4core3ptr13drop_in_placeNtNtNtCs39Y7jx17GSw_12serde_derive9internals4ctxt4CtxtEBM_, symObjAddr: 0x447C, symBinAddr: 0x85D90, symSize: 0x5C }
  - { offsetInCU: 0x50F9, offset: 0xBB7EC, size: 0x8, addend: 0x0, symName: __RINvNtCs5fsojcNSbun_4core3ptr13drop_in_placeNtNtNtCsiy7sGCDxEIm_10proc_macro6bridge3rpc12PanicMessageECs39Y7jx17GSw_12serde_derive, symObjAddr: 0x44D8, symBinAddr: 0x85DEC, symSize: 0x60 }
  - { offsetInCU: 0x5128, offset: 0xBB81B, size: 0x8, addend: 0x0, symName: __RINvNtCs5fsojcNSbun_4core3ptr13drop_in_placeNtNtNtCsiy7sGCDxEIm_10proc_macro6bridge6buffer6BufferECs39Y7jx17GSw_12serde_derive, symObjAddr: 0x4538, symBinAddr: 0x85E4C, symSize: 0x24 }
  - { offsetInCU: 0x5157, offset: 0xBB84A, size: 0x8, addend: 0x0, symName: __RINvNtCs5fsojcNSbun_4core3ptr13drop_in_placeNtNtNtCsiy7sGCDxEIm_10proc_macro6bridge6client6BridgeECs39Y7jx17GSw_12serde_derive, symObjAddr: 0x455C, symBinAddr: 0x85E70, symSize: 0x24 }
  - { offsetInCU: 0x5186, offset: 0xBB879, size: 0x8, addend: 0x0, symName: __RINvNtCs5fsojcNSbun_4core3ptr13drop_in_placeNtNtNtCsrEL4bNOiaA_3std2io5error5ErrorECs39Y7jx17GSw_12serde_derive, symObjAddr: 0x4580, symBinAddr: 0x85E94, symSize: 0x24 }
  - { offsetInCU: 0x51B5, offset: 0xBB8A8, size: 0x8, addend: 0x0, symName: __RINvNtCs5fsojcNSbun_4core3ptr13drop_in_placeNtNtNtCsrEL4bNOiaA_3std2io5error6CustomECs39Y7jx17GSw_12serde_derive, symObjAddr: 0x45A4, symBinAddr: 0x85EB8, symSize: 0x24 }
  - { offsetInCU: 0x51E4, offset: 0xBB8D7, size: 0x8, addend: 0x0, symName: __RINvNtCs5fsojcNSbun_4core3ptr13drop_in_placeNtNtNtCsrEL4bNOiaA_3std6thread5local11AccessErrorECs39Y7jx17GSw_12serde_derive, symObjAddr: 0x45C8, symBinAddr: 0x85EDC, symSize: 0x10 }
  - { offsetInCU: 0x5213, offset: 0xBB906, size: 0x8, addend: 0x0, symName: __RINvNtCs5fsojcNSbun_4core3ptr13drop_in_placeNtNtNtNtCsrEL4bNOiaA_3std2io5error14repr_bitpacked4ReprECs39Y7jx17GSw_12serde_derive, symObjAddr: 0x45D8, symBinAddr: 0x85EEC, symSize: 0x24 }
  - { offsetInCU: 0x5242, offset: 0xBB935, size: 0x8, addend: 0x0, symName: __RINvNtCs5fsojcNSbun_4core3ptr13drop_in_placeNtNvNtNtNtCsiy7sGCDxEIm_10proc_macro6bridge6client5state3set13RestoreOnDropECs39Y7jx17GSw_12serde_derive, symObjAddr: 0x45FC, symBinAddr: 0x85F10, symSize: 0x24 }
  - { offsetInCU: 0x5271, offset: 0xBB964, size: 0x8, addend: 0x0, symName: __RINvNtCs5fsojcNSbun_4core3ptr13drop_in_placeNtNvNtNtNtCsltZDfVD1VKL_5alloc11collections5btree3mem7replace10PanicGuardECs39Y7jx17GSw_12serde_derive, symObjAddr: 0x4620, symBinAddr: 0x85F34, symSize: 0x24 }
  - { offsetInCU: 0x52A0, offset: 0xBB993, size: 0x8, addend: 0x0, symName: __RINvNtCs5fsojcNSbun_4core3ptr13drop_in_placeReECs39Y7jx17GSw_12serde_derive, symObjAddr: 0x4644, symBinAddr: 0x85F58, symSize: 0x10 }
  - { offsetInCU: 0x52CF, offset: 0xBB9C2, size: 0x8, addend: 0x0, symName: __RINvNtCs5fsojcNSbun_4core3ptr13drop_in_placeSINtNtCsltZDfVD1VKL_5alloc3vec3VecNtNtCs5GBHJSLTkJw_3syn8generics14WherePredicateEECs39Y7jx17GSw_12serde_derive, symObjAddr: 0x4654, symBinAddr: 0x85F68, symSize: 0xC4 }
  - { offsetInCU: 0x52FE, offset: 0xBB9F1, size: 0x8, addend: 0x0, symName: __RINvNtCs5fsojcNSbun_4core3ptr13drop_in_placeSNtCs5CKmLD4IrHZ_11proc_macro211TokenStreamECs39Y7jx17GSw_12serde_derive, symObjAddr: 0x4718, symBinAddr: 0x8602C, symSize: 0xB4 }
  - { offsetInCU: 0x532D, offset: 0xBBA20, size: 0x8, addend: 0x0, symName: __RINvNtCs5fsojcNSbun_4core3ptr13drop_in_placeSNtCs5CKmLD4IrHZ_11proc_macro25IdentECs39Y7jx17GSw_12serde_derive, symObjAddr: 0x47CC, symBinAddr: 0x860E0, symSize: 0xB4 }
  - { offsetInCU: 0x535C, offset: 0xBBA4F, size: 0x8, addend: 0x0, symName: __RINvNtCs5fsojcNSbun_4core3ptr13drop_in_placeSNtNtCs5GBHJSLTkJw_3syn3lit6LitStrECs39Y7jx17GSw_12serde_derive, symObjAddr: 0x4880, symBinAddr: 0x86194, symSize: 0xB4 }
  - { offsetInCU: 0x538B, offset: 0xBBA7E, size: 0x8, addend: 0x0, symName: __RINvNtCs5fsojcNSbun_4core3ptr13drop_in_placeSNtNtCs5GBHJSLTkJw_3syn4expr6MemberECs39Y7jx17GSw_12serde_derive, symObjAddr: 0x4934, symBinAddr: 0x86248, symSize: 0xB4 }
  - { offsetInCU: 0x53BA, offset: 0xBBAAD, size: 0x8, addend: 0x0, symName: __RINvNtCs5fsojcNSbun_4core3ptr13drop_in_placeSNtNtCs5GBHJSLTkJw_3syn4path11PathSegmentECs39Y7jx17GSw_12serde_derive, symObjAddr: 0x49E8, symBinAddr: 0x862FC, symSize: 0xC4 }
  - { offsetInCU: 0x53E9, offset: 0xBBADC, size: 0x8, addend: 0x0, symName: __RINvNtCs5fsojcNSbun_4core3ptr13drop_in_placeSNtNtCs5GBHJSLTkJw_3syn5error5ErrorECs39Y7jx17GSw_12serde_derive, symObjAddr: 0x4AAC, symBinAddr: 0x863C0, symSize: 0xC4 }
  - { offsetInCU: 0x5418, offset: 0xBBB0B, size: 0x8, addend: 0x0, symName: __RINvNtCs5fsojcNSbun_4core3ptr13drop_in_placeSNtNtCs5GBHJSLTkJw_3syn8generics12GenericParamECs39Y7jx17GSw_12serde_derive, symObjAddr: 0x4B70, symBinAddr: 0x86484, symSize: 0xC4 }
  - { offsetInCU: 0x5447, offset: 0xBBB3A, size: 0x8, addend: 0x0, symName: __RINvNtCs5fsojcNSbun_4core3ptr13drop_in_placeSNtNtCs5GBHJSLTkJw_3syn8generics14WherePredicateECs39Y7jx17GSw_12serde_derive, symObjAddr: 0x4C34, symBinAddr: 0x86548, symSize: 0xC4 }
  - { offsetInCU: 0x5476, offset: 0xBBB69, size: 0x8, addend: 0x0, symName: __RINvNtCs5fsojcNSbun_4core3ptr13drop_in_placeSNtNtCsltZDfVD1VKL_5alloc6string6StringECs39Y7jx17GSw_12serde_derive, symObjAddr: 0x4CF8, symBinAddr: 0x8660C, symSize: 0xC4 }
  - { offsetInCU: 0x54A5, offset: 0xBBB98, size: 0x8, addend: 0x0, symName: __RINvNtCs5fsojcNSbun_4core3ptr13drop_in_placeSNtNtNtCs39Y7jx17GSw_12serde_derive9internals3ast5FieldEBN_, symObjAddr: 0x4DBC, symBinAddr: 0x866D0, symSize: 0xC4 }
  - { offsetInCU: 0x54D4, offset: 0xBBBC7, size: 0x8, addend: 0x0, symName: __RINvNtCs5fsojcNSbun_4core3ptr13drop_in_placeSNtNtNtCs39Y7jx17GSw_12serde_derive9internals3ast7VariantEBN_, symObjAddr: 0x4E80, symBinAddr: 0x86794, symSize: 0xC4 }
  - { offsetInCU: 0x5503, offset: 0xBBBF6, size: 0x8, addend: 0x0, symName: __RINvNtCs5fsojcNSbun_4core3ptr13drop_in_placeSTRNtNtNtCs39Y7jx17GSw_12serde_derive9internals3ast5FieldNtCs5CKmLD4IrHZ_11proc_macro25IdentEEBP_, symObjAddr: 0x4F44, symBinAddr: 0x86858, symSize: 0xC4 }
  - { offsetInCU: 0x5532, offset: 0xBBC25, size: 0x8, addend: 0x0, symName: __RINvNtCs5fsojcNSbun_4core3ptr13drop_in_placeSTReNtCs5CKmLD4IrHZ_11proc_macro25IdentRINtNtNtNtCsltZDfVD1VKL_5alloc11collections5btree3set8BTreeSetNtNtB1t_6string6StringEEECs39Y7jx17GSw_12serde_derive, symObjAddr: 0x5008, symBinAddr: 0x8691C, symSize: 0xC4 }
  - { offsetInCU: 0x5561, offset: 0xBBC54, size: 0x8, addend: 0x0, symName: __RINvNtCs5fsojcNSbun_4core3ptr13drop_in_placeTNtCs5CKmLD4IrHZ_11proc_macro211TokenStreamNtNtCsltZDfVD1VKL_5alloc6string6StringEECs39Y7jx17GSw_12serde_derive, symObjAddr: 0x50CC, symBinAddr: 0x869E0, symSize: 0x60 }
  - { offsetInCU: 0x5590, offset: 0xBBC83, size: 0x8, addend: 0x0, symName: __RINvNtCs5fsojcNSbun_4core3ptr13drop_in_placeTNtCs5CKmLD4IrHZ_11proc_macro211TokenStreamuEECs39Y7jx17GSw_12serde_derive, symObjAddr: 0x512C, symBinAddr: 0x86A40, symSize: 0x24 }
  - { offsetInCU: 0x55BF, offset: 0xBBCB2, size: 0x8, addend: 0x0, symName: __RINvNtCs5fsojcNSbun_4core3ptr13drop_in_placeTNtCs5CKmLD4IrHZ_11proc_macro25IdentuEECs39Y7jx17GSw_12serde_derive, symObjAddr: 0x5150, symBinAddr: 0x86A64, symSize: 0x24 }
  - { offsetInCU: 0x55EE, offset: 0xBBCE1, size: 0x8, addend: 0x0, symName: __RINvNtCs5fsojcNSbun_4core3ptr13drop_in_placeTNtNtCs5GBHJSLTkJw_3syn8lifetime8LifetimeNtNtNtNtCsltZDfVD1VKL_5alloc11collections5btree7set_val9SetValZSTEECs39Y7jx17GSw_12serde_derive, symObjAddr: 0x5174, symBinAddr: 0x86A88, symSize: 0x24 }
  - { offsetInCU: 0x561D, offset: 0xBBD10, size: 0x8, addend: 0x0, symName: __RINvNtCs5fsojcNSbun_4core3ptr13drop_in_placeTNtNtCsltZDfVD1VKL_5alloc6string6StringNtNtNtNtBL_11collections5btree7set_val9SetValZSTEECs39Y7jx17GSw_12serde_derive, symObjAddr: 0x5198, symBinAddr: 0x86AAC, symSize: 0x24 }
  - { offsetInCU: 0x564C, offset: 0xBBD3F, size: 0x8, addend: 0x0, symName: __RINvNtCs5fsojcNSbun_4core3ptr13drop_in_placeTRNtNtNtCs39Y7jx17GSw_12serde_derive9internals3ast5FieldNtCs5CKmLD4IrHZ_11proc_macro25IdentEEBO_, symObjAddr: 0x51BC, symBinAddr: 0x86AD0, symSize: 0x24 }
  - { offsetInCU: 0x567B, offset: 0xBBD6E, size: 0x8, addend: 0x0, symName: __RINvNtCs5fsojcNSbun_4core3ptr13drop_in_placeTReNtCs5CKmLD4IrHZ_11proc_macro25IdentRINtNtNtNtCsltZDfVD1VKL_5alloc11collections5btree3set8BTreeSetNtNtB1s_6string6StringEEECs39Y7jx17GSw_12serde_derive, symObjAddr: 0x51E0, symBinAddr: 0x86AF4, symSize: 0x24 }
  - { offsetInCU: 0x56AA, offset: 0xBBD9D, size: 0x8, addend: 0x0, symName: __RINvNtCs5fsojcNSbun_4core3ptr13drop_in_placeuECs39Y7jx17GSw_12serde_derive, symObjAddr: 0x5204, symBinAddr: 0x86B18, symSize: 0x10 }
  - { offsetInCU: 0x56D9, offset: 0xBBDCC, size: 0x8, addend: 0x0, symName: __RINvNtCs5fsojcNSbun_4core3ptr14read_unalignedNtNtNtNtB4_9core_arch10arm_shared4neon9uint8x8_tECs39Y7jx17GSw_12serde_derive, symObjAddr: 0x5214, symBinAddr: 0x86B28, symSize: 0x8C }
  - { offsetInCU: 0x57D7, offset: 0xBBECA, size: 0x8, addend: 0x0, symName: __RINvNtCs5fsojcNSbun_4core3ptr15write_unalignedNtNtNtNtB4_9core_arch10arm_shared4neon9uint8x8_tECs39Y7jx17GSw_12serde_derive, symObjAddr: 0x52A0, symBinAddr: 0x86BB4, symSize: 0x70 }
  - { offsetInCU: 0x5C53, offset: 0xBC346, size: 0x8, addend: 0x0, symName: __RINvNtCs5fsojcNSbun_4core3ptr19swap_nonoverlappingNtNtCs8wgAxfFqjdh_9hashbrown3raw13RawTableInnerECs39Y7jx17GSw_12serde_derive, symObjAddr: 0x5310, symBinAddr: 0x86C24, symSize: 0x150 }
  - { offsetInCU: 0x61FB, offset: 0xBC8EE, size: 0x8, addend: 0x0, symName: __RINvNtCs5fsojcNSbun_4core3ptr19swap_nonoverlappinghECs39Y7jx17GSw_12serde_derive, symObjAddr: 0x5460, symBinAddr: 0x86D74, symSize: 0x1E4 }
  - { offsetInCU: 0x67E0, offset: 0xBCED3, size: 0x8, addend: 0x0, symName: __RNvMNtNtCs5fsojcNSbun_4core3ptr9const_ptrPTReNtCs5CKmLD4IrHZ_11proc_macro25IdentRINtNtNtNtCsltZDfVD1VKL_5alloc11collections5btree3set8BTreeSetNtNtB1q_6string6StringEE7sub_ptrCs39Y7jx17GSw_12serde_derive, symObjAddr: 0x6108, symBinAddr: 0x87A1C, symSize: 0x68 }
  - { offsetInCU: 0x6CD5, offset: 0xBD3C8, size: 0x8, addend: 0x0, symName: __RNvNvNtCs5fsojcNSbun_4core3ptr13read_volatile18precondition_checkCs39Y7jx17GSw_12serde_derive, symObjAddr: 0x6C0C, symBinAddr: 0x88520, symSize: 0xEC }
  - { offsetInCU: 0x6E3A, offset: 0xBD52D, size: 0x8, addend: 0x0, symName: __RNvNvNtCs5fsojcNSbun_4core3ptr19swap_nonoverlapping18precondition_checkCs39Y7jx17GSw_12serde_derive, symObjAddr: 0x6CF8, symBinAddr: 0x8860C, symSize: 0x1F4 }
  - { offsetInCU: 0x7151, offset: 0xBD844, size: 0x8, addend: 0x0, symName: __RNvNvNtCs5fsojcNSbun_4core3ptr7replace18precondition_checkCs39Y7jx17GSw_12serde_derive, symObjAddr: 0x6EEC, symBinAddr: 0x88800, symSize: 0xEC }
  - { offsetInCU: 0x7B01, offset: 0xBE1F4, size: 0x8, addend: 0x0, symName: __RNvXsP_NtCs5fsojcNSbun_4core3fmtRNtNtCs5GBHJSLTkJw_3syn8lifetime8LifetimeNtB5_7Display3fmtCs39Y7jx17GSw_12serde_derive, symObjAddr: 0x80BC, symBinAddr: 0x899D0, symSize: 0x30 }
  - { offsetInCU: 0x7B57, offset: 0xBE24A, size: 0x8, addend: 0x0, symName: __RNvXs_NvNtNtCs5fsojcNSbun_4core3fmt5Write9write_fmtQINtNvNtNtCsrEL4bNOiaA_3std2io5Write9write_fmt7AdapterNtNtNtNtNtBX_3sys3pal4unix5stdio6StderrENtB4_12SpecWriteFmt14spec_write_fmtCs39Y7jx17GSw_12serde_derive, symObjAddr: 0x834C, symBinAddr: 0x89C60, symSize: 0xAC }
  - { offsetInCU: 0x7BBB, offset: 0xBE2AE, size: 0x8, addend: 0x0, symName: __RNvYINtNvNtNtCsrEL4bNOiaA_3std2io5Write9write_fmt7AdapterNtNtNtNtNtBb_3sys3pal4unix5stdio6StderrENtNtCs5fsojcNSbun_4core3fmt5Write10write_charCs39Y7jx17GSw_12serde_derive, symObjAddr: 0x86B4, symBinAddr: 0x89FC8, symSize: 0x70 }
  - { offsetInCU: 0x7C31, offset: 0xBE324, size: 0x8, addend: 0x0, symName: __RNvYINtNvNtNtCsrEL4bNOiaA_3std2io5Write9write_fmt7AdapterNtNtNtNtNtBb_3sys3pal4unix5stdio6StderrENtNtCs5fsojcNSbun_4core3fmt5Write9write_fmtCs39Y7jx17GSw_12serde_derive, symObjAddr: 0x8724, symBinAddr: 0x8A038, symSize: 0x24 }
  - { offsetInCU: 0x7D0D, offset: 0xBE400, size: 0x8, addend: 0x0, symName: __RNvNvMsc_NtNtCs5fsojcNSbun_4core3num7nonzeroINtB7_7NonZeropE13new_unchecked18precondition_checkCs39Y7jx17GSw_12serde_derive, symObjAddr: 0x6BF0, symBinAddr: 0x88504, symSize: 0x1C }
  - { offsetInCU: 0xBD13, offset: 0xC2406, size: 0x8, addend: 0x0, symName: __RNSNvYNCINvMs6_NtCs8wgAxfFqjdh_9hashbrown3rawINtBd_8RawTableTNtCs5CKmLD4IrHZ_11proc_macro25IdentuEE14reserve_rehashNCINvNtBf_3map11make_hasherBX_uNtNtNtCsrEL4bNOiaA_3std4hash6random11RandomStateE0E0INtNtNtCs5fsojcNSbun_4core3ops8function6FnOnceTQNtBd_13RawTableInnerjEE9call_once6vtableCs39Y7jx17GSw_12serde_derive, symObjAddr: 0x5BFC, symBinAddr: 0x87510, symSize: 0x38 }
  - { offsetInCU: 0xBD57, offset: 0xC244A, size: 0x8, addend: 0x0, symName: __RNSNvYNCINvMs6_NtCs8wgAxfFqjdh_9hashbrown3rawINtBd_8RawTableTNtCs5CKmLD4IrHZ_11proc_macro25IdentuEE24find_or_find_insert_slotNCINvNtBf_3map14equivalent_keyBX_BX_uE0NCINvB24_11make_hasherBX_uNtNtNtCsrEL4bNOiaA_3std4hash6random11RandomStateE0E0INtNtNtCs5fsojcNSbun_4core3ops8function6FnOnceTjEE9call_once6vtableCs39Y7jx17GSw_12serde_derive, symObjAddr: 0x5C34, symBinAddr: 0x87548, symSize: 0x38 }
  - { offsetInCU: 0xBD9B, offset: 0xC248E, size: 0x8, addend: 0x0, symName: __RNSNvYNCINvMs6_NtCs8wgAxfFqjdh_9hashbrown3rawINtBd_8RawTableTNtCs5CKmLD4IrHZ_11proc_macro25IdentuEE4findNCINvNtBf_3map14equivalent_keyBX_BX_uE0E0INtNtNtCs5fsojcNSbun_4core3ops8function6FnOnceTjEE9call_once6vtableCs39Y7jx17GSw_12serde_derive, symObjAddr: 0x5C6C, symBinAddr: 0x87580, symSize: 0x38 }
  - { offsetInCU: 0xBDDF, offset: 0xC24D2, size: 0x8, addend: 0x0, symName: __RNvYNCINvMs6_NtCs8wgAxfFqjdh_9hashbrown3rawINtBb_8RawTableTNtCs5CKmLD4IrHZ_11proc_macro25IdentuEE14reserve_rehashNCINvNtBd_3map11make_hasherBV_uNtNtNtCsrEL4bNOiaA_3std4hash6random11RandomStateE0E0INtNtNtCs5fsojcNSbun_4core3ops8function6FnOnceTQNtBb_13RawTableInnerjEE9call_onceCs39Y7jx17GSw_12serde_derive, symObjAddr: 0x8778, symBinAddr: 0x8A08C, symSize: 0x5C }
  - { offsetInCU: 0xBE23, offset: 0xC2516, size: 0x8, addend: 0x0, symName: __RNvYNCINvMs6_NtCs8wgAxfFqjdh_9hashbrown3rawINtBb_8RawTableTNtCs5CKmLD4IrHZ_11proc_macro25IdentuEE24find_or_find_insert_slotNCINvNtBd_3map14equivalent_keyBV_BV_uE0NCINvB22_11make_hasherBV_uNtNtNtCsrEL4bNOiaA_3std4hash6random11RandomStateE0E0INtNtNtCs5fsojcNSbun_4core3ops8function6FnOnceTjEE9call_onceCs39Y7jx17GSw_12serde_derive, symObjAddr: 0x87D4, symBinAddr: 0x8A0E8, symSize: 0x58 }
  - { offsetInCU: 0xBE67, offset: 0xC255A, size: 0x8, addend: 0x0, symName: __RNvYNCINvMs6_NtCs8wgAxfFqjdh_9hashbrown3rawINtBb_8RawTableTNtCs5CKmLD4IrHZ_11proc_macro25IdentuEE4findNCINvNtBd_3map14equivalent_keyBV_BV_uE0E0INtNtNtCs5fsojcNSbun_4core3ops8function6FnOnceTjEE9call_onceCs39Y7jx17GSw_12serde_derive, symObjAddr: 0x882C, symBinAddr: 0x8A140, symSize: 0x58 }
  - { offsetInCU: 0xBEAB, offset: 0xC259E, size: 0x8, addend: 0x0, symName: __RNvYNCINvNtNtNtCsrEL4bNOiaA_3std3sys12thread_local10fast_local13destroy_valueINtNtCs5fsojcNSbun_4core4cell4CellTyyEEE0INtNtNtB1i_3ops8function6FnOnceuE9call_onceCs39Y7jx17GSw_12serde_derive, symObjAddr: 0x8884, symBinAddr: 0x8A198, symSize: 0x44 }
  - { offsetInCU: 0xBEEB, offset: 0xC25DE, size: 0x8, addend: 0x0, symName: __RNvYNCNvMs4_NtNtCs39Y7jx17GSw_12serde_derive9internals4attrNtBa_9Container8from_asts_0INtNtNtCs5fsojcNSbun_4core3ops8function6FnOnceTRNtNtCs5GBHJSLTkJw_3syn5parse11ParseBufferEE9call_onceBe_, symObjAddr: 0x88C8, symBinAddr: 0x8A1DC, symSize: 0x4C }
  - { offsetInCU: 0xBF2F, offset: 0xC2622, size: 0x8, addend: 0x0, symName: __RNvYNCNvNtNtCs39Y7jx17GSw_12serde_derive9internals4attr24parse_lit_into_lifetimes0INtNtNtCs5fsojcNSbun_4core3ops8function6FnOnceTRNtNtCs5GBHJSLTkJw_3syn5parse11ParseBufferEE9call_onceBa_, symObjAddr: 0x8974, symBinAddr: 0x8A288, symSize: 0x50 }
  - { offsetInCU: 0xBF73, offset: 0xC2666, size: 0x8, addend: 0x0, symName: __RNvYNcNtINtNtCs5fsojcNSbun_4core6result6ResultuINtNtNtBb_3num7nonzero7NonZerojEE3Err0INtNtNtBb_3ops8function6FnOnceTBJ_EE9call_onceCs39Y7jx17GSw_12serde_derive, symObjAddr: 0x89C4, symBinAddr: 0x8A2D8, symSize: 0x24 }
  - { offsetInCU: 0xBFB7, offset: 0xC26AA, size: 0x8, addend: 0x0, symName: __RNvYNcNtINtNtCsltZDfVD1VKL_5alloc6borrow3CowNtNtCs5GBHJSLTkJw_3syn4path4PathE8Borrowed0INtNtNtCs5fsojcNSbun_4core3ops8function6FnOnceTRBG_EE9call_onceCs39Y7jx17GSw_12serde_derive, symObjAddr: 0x89E8, symBinAddr: 0x8A2FC, symSize: 0x24 }
  - { offsetInCU: 0xBFFB, offset: 0xC26EE, size: 0x8, addend: 0x0, symName: __RNvYNvMNtCs5GBHJSLTkJw_3syn10punctuatedINtB5_10PunctuatedNtNtB7_8generics14WherePredicateNtNtB7_5token5CommaE16parse_terminatedINtNtNtCs5fsojcNSbun_4core3ops8function6FnOnceTRNtNtB7_5parse11ParseBufferEE9call_onceCs39Y7jx17GSw_12serde_derive, symObjAddr: 0x8B14, symBinAddr: 0x8A428, symSize: 0x24 }
  - { offsetInCU: 0xC03F, offset: 0xC2732, size: 0x8, addend: 0x0, symName: __RNvYNvMNtCs5GBHJSLTkJw_3syn3litNtB5_6LitStr5valueINtNtNtCs5fsojcNSbun_4core3ops8function6FnOnceTRBt_EE9call_onceCs39Y7jx17GSw_12serde_derive, symObjAddr: 0x8B38, symBinAddr: 0x8A44C, symSize: 0x24 }
  - { offsetInCU: 0xC083, offset: 0xC2776, size: 0x8, addend: 0x0, symName: __RNvYNvMNtCs5GBHJSLTkJw_3syn5errorNtB5_5Error18into_compile_errorINtNtNtCs5fsojcNSbun_4core3ops8function6FnOnceTBv_EE9call_onceCs39Y7jx17GSw_12serde_derive, symObjAddr: 0x8B5C, symBinAddr: 0x8A470, symSize: 0x34 }
  - { offsetInCU: 0xC0C7, offset: 0xC27BA, size: 0x8, addend: 0x0, symName: __RNvYNvYINtNtCs5fsojcNSbun_4core6option8IntoIterNtNtCs5GBHJSLTkJw_3syn8generics12GenericParamENtNtNtNtBa_4iter6traits8iterator8Iterator4nextINtNtNtBa_3ops8function6FnOnceTQB5_EE9call_onceCs39Y7jx17GSw_12serde_derive, symObjAddr: 0x8C98, symBinAddr: 0x8A5AC, symSize: 0x24 }
  - { offsetInCU: 0xC10B, offset: 0xC27FE, size: 0x8, addend: 0x0, symName: __RNvYNvYINtNtCsltZDfVD1VKL_5alloc5boxed3BoxNtNtCs5GBHJSLTkJw_3syn2ty4TypeEINtNtCs5fsojcNSbun_4core7convert5AsMutBE_E6as_mutINtNtNtB1e_3ops8function6FnOnceTQB5_EE9call_onceCs39Y7jx17GSw_12serde_derive, symObjAddr: 0x8CBC, symBinAddr: 0x8A5D0, symSize: 0x24 }
  - { offsetInCU: 0xC14F, offset: 0xC2842, size: 0x8, addend: 0x0, symName: __RNvYNvYINtNtCsltZDfVD1VKL_5alloc5boxed3BoxNtNtCs5GBHJSLTkJw_3syn2ty9BareFnArgEINtNtCs5fsojcNSbun_4core7convert5AsMutBE_E6as_mutINtNtNtB1j_3ops8function6FnOnceTQB5_EE9call_onceCs39Y7jx17GSw_12serde_derive, symObjAddr: 0x8CE0, symBinAddr: 0x8A5F4, symSize: 0x24 }
  - { offsetInCU: 0xC193, offset: 0xC2886, size: 0x8, addend: 0x0, symName: __RNvYNvYINtNtCsltZDfVD1VKL_5alloc5boxed3BoxNtNtCs5GBHJSLTkJw_3syn4data7VariantEINtNtCs5fsojcNSbun_4core7convert5AsMutBE_E6as_mutINtNtNtB1j_3ops8function6FnOnceTQB5_EE9call_onceCs39Y7jx17GSw_12serde_derive, symObjAddr: 0x8D04, symBinAddr: 0x8A618, symSize: 0x24 }
  - { offsetInCU: 0xC1D7, offset: 0xC28CA, size: 0x8, addend: 0x0, symName: __RNvYNvYINtNtCsltZDfVD1VKL_5alloc5boxed3BoxNtNtCs5GBHJSLTkJw_3syn4expr4ExprEINtNtCs5fsojcNSbun_4core7convert5AsMutBE_E6as_mutINtNtNtB1g_3ops8function6FnOnceTQB5_EE9call_onceCs39Y7jx17GSw_12serde_derive, symObjAddr: 0x8D28, symBinAddr: 0x8A63C, symSize: 0x24 }
  - { offsetInCU: 0xC21B, offset: 0xC290E, size: 0x8, addend: 0x0, symName: __RNvYNvYINtNtCsltZDfVD1VKL_5alloc5boxed3BoxNtNtCs5GBHJSLTkJw_3syn4path15GenericArgumentEINtNtCs5fsojcNSbun_4core7convert5AsMutBE_E6as_mutINtNtNtB1s_3ops8function6FnOnceTQB5_EE9call_onceCs39Y7jx17GSw_12serde_derive, symObjAddr: 0x8D4C, symBinAddr: 0x8A660, symSize: 0x24 }
  - { offsetInCU: 0xC25F, offset: 0xC2952, size: 0x8, addend: 0x0, symName: __RNvYNvYINtNtCsltZDfVD1VKL_5alloc5boxed3BoxNtNtCs5GBHJSLTkJw_3syn8generics14TypeParamBoundEINtNtCs5fsojcNSbun_4core7convert5AsMutBE_E6as_mutINtNtNtB1v_3ops8function6FnOnceTQB5_EE9call_onceCs39Y7jx17GSw_12serde_derive, symObjAddr: 0x8D70, symBinAddr: 0x8A684, symSize: 0x24 }
  - { offsetInCU: 0xC2A3, offset: 0xC2996, size: 0x8, addend: 0x0, symName: __RNvYNvYINtNtCsltZDfVD1VKL_5alloc5boxed3BoxNtNtCs5GBHJSLTkJw_3syn8generics14WherePredicateEINtNtCs5fsojcNSbun_4core7convert5AsMutBE_E6as_mutINtNtNtB1v_3ops8function6FnOnceTQB5_EE9call_onceCs39Y7jx17GSw_12serde_derive, symObjAddr: 0x8D94, symBinAddr: 0x8A6A8, symSize: 0x24 }
  - { offsetInCU: 0xC2E7, offset: 0xC29DA, size: 0x8, addend: 0x0, symName: __RNvYNvYINtNtNtCs5fsojcNSbun_4core5slice4iter4IterNtNtNtCs39Y7jx17GSw_12serde_derive9internals3ast5FieldENtNtNtNtBc_4iter6traits8iterator8Iterator4nextINtNtNtBc_3ops8function6FnOnceTQB5_EE9call_onceBR_, symObjAddr: 0x8DB8, symBinAddr: 0x8A6CC, symSize: 0x24 }
  - { offsetInCU: 0xC32B, offset: 0xC2A1E, size: 0x8, addend: 0x0, symName: __RNvYNvYINtNtNtCs5fsojcNSbun_4core5slice4iter4IterNtNtNtCs39Y7jx17GSw_12serde_derive9internals3ast5FieldENtNtNtNtBc_4iter6traits8iterator8Iterator9size_hintINtNtNtBc_3ops8function6FnOnceTRB5_EE9call_onceBR_, symObjAddr: 0x8DDC, symBinAddr: 0x8A6F0, symSize: 0x24 }
  - { offsetInCU: 0xC36F, offset: 0xC2A62, size: 0x8, addend: 0x0, symName: __RNvYNvYINtNtNtCsltZDfVD1VKL_5alloc3vec9into_iter8IntoIterNtNtCs5GBHJSLTkJw_3syn8generics14WherePredicateENtNtNtNtCs5fsojcNSbun_4core4iter6traits8iterator8Iterator4nextINtNtNtB1N_3ops8function6FnOnceTQB5_EE9call_onceCs39Y7jx17GSw_12serde_derive, symObjAddr: 0x8E00, symBinAddr: 0x8A714, symSize: 0x24 }
  - { offsetInCU: 0xC3B3, offset: 0xC2AA6, size: 0x8, addend: 0x0, symName: __RNvYNvYINtNtNtNtCs5fsojcNSbun_4core4iter8adapters3map3MapINtNtBa_10filter_map9FilterMapINtNtCsltZDfVD1VKL_5alloc5boxed3BoxDNtNtNtBc_6traits8iterator8Iteratorp4ItemRNtNtNtCs39Y7jx17GSw_12serde_derive9internals3ast5FieldEL_ENCNvNtB2I_5bound33with_where_predicates_from_fields0ENvMNtB1s_5sliceSNtNtCs5GBHJSLTkJw_3syn8generics14WherePredicate6to_vecEB1X_4nextINtNtNtBe_3ops8function6FnOnceTQB5_EE9call_onceB2I_, symObjAddr: 0x8E24, symBinAddr: 0x8A738, symSize: 0x24 }
  - { offsetInCU: 0xC3F7, offset: 0xC2AEA, size: 0x8, addend: 0x0, symName: __RNvYNvYINtNtNtNtCs5fsojcNSbun_4core4iter8adapters3map3MapINtNtBa_6filter6FilterIB6_NtNtCs5GBHJSLTkJw_3syn8generics10TypeParamsNCNvNtCs39Y7jx17GSw_12serde_derive5bound10with_bounds1_0ENCB22_s2_0ENCB22_s3_0ENtNtNtBc_6traits8iterator8Iterator4nextINtNtNtBe_3ops8function6FnOnceTQB5_EE9call_onceB26_, symObjAddr: 0x8E48, symBinAddr: 0x8A75C, symSize: 0x24 }
  - { offsetInCU: 0xC43B, offset: 0xC2B2E, size: 0x8, addend: 0x0, symName: __RNvYNvYINtNtNtNtCsltZDfVD1VKL_5alloc11collections5btree3set4IterNtNtBe_6string6StringENtNtNtNtCs5fsojcNSbun_4core4iter6traits8iterator8Iterator4nextINtNtNtB1u_3ops8function6FnOnceTQB5_EE9call_onceCs39Y7jx17GSw_12serde_derive, symObjAddr: 0x8E6C, symBinAddr: 0x8A780, symSize: 0x24 }
  - { offsetInCU: 0xC47F, offset: 0xC2B72, size: 0x8, addend: 0x0, symName: __RNvYNvYNtNtCs5GBHJSLTkJw_3syn2ty4TypeNtNtB9_5parse5Parse5parseINtNtNtCs5fsojcNSbun_4core3ops8function6FnOnceTRNtBB_11ParseBufferEE9call_onceCs39Y7jx17GSw_12serde_derive, symObjAddr: 0x8E90, symBinAddr: 0x8A7A4, symSize: 0x24 }
  - { offsetInCU: 0xC4C3, offset: 0xC2BB6, size: 0x8, addend: 0x0, symName: __RNvYNvYNtNtCs5GBHJSLTkJw_3syn2ty8TypePathNtNtB9_11parse_quote10ParseQuote5parseINtNtNtCs5fsojcNSbun_4core3ops8function6FnOnceTRNtNtB9_5parse11ParseBufferEE9call_onceCs39Y7jx17GSw_12serde_derive, symObjAddr: 0x8EB4, symBinAddr: 0x8A7C8, symSize: 0x24 }
  - { offsetInCU: 0xC507, offset: 0xC2BFA, size: 0x8, addend: 0x0, symName: __RNvYNvYNtNtCs5GBHJSLTkJw_3syn2ty8TypePathNtNtB9_5parse5Parse5parseINtNtNtCs5fsojcNSbun_4core3ops8function6FnOnceTRNtBF_11ParseBufferEE9call_onceCs39Y7jx17GSw_12serde_derive, symObjAddr: 0x8ED8, symBinAddr: 0x8A7EC, symSize: 0x24 }
  - { offsetInCU: 0xC54B, offset: 0xC2C3E, size: 0x8, addend: 0x0, symName: __RNvYNvYNtNtCs5GBHJSLTkJw_3syn4expr8ExprPathNtNtB9_5parse5Parse5parseINtNtNtCs5fsojcNSbun_4core3ops8function6FnOnceTRNtBH_11ParseBufferEE9call_onceCs39Y7jx17GSw_12serde_derive, symObjAddr: 0x8EFC, symBinAddr: 0x8A810, symSize: 0x24 }
  - { offsetInCU: 0xC58F, offset: 0xC2C82, size: 0x8, addend: 0x0, symName: __RNvYNvYNtNtCs5GBHJSLTkJw_3syn4path4PathNtNtB9_11parse_quote10ParseQuote5parseINtNtNtCs5fsojcNSbun_4core3ops8function6FnOnceTRNtNtB9_5parse11ParseBufferEE9call_onceCs39Y7jx17GSw_12serde_derive, symObjAddr: 0x8F20, symBinAddr: 0x8A834, symSize: 0x24 }
  - { offsetInCU: 0xC5D3, offset: 0xC2CC6, size: 0x8, addend: 0x0, symName: __RNvYNvYNtNtCs5GBHJSLTkJw_3syn4path4PathNtNtB9_5parse5Parse5parseINtNtNtCs5fsojcNSbun_4core3ops8function6FnOnceTRNtBD_11ParseBufferEE9call_onceCs39Y7jx17GSw_12serde_derive, symObjAddr: 0x8F44, symBinAddr: 0x8A858, symSize: 0x24 }
  - { offsetInCU: 0xC617, offset: 0xC2D0A, size: 0x8, addend: 0x0, symName: __RNvYNvYNtNtCs5GBHJSLTkJw_3syn6derive11DeriveInputNtNtB9_5parse5Parse5parseINtNtNtCs5fsojcNSbun_4core3ops8function6FnOnceTRNtBN_11ParseBufferEE9call_onceCs39Y7jx17GSw_12serde_derive, symObjAddr: 0x8F68, symBinAddr: 0x8A87C, symSize: 0x24 }
  - { offsetInCU: 0xC65B, offset: 0xC2D4E, size: 0x8, addend: 0x0, symName: __RNvYNvYNtNtCsltZDfVD1VKL_5alloc6string6StringINtNtCs5fsojcNSbun_4core7convert5AsRefeE6as_refINtNtNtBM_3ops8function6FnOnceTRB5_EE9call_onceCs39Y7jx17GSw_12serde_derive, symObjAddr: 0x8FB4, symBinAddr: 0x8A8C8, symSize: 0x24 }
  - { offsetInCU: 0xC69F, offset: 0xC2D92, size: 0x8, addend: 0x0, symName: __RNvYNvYNtNtNtCsiy7sGCDxEIm_10proc_macro6bridge3rpc12PanicMessageINtNtCs5fsojcNSbun_4core7convert4FromINtNtCsltZDfVD1VKL_5alloc5boxed3BoxDNtNtB15_3any3AnyNtNtB15_6marker4SendEL_EE4fromINtNtNtB15_3ops8function6FnOnceTB1B_EE9call_onceCs39Y7jx17GSw_12serde_derive, symObjAddr: 0x8FD8, symBinAddr: 0x8A8EC, symSize: 0x2C }
  - { offsetInCU: 0xC6EE, offset: 0xC2DE1, size: 0x8, addend: 0x0, symName: __RNvXs1_NtNtNtCs5fsojcNSbun_4core3ops8function5implsQNCNvNtCs39Y7jx17GSw_12serde_derive7pretend24pretend_fields_used_enum0INtB7_5FnMutTRNtNtNtBU_9internals3ast7VariantEE8call_mutBU_, symObjAddr: 0x7594, symBinAddr: 0x88EA8, symSize: 0x30 }
  - { offsetInCU: 0xC743, offset: 0xC2E36, size: 0x8, addend: 0x0, symName: __RNvXs2_NtNtNtCs5fsojcNSbun_4core3ops8function5implsQNCNCNvNtCs39Y7jx17GSw_12serde_derive7pretend21pretend_variants_used0s_0INtB7_6FnOnceTRNtNtNtBW_9internals3ast5FieldEE9call_onceBW_, symObjAddr: 0x765C, symBinAddr: 0x88F70, symSize: 0x2C }
  - { offsetInCU: 0xC792, offset: 0xC2E85, size: 0x8, addend: 0x0, symName: __RNvXs2_NtNtNtCs5fsojcNSbun_4core3ops8function5implsQNCNCNvNtCs39Y7jx17GSw_12serde_derive7pretend24pretend_fields_used_enum00INtB7_6FnOnceTRNtNtNtBW_9internals3ast5FieldEE9call_onceBW_, symObjAddr: 0x7688, symBinAddr: 0x88F9C, symSize: 0x2C }
  - { offsetInCU: 0xC7E1, offset: 0xC2ED4, size: 0x8, addend: 0x0, symName: __RNvXs2_NtNtNtCs5fsojcNSbun_4core3ops8function5implsQNCNCNvNtCs39Y7jx17GSw_12serde_derive7pretend24pretend_fields_used_enum0s_0INtB7_6FnOnceTjEE9call_onceBW_, symObjAddr: 0x76B4, symBinAddr: 0x88FC8, symSize: 0x2C }
  - { offsetInCU: 0xC830, offset: 0xC2F23, size: 0x8, addend: 0x0, symName: __RNvXs2_NtNtNtCs5fsojcNSbun_4core3ops8function5implsQNCNvNtCs39Y7jx17GSw_12serde_derive7pretend21pretend_variants_used0INtB7_6FnOnceTRNtNtNtBU_9internals3ast7VariantEE9call_onceBU_, symObjAddr: 0x76E0, symBinAddr: 0x88FF4, symSize: 0x2C }
  - { offsetInCU: 0xC87F, offset: 0xC2F72, size: 0x8, addend: 0x0, symName: __RNvXs2_NtNtNtCs5fsojcNSbun_4core3ops8function5implsQNCNvNtCs39Y7jx17GSw_12serde_derive7pretend26pretend_fields_used_struct0INtB7_6FnOnceTRNtNtNtBU_9internals3ast5FieldEE9call_onceBU_, symObjAddr: 0x770C, symBinAddr: 0x89020, symSize: 0x2C }
  - { offsetInCU: 0xC8CE, offset: 0xC2FC1, size: 0x8, addend: 0x0, symName: __RNvXs2_NtNtNtCs5fsojcNSbun_4core3ops8function5implsQNCNvNtCs39Y7jx17GSw_12serde_derive7pretend26pretend_fields_used_structs_0INtB7_6FnOnceTjEE9call_onceBU_, symObjAddr: 0x7738, symBinAddr: 0x8904C, symSize: 0x2C }
  - { offsetInCU: 0xC924, offset: 0xC3017, size: 0x8, addend: 0x0, symName: __RNvYFjENtCs5CKmLD4IrHZ_11proc_macro25IdentINtNtNtCs5fsojcNSbun_4core3ops8function5FnMutTjEE8call_mutCs39Y7jx17GSw_12serde_derive, symObjAddr: 0x866C, symBinAddr: 0x89F80, symSize: 0x30 }
  - { offsetInCU: 0xC968, offset: 0xC305B, size: 0x8, addend: 0x0, symName: __RNvYINvNvXsx_NtNtNtCs5fsojcNSbun_4core4iter8adapters7flattenINtBb_13FlattenCompatppENtNtNtBf_6traits8iterator8Iterator10advance_by7advanceINtNtNtBh_5slice4iter4IterNtNtNtCs39Y7jx17GSw_12serde_derive9internals3ast5FieldEEINtNtNtBh_3ops8function5FnMutTjQB2c_EE8call_mutB2I_, symObjAddr: 0x8748, symBinAddr: 0x8A05C, symSize: 0x30 }
  - { offsetInCU: 0xC9AC, offset: 0xC309F, size: 0x8, addend: 0x0, symName: __RNvYNvMNtCsltZDfVD1VKL_5alloc5sliceSNtNtCs5GBHJSLTkJw_3syn8generics14WherePredicate6to_vecINtNtNtCs5fsojcNSbun_4core3ops8function5FnMutTRBx_EE8call_mutCs39Y7jx17GSw_12serde_derive, symObjAddr: 0x8B90, symBinAddr: 0x8A4A4, symSize: 0x30 }
  - { offsetInCU: 0xC9F0, offset: 0xC30E3, size: 0x8, addend: 0x0, symName: __RNvYNvNtCs5CKmLD4IrHZ_11proc_macro23imp19into_compiler_tokenINtNtNtCs5fsojcNSbun_4core3ops8function5FnMutTNtB6_9TokenTreeEE8call_mutCs39Y7jx17GSw_12serde_derive, symObjAddr: 0x8BC0, symBinAddr: 0x8A4D4, symSize: 0x38 }
  - { offsetInCU: 0xCA34, offset: 0xC3127, size: 0x8, addend: 0x0, symName: __RNvYNvYNtNtCs5GBHJSLTkJw_3syn8lifetime8LifetimeNtNtCs5fsojcNSbun_4core5clone5Clone5cloneINtNtNtBN_3ops8function5FnMutTRB5_EE8call_mutCs39Y7jx17GSw_12serde_derive, symObjAddr: 0x8F8C, symBinAddr: 0x8A8A0, symSize: 0x28 }
  - { offsetInCU: 0xCA7E, offset: 0xC3171, size: 0x8, addend: 0x0, symName: __RNvYNvCs39Y7jx17GSw_12serde_derive16derive_serializeINtNtNtCs5fsojcNSbun_4core3ops8function2FnTNtCsiy7sGCDxEIm_10proc_macro11TokenStreamEE4callB4_, symObjAddr: 0x8AC4, symBinAddr: 0x8A3D8, symSize: 0x28 }
  - { offsetInCU: 0xCAC2, offset: 0xC31B5, size: 0x8, addend: 0x0, symName: __RNvYNvCs39Y7jx17GSw_12serde_derive18derive_deserializeINtNtNtCs5fsojcNSbun_4core3ops8function2FnTNtCsiy7sGCDxEIm_10proc_macro11TokenStreamEE4callB4_, symObjAddr: 0x8AEC, symBinAddr: 0x8A400, symSize: 0x28 }
  - { offsetInCU: 0xCB06, offset: 0xC31F9, size: 0x8, addend: 0x0, symName: __RNvYNvNtNtCs39Y7jx17GSw_12serde_derive9internals4attr12get_lit_str2INtNtNtCs5fsojcNSbun_4core3ops8function2FnTRNtNtB6_4ctxt4CtxtNtNtB6_6symbol6SymbolB22_RNtNtCs5GBHJSLTkJw_3syn4meta15ParseNestedMetaEE4callB8_, symObjAddr: 0x8BF8, symBinAddr: 0x8A50C, symSize: 0x50 }
  - { offsetInCU: 0xCB4A, offset: 0xC323D, size: 0x8, addend: 0x0, symName: __RNvYNvNtNtCs39Y7jx17GSw_12serde_derive9internals4attr20parse_lit_into_whereINtNtNtCs5fsojcNSbun_4core3ops8function2FnTRNtNtB6_4ctxt4CtxtNtNtB6_6symbol6SymbolB2a_RNtNtCs5GBHJSLTkJw_3syn4meta15ParseNestedMetaEE4callB8_, symObjAddr: 0x8C48, symBinAddr: 0x8A55C, symSize: 0x50 }
  - { offsetInCU: 0xD84D, offset: 0xC3F40, size: 0x8, addend: 0x0, symName: __RINvXs3_NtNtCs5fsojcNSbun_4core4hash5implsRNtCs5CKmLD4IrHZ_11proc_macro25IdentNtB8_4Hash4hashNtNtNtCsrEL4bNOiaA_3std4hash6random13DefaultHasherECs39Y7jx17GSw_12serde_derive, symObjAddr: 0x5644, symBinAddr: 0x86F58, symSize: 0x30 }
  - { offsetInCU: 0xD89F, offset: 0xC3F92, size: 0x8, addend: 0x0, symName: __RNvNtNtCs5fsojcNSbun_4core4hash3sip9u8to64_leCs39Y7jx17GSw_12serde_derive, symObjAddr: 0x6998, symBinAddr: 0x882AC, symSize: 0x258 }
  - { offsetInCU: 0xDB86, offset: 0xC4279, size: 0x8, addend: 0x0, symName: __RNvXs3_NtNtCs5fsojcNSbun_4core4hash3sipINtB5_6HasherNtB5_11Sip13RoundsENtB7_6Hasher5writeCs39Y7jx17GSw_12serde_derive, symObjAddr: 0x7764, symBinAddr: 0x89078, symSize: 0x230 }
  - { offsetInCU: 0xDD64, offset: 0xC4457, size: 0x8, addend: 0x0, symName: __RNvXs3_NtNtCs5fsojcNSbun_4core4hash3sipINtB5_6HasherNtB5_11Sip13RoundsENtB7_6Hasher6finishCs39Y7jx17GSw_12serde_derive, symObjAddr: 0x7994, symBinAddr: 0x892A8, symSize: 0xA0 }
  - { offsetInCU: 0xDDDD, offset: 0xC44D0, size: 0x8, addend: 0x0, symName: __RNvXs6_NtNtCs5fsojcNSbun_4core4hash3sipNtB5_11Sip13RoundsNtB5_3Sip8c_roundsCs39Y7jx17GSw_12serde_derive, symObjAddr: 0x7A34, symBinAddr: 0x89348, symSize: 0x170 }
  - { offsetInCU: 0xDFB0, offset: 0xC46A3, size: 0x8, addend: 0x0, symName: __RNvXs6_NtNtCs5fsojcNSbun_4core4hash3sipNtB5_11Sip13RoundsNtB5_3Sip8d_roundsCs39Y7jx17GSw_12serde_derive, symObjAddr: 0x7BA4, symBinAddr: 0x894B8, symSize: 0x408 }
  - { offsetInCU: 0xECB1, offset: 0xC53A4, size: 0x8, addend: 0x0, symName: __RINvXs_NtNtNtCs5fsojcNSbun_4core4iter8adapters6clonedINtB5_6ClonedINtNtBb_6option4IterNtNtCs5GBHJSLTkJw_3syn8lifetime8LifetimeEENtNtNtB9_6traits8iterator8Iterator4folduNCINvNvB22_8for_each4callB1m_NCINvXsl_NtNtNtCsltZDfVD1VKL_5alloc11collections5btree3setINtB3i_8BTreeSetB1m_EINtNtB26_7collect6ExtendB1m_E6extendBP_E0E0ECs39Y7jx17GSw_12serde_derive, symObjAddr: 0x56C8, symBinAddr: 0x86FDC, symSize: 0xA8 }
  - { offsetInCU: 0xED67, offset: 0xC545A, size: 0x8, addend: 0x0, symName: __RINvXs_NtNtNtCs5fsojcNSbun_4core4iter8adapters6clonedINtB5_6ClonedINtNtNtNtCsltZDfVD1VKL_5alloc11collections5btree3set4IterNtNtCs5GBHJSLTkJw_3syn8lifetime8LifetimeEENtNtNtB9_6traits8iterator8Iterator4folduNCINvNvB2D_8for_each4callB1X_NCINvXsl_B15_INtB15_8BTreeSetB1X_EINtNtB2H_7collect6ExtendB1X_E6extendBP_E0E0ECs39Y7jx17GSw_12serde_derive, symObjAddr: 0x5770, symBinAddr: 0x87084, symSize: 0xF4 }
  - { offsetInCU: 0xEE1E, offset: 0xC5511, size: 0x8, addend: 0x0, symName: __RNvXs_NtNtNtCs5fsojcNSbun_4core4iter8adapters6clonedINtB4_6ClonedINtNtCs5GBHJSLTkJw_3syn10punctuated4IterNtNtB16_8generics12GenericParamEENtNtNtB8_6traits8iterator8Iterator4nextCs39Y7jx17GSw_12serde_derive, symObjAddr: 0x828C, symBinAddr: 0x89BA0, symSize: 0x30 }
  - { offsetInCU: 0xEE5C, offset: 0xC554F, size: 0x8, addend: 0x0, symName: __RNvXs_NtNtNtCs5fsojcNSbun_4core4iter8adapters6clonedINtB4_6ClonedINtNtNtBa_5slice4iter4IterNtNtCs5GBHJSLTkJw_3syn8generics14WherePredicateEENtNtNtB8_6traits8iterator8Iterator4nextCs39Y7jx17GSw_12serde_derive, symObjAddr: 0x82BC, symBinAddr: 0x89BD0, symSize: 0x30 }
  - { offsetInCU: 0xEE9A, offset: 0xC558D, size: 0x8, addend: 0x0, symName: __RNvXs_NtNtNtCs5fsojcNSbun_4core4iter8adapters6clonedINtB4_6ClonedINtNtNtCsltZDfVD1VKL_5alloc3vec9into_iter8IntoIterRNtNtCs5GBHJSLTkJw_3syn2ty8TypePathEENtNtNtB8_6traits8iterator8Iterator4nextCs39Y7jx17GSw_12serde_derive, symObjAddr: 0x82EC, symBinAddr: 0x89C00, symSize: 0x30 }
  - { offsetInCU: 0xEED8, offset: 0xC55CB, size: 0x8, addend: 0x0, symName: __RNvXs_NtNtNtCs5fsojcNSbun_4core4iter8adapters6clonedINtB4_6ClonedINtNtNtNtCsltZDfVD1VKL_5alloc11collections5btree3set4IterNtNtCs5GBHJSLTkJw_3syn8lifetime8LifetimeEENtNtNtB8_6traits8iterator8Iterator4nextCs39Y7jx17GSw_12serde_derive, symObjAddr: 0x831C, symBinAddr: 0x89C30, symSize: 0x30 }
  - { offsetInCU: 0xF51A, offset: 0xC5C0D, size: 0x8, addend: 0x0, symName: __RINvYINtNtNtNtCs5fsojcNSbun_4core4iter8adapters6cloned6ClonedINtNtBc_6option4IterNtNtCs5GBHJSLTkJw_3syn8lifetime8LifetimeEENtNtNtBa_6traits8iterator8Iterator8for_eachNCINvXsl_NtNtNtCsltZDfVD1VKL_5alloc11collections5btree3setINtB2N_8BTreeSetB1h_EINtNtB21_7collect6ExtendB1h_E6extendB3_E0ECs39Y7jx17GSw_12serde_derive, symObjAddr: 0x58E8, symBinAddr: 0x871FC, symSize: 0x34 }
  - { offsetInCU: 0xF591, offset: 0xC5C84, size: 0x8, addend: 0x0, symName: __RINvYINtNtNtNtCs5fsojcNSbun_4core4iter8adapters6cloned6ClonedINtNtCs5GBHJSLTkJw_3syn10punctuated4IterNtNtB12_8generics12GenericParamEENtNtNtBa_6traits8iterator8Iterator3mapB1B_NCNvNtCs39Y7jx17GSw_12serde_derive5bound19with_lifetime_bound0EB2U_, symObjAddr: 0x591C, symBinAddr: 0x87230, symSize: 0x30 }
  - { offsetInCU: 0xF61D, offset: 0xC5D10, size: 0x8, addend: 0x0, symName: __RINvYINtNtNtNtCs5fsojcNSbun_4core4iter8adapters6cloned6ClonedINtNtNtNtCsltZDfVD1VKL_5alloc11collections5btree3set4IterNtNtCs5GBHJSLTkJw_3syn8lifetime8LifetimeEENtNtNtBa_6traits8iterator8Iterator7collectINtNtB1W_10punctuated10PunctuatedB1S_NtNtB1W_5token4PlusEECs39Y7jx17GSw_12serde_derive, symObjAddr: 0x594C, symBinAddr: 0x87260, symSize: 0x14 }
  - { offsetInCU: 0xF65E, offset: 0xC5D51, size: 0x8, addend: 0x0, symName: __RINvYINtNtNtNtCs5fsojcNSbun_4core4iter8adapters6cloned6ClonedINtNtNtNtCsltZDfVD1VKL_5alloc11collections5btree3set4IterNtNtCs5GBHJSLTkJw_3syn8lifetime8LifetimeEENtNtNtBa_6traits8iterator8Iterator8for_eachNCINvXsl_B10_INtB10_8BTreeSetB1S_EINtNtB2C_7collect6ExtendB1S_E6extendB3_E0ECs39Y7jx17GSw_12serde_derive, symObjAddr: 0x5960, symBinAddr: 0x87274, symSize: 0x2C }
  - { offsetInCU: 0xF6E2, offset: 0xC5DD5, size: 0x8, addend: 0x0, symName: __RNvXs_NtNtNtCs5fsojcNSbun_4core4iter6traits7collectINtNtNtB8_8adapters6cloned6ClonedINtNtBa_6option4IterNtNtCs5GBHJSLTkJw_3syn8lifetime8LifetimeEENtB4_12IntoIterator9into_iterCs39Y7jx17GSw_12serde_derive, symObjAddr: 0x8218, symBinAddr: 0x89B2C, symSize: 0x14 }
  - { offsetInCU: 0xF719, offset: 0xC5E0C, size: 0x8, addend: 0x0, symName: __RNvXs_NtNtNtCs5fsojcNSbun_4core4iter6traits7collectINtNtNtB8_8adapters6cloned6ClonedINtNtNtBa_5slice4iter4IterNtNtCs5GBHJSLTkJw_3syn8generics14WherePredicateEENtB4_12IntoIterator9into_iterCs39Y7jx17GSw_12serde_derive, symObjAddr: 0x822C, symBinAddr: 0x89B40, symSize: 0x1C }
  - { offsetInCU: 0xF750, offset: 0xC5E43, size: 0x8, addend: 0x0, symName: __RNvXs_NtNtNtCs5fsojcNSbun_4core4iter6traits7collectINtNtNtB8_8adapters6cloned6ClonedINtNtNtCsltZDfVD1VKL_5alloc3vec9into_iter8IntoIterRNtNtCs5GBHJSLTkJw_3syn2ty8TypePathEENtB4_12IntoIterator9into_iterCs39Y7jx17GSw_12serde_derive, symObjAddr: 0x8248, symBinAddr: 0x89B5C, symSize: 0x14 }
  - { offsetInCU: 0xF787, offset: 0xC5E7A, size: 0x8, addend: 0x0, symName: __RNvXs_NtNtNtCs5fsojcNSbun_4core4iter6traits7collectINtNtNtB8_8adapters6cloned6ClonedINtNtNtNtCsltZDfVD1VKL_5alloc11collections5btree3set4IterNtNtCs5GBHJSLTkJw_3syn8lifetime8LifetimeEENtB4_12IntoIterator9into_iterCs39Y7jx17GSw_12serde_derive, symObjAddr: 0x825C, symBinAddr: 0x89B70, symSize: 0x30 }
  - { offsetInCU: 0xFC4D, offset: 0xC6340, size: 0x8, addend: 0x0, symName: __RNvMNtCs5fsojcNSbun_4core5sliceSNtCs5CKmLD4IrHZ_11proc_macro211TokenStream4iterCs39Y7jx17GSw_12serde_derive, symObjAddr: 0x5F64, symBinAddr: 0x87878, symSize: 0x60 }
  - { offsetInCU: 0xFDAC, offset: 0xC649F, size: 0x8, addend: 0x0, symName: __RNvMNtCs5fsojcNSbun_4core5sliceSNtCs5CKmLD4IrHZ_11proc_macro211TokenStream8is_emptyCs39Y7jx17GSw_12serde_derive, symObjAddr: 0x5FC4, symBinAddr: 0x878D8, symSize: 0x1C }
  - { offsetInCU: 0xFDE1, offset: 0xC64D4, size: 0x8, addend: 0x0, symName: __RNvMNtCs5fsojcNSbun_4core5sliceSNtCs5CKmLD4IrHZ_11proc_macro25Ident4iterCs39Y7jx17GSw_12serde_derive, symObjAddr: 0x5FE0, symBinAddr: 0x878F4, symSize: 0x60 }
  - { offsetInCU: 0xFF40, offset: 0xC6633, size: 0x8, addend: 0x0, symName: __RNvMNtCs5fsojcNSbun_4core5sliceSRNtCs5CKmLD4IrHZ_11proc_macro25Ident4iterCs39Y7jx17GSw_12serde_derive, symObjAddr: 0x6040, symBinAddr: 0x87954, symSize: 0x60 }
  - { offsetInCU: 0x1009F, offset: 0xC6792, size: 0x8, addend: 0x0, symName: __RNvMNtCs5fsojcNSbun_4core5sliceSTReNtCs5CKmLD4IrHZ_11proc_macro25IdentRINtNtNtNtCsltZDfVD1VKL_5alloc11collections5btree3set8BTreeSetNtNtB1g_6string6StringEE4iterCs39Y7jx17GSw_12serde_derive, symObjAddr: 0x60A0, symBinAddr: 0x879B4, symSize: 0x68 }
  - { offsetInCU: 0x102F0, offset: 0xC69E3, size: 0x8, addend: 0x0, symName: __RNvXs1_NtCs5fsojcNSbun_4core7convertNtCs5CKmLD4IrHZ_11proc_macro211TokenStreamINtB5_4IntoNtCsiy7sGCDxEIm_10proc_macro11TokenStreamE4intoCs39Y7jx17GSw_12serde_derive, symObjAddr: 0x756C, symBinAddr: 0x88E80, symSize: 0x14 }
  - { offsetInCU: 0x10331, offset: 0xC6A24, size: 0x8, addend: 0x0, symName: __RNvXs1_NtCs5fsojcNSbun_4core7convertNtCs5CKmLD4IrHZ_11proc_macro25IdentINtB5_4IntoNtNtCs5GBHJSLTkJw_3syn4path4PathE4intoCs39Y7jx17GSw_12serde_derive, symObjAddr: 0x7580, symBinAddr: 0x88E94, symSize: 0x14 }
  - { offsetInCU: 0x104C4, offset: 0xC6BB7, size: 0x8, addend: 0x0, symName: __RNvNvNtNtCs5fsojcNSbun_4core4char7convert18from_u32_unchecked18precondition_checkCs39Y7jx17GSw_12serde_derive, symObjAddr: 0x6FD8, symBinAddr: 0x888EC, symSize: 0x98 }
  - { offsetInCU: 0x105ED, offset: 0xC6CE0, size: 0x8, addend: 0x0, symName: __RNvXs7_NtNtCs5fsojcNSbun_4core3cmp5implsRNtCs5CKmLD4IrHZ_11proc_macro25IdentINtB7_9PartialEqReE2eqCs39Y7jx17GSw_12serde_derive, symObjAddr: 0x7FAC, symBinAddr: 0x898C0, symSize: 0x3C }
  - { offsetInCU: 0x106B3, offset: 0xC6DA6, size: 0x8, addend: 0x0, symName: __RNvYNtCs5CKmLD4IrHZ_11proc_macro25IdentINtNtCs5fsojcNSbun_4core3cmp9PartialEqNtNtNtCs39Y7jx17GSw_12serde_derive9internals6symbol6SymbolE2neB1j_, symObjAddr: 0x8A64, symBinAddr: 0x8A378, symSize: 0x30 }
  - { offsetInCU: 0x10702, offset: 0xC6DF5, size: 0x8, addend: 0x0, symName: __RNvYNtCs5CKmLD4IrHZ_11proc_macro25IdentINtNtCs5fsojcNSbun_4core3cmp9PartialEqReE2neCs39Y7jx17GSw_12serde_derive, symObjAddr: 0x8A94, symBinAddr: 0x8A3A8, symSize: 0x30 }
  - { offsetInCU: 0x10751, offset: 0xC6E44, size: 0x8, addend: 0x0, symName: __RNvYRNtCs5CKmLD4IrHZ_11proc_macro25IdentINtNtCs5fsojcNSbun_4core3cmp9PartialEqNtNtNtCs39Y7jx17GSw_12serde_derive9internals6symbol6SymbolE2neB1k_, symObjAddr: 0x9004, symBinAddr: 0x8A918, symSize: 0x30 }
  - { offsetInCU: 0x107AC, offset: 0xC6E9F, size: 0x8, addend: 0x0, symName: __RNvXNtCs5fsojcNSbun_4core6borrowNtCs5CKmLD4IrHZ_11proc_macro25IdentINtB2_6BorrowBu_E6borrowCs39Y7jx17GSw_12serde_derive, symObjAddr: 0x70C0, symBinAddr: 0x889D4, symSize: 0x14 }
  - { offsetInCU: 0x107E1, offset: 0xC6ED4, size: 0x8, addend: 0x0, symName: __RNvXNtCs5fsojcNSbun_4core6borrowNtNtCs5GBHJSLTkJw_3syn8lifetime8LifetimeINtB2_6BorrowBu_E6borrowCs39Y7jx17GSw_12serde_derive, symObjAddr: 0x70D4, symBinAddr: 0x889E8, symSize: 0x14 }
  - { offsetInCU: 0x10822, offset: 0xC6F15, size: 0x8, addend: 0x0, symName: __RNvYFjENtCs5CKmLD4IrHZ_11proc_macro25IdentNtNtCs5fsojcNSbun_4core5clone5Clone5cloneCs39Y7jx17GSw_12serde_derive, symObjAddr: 0x869C, symBinAddr: 0x89FB0, symSize: 0x18 }
  - { offsetInCU: 0x10853, offset: 0xC6F46, size: 0x8, addend: 0x0, symName: __RNvYNCNvNtCs39Y7jx17GSw_12serde_derive2de22deserialize_identifier0NtNtCs5fsojcNSbun_4core5clone5Clone5cloneB8_, symObjAddr: 0x8914, symBinAddr: 0x8A228, symSize: 0x28 }
  - { offsetInCU: 0x108A1, offset: 0xC6F94, size: 0x8, addend: 0x0, symName: __RNvYNCNvNtCs39Y7jx17GSw_12serde_derive2de22deserialize_identifiers_0NtNtCs5fsojcNSbun_4core5clone5Clone5cloneB8_, symObjAddr: 0x893C, symBinAddr: 0x8A250, symSize: 0x28 }
  - { offsetInCU: 0x108EF, offset: 0xC6FE2, size: 0x8, addend: 0x0, symName: __RNvYNCNvNtCs39Y7jx17GSw_12serde_derive2de25prepare_enum_variant_enum0NtNtCs5fsojcNSbun_4core5clone5Clone5cloneB8_, symObjAddr: 0x8964, symBinAddr: 0x8A278, symSize: 0x10 }
  - { offsetInCU: 0x10A58, offset: 0xC714B, size: 0x8, addend: 0x0, symName: __RNvXsu_NtCsltZDfVD1VKL_5alloc6stringNtCs5CKmLD4IrHZ_11proc_macro211TokenStreamNtB5_8ToString9to_stringCs39Y7jx17GSw_12serde_derive, symObjAddr: 0x83F8, symBinAddr: 0x89D0C, symSize: 0x118 }
  - { offsetInCU: 0x10B12, offset: 0xC7205, size: 0x8, addend: 0x0, symName: __RNvXsu_NtCsltZDfVD1VKL_5alloc6stringNtNtCs5GBHJSLTkJw_3syn8lifetime8LifetimeNtB5_8ToString9to_stringCs39Y7jx17GSw_12serde_derive, symObjAddr: 0x8510, symBinAddr: 0x89E24, symSize: 0x118 }
  - { offsetInCU: 0x12565, offset: 0xC8C58, size: 0x8, addend: 0x0, symName: __RINvMs3_NtCsltZDfVD1VKL_5alloc3stre7replacecECs39Y7jx17GSw_12serde_derive, symObjAddr: 0x98, symBinAddr: 0x819AC, symSize: 0x24C }
  - { offsetInCU: 0x127A2, offset: 0xC8E95, size: 0x8, addend: 0x0, symName: __RNvMs3_NtCsltZDfVD1VKL_5alloc3stre18to_ascii_lowercaseCs39Y7jx17GSw_12serde_derive, symObjAddr: 0x6170, symBinAddr: 0x87A84, symSize: 0xC4 }
  - { offsetInCU: 0x12958, offset: 0xC904B, size: 0x8, addend: 0x0, symName: __RNvMs3_NtCsltZDfVD1VKL_5alloc3stre18to_ascii_uppercaseCs39Y7jx17GSw_12serde_derive, symObjAddr: 0x6234, symBinAddr: 0x87B48, symSize: 0xC4 }
  - { offsetInCU: 0x12B50, offset: 0xC9243, size: 0x8, addend: 0x0, symName: __RNvXs2_NtCsltZDfVD1VKL_5alloc3streNtNtB7_6borrow7ToOwned8to_ownedCs39Y7jx17GSw_12serde_derive, symObjAddr: 0x75C4, symBinAddr: 0x88ED8, symSize: 0x50 }
  - { offsetInCU: 0x1307D, offset: 0xC9770, size: 0x8, addend: 0x0, symName: __RNCINvMsm_NtNtNtCsltZDfVD1VKL_5alloc11collections5btree8navigateINtNtBa_4node6HandleINtB13_7NodeRefNtNtB13_6marker5DyingNtNtBe_6string6StringNtNtBa_7set_val9SetValZSTNtB1B_4LeafENtB1B_4EdgeE27deallocating_next_uncheckedNtNtBe_5alloc6GlobalE0Cs39Y7jx17GSw_12serde_derive, symObjAddr: 0x598C, symBinAddr: 0x872A0, symSize: 0x58 }
  - { offsetInCU: 0x13102, offset: 0xC97F5, size: 0x8, addend: 0x0, symName: __RNCINvMsm_NtNtNtCsltZDfVD1VKL_5alloc11collections5btree8navigateINtNtBa_4node6HandleINtB13_7NodeRefNtNtB13_6marker5DyingNtNtCs5GBHJSLTkJw_3syn8lifetime8LifetimeNtNtBa_7set_val9SetValZSTNtB1B_4LeafENtB1B_4EdgeE27deallocating_next_uncheckedNtNtBe_5alloc6GlobalE0Cs39Y7jx17GSw_12serde_derive, symObjAddr: 0x59E4, symBinAddr: 0x872F8, symSize: 0x58 }
  - { offsetInCU: 0x13193, offset: 0xC9886, size: 0x8, addend: 0x0, symName: __RNCNvMsk_NtNtNtCsltZDfVD1VKL_5alloc11collections5btree8navigateINtNtB9_4node6HandleINtB12_7NodeRefNtNtB12_6marker5ImmutNtNtBd_6string6StringNtNtB9_7set_val9SetValZSTNtB1A_4LeafENtB1A_4EdgeE14next_unchecked0Cs39Y7jx17GSw_12serde_derive, symObjAddr: 0x5A3C, symBinAddr: 0x87350, symSize: 0xE0 }
  - { offsetInCU: 0x1326C, offset: 0xC995F, size: 0x8, addend: 0x0, symName: __RNCNvMsk_NtNtNtCsltZDfVD1VKL_5alloc11collections5btree8navigateINtNtB9_4node6HandleINtB12_7NodeRefNtNtB12_6marker5ImmutNtNtCs5GBHJSLTkJw_3syn8lifetime8LifetimeNtNtB9_7set_val9SetValZSTNtB1A_4LeafENtB1A_4EdgeE14next_unchecked0Cs39Y7jx17GSw_12serde_derive, symObjAddr: 0x5B1C, symBinAddr: 0x87430, symSize: 0xE0 }
  - { offsetInCU: 0x1498B, offset: 0xCB07E, size: 0x8, addend: 0x0, symName: __RNvXs7_NtNtCsiy7sGCDxEIm_10proc_macro6bridge3rpcINtNtNtCs5fsojcNSbun_4core3num7nonzero7NonZeromEINtB5_9DecodeMutuE6decodeCs39Y7jx17GSw_12serde_derive, symObjAddr: 0x7FE8, symBinAddr: 0x898FC, symSize: 0x5C }
  - { offsetInCU: 0x152A3, offset: 0xCB996, size: 0x8, addend: 0x0, symName: __RINvXs6_Cs5CKmLD4IrHZ_11proc_macro2NtB6_11TokenStreamINtNtNtNtCs5fsojcNSbun_4core4iter6traits7collect12FromIteratorNtB6_9TokenTreeE9from_iterINtNtNtBW_8adapters3map3MapNtNtB6_12token_stream8IntoIterNCNvNtNtCs39Y7jx17GSw_12serde_derive9internals6respan6respan0EEB3i_, symObjAddr: 0x5674, symBinAddr: 0x86F88, symSize: 0x54 }
  - { offsetInCU: 0x152E1, offset: 0xCB9D4, size: 0x8, addend: 0x0, symName: __RINvXsz_Cs5CKmLD4IrHZ_11proc_macro2NtB6_5IdentNtNtCs5fsojcNSbun_4core4hash4Hash4hashNtNtNtCsrEL4bNOiaA_3std4hash6random13DefaultHasherECs39Y7jx17GSw_12serde_derive, symObjAddr: 0x5864, symBinAddr: 0x87178, symSize: 0x84 }
  - { offsetInCU: 0x153E4, offset: 0xCBAD7, size: 0x8, addend: 0x0, symName: __RNvXsG_Cs5CKmLD4IrHZ_11proc_macro2NtB5_11TokenStreamNtNtCs5fsojcNSbun_4core5clone5Clone5cloneCs39Y7jx17GSw_12serde_derive, symObjAddr: 0x8044, symBinAddr: 0x89958, symSize: 0x78 }
  - { offsetInCU: 0x15416, offset: 0xCBB09, size: 0x8, addend: 0x0, symName: __RNvXsX_Cs5CKmLD4IrHZ_11proc_macro2NtB5_7SpacingNtNtCs5fsojcNSbun_4core3cmp9PartialEq2eqCs39Y7jx17GSw_12serde_derive, symObjAddr: 0x80EC, symBinAddr: 0x89A00, symSize: 0x3C }
  - { offsetInCU: 0x15495, offset: 0xCBB88, size: 0x8, addend: 0x0, symName: __RNvXsY_Cs5CKmLD4IrHZ_11proc_macro2NtB5_5IdentNtNtCs5fsojcNSbun_4core5clone5Clone5cloneCs39Y7jx17GSw_12serde_derive, symObjAddr: 0x8128, symBinAddr: 0x89A3C, symSize: 0x78 }
  - { offsetInCU: 0x154C9, offset: 0xCBBBC, size: 0x8, addend: 0x0, symName: __RNvXsv_Cs5CKmLD4IrHZ_11proc_macro2NtB5_5IdentINtNtCs5fsojcNSbun_4core3cmp9PartialEqeE2eqCs39Y7jx17GSw_12serde_derive, symObjAddr: 0x8628, symBinAddr: 0x89F3C, symSize: 0x44 }
  - { offsetInCU: 0x15F20, offset: 0xCC613, size: 0x8, addend: 0x0, symName: __RNvXNtNtCs39Y7jx17GSw_12serde_derive9internals6symbolNtCs5CKmLD4IrHZ_11proc_macro25IdentINtNtCs5fsojcNSbun_4core3cmp9PartialEqNtB2_6SymbolE2eq, symObjAddr: 0x91F4, symBinAddr: 0x8AB08, symSize: 0x40 }
  - { offsetInCU: 0x15F60, offset: 0xCC653, size: 0x8, addend: 0x0, symName: __RNvXs_NtNtCs39Y7jx17GSw_12serde_derive9internals6symbolRNtCs5CKmLD4IrHZ_11proc_macro25IdentINtNtCs5fsojcNSbun_4core3cmp9PartialEqNtB4_6SymbolE2eq, symObjAddr: 0x9234, symBinAddr: 0x8AB48, symSize: 0x3C }
  - { offsetInCU: 0x1609D, offset: 0xCC790, size: 0x8, addend: 0x0, symName: __RNvNtCs39Y7jx17GSw_12serde_derive7pretend12pretend_used, symObjAddr: 0x9270, symBinAddr: 0x8AB84, symSize: 0x108 }
  - { offsetInCU: 0x16116, offset: 0xCC809, size: 0x8, addend: 0x0, symName: __RNvNtCs39Y7jx17GSw_12serde_derive7pretend19pretend_fields_used, symObjAddr: 0x9378, symBinAddr: 0x8AC8C, symSize: 0x174 }
  - { offsetInCU: 0x16182, offset: 0xCC875, size: 0x8, addend: 0x0, symName: __RNvNtCs39Y7jx17GSw_12serde_derive7pretend26pretend_fields_used_struct, symObjAddr: 0x94EC, symBinAddr: 0x8AE00, symSize: 0x610 }
  - { offsetInCU: 0x16377, offset: 0xCCA6A, size: 0x8, addend: 0x0, symName: __RNCNvNtCs39Y7jx17GSw_12serde_derive7pretend26pretend_fields_used_struct0B5_, symObjAddr: 0x9AFC, symBinAddr: 0x8B410, symSize: 0x28 }
  - { offsetInCU: 0x163AD, offset: 0xCCAA0, size: 0x8, addend: 0x0, symName: __RNCNvNtCs39Y7jx17GSw_12serde_derive7pretend26pretend_fields_used_structs_0B5_, symObjAddr: 0x9B24, symBinAddr: 0x8B438, symSize: 0x164 }
  - { offsetInCU: 0x16477, offset: 0xCCB6A, size: 0x8, addend: 0x0, symName: __RNvNtCs39Y7jx17GSw_12serde_derive7pretend33pretend_fields_used_struct_packed, symObjAddr: 0x9C88, symBinAddr: 0x8B59C, symSize: 0x7A0 }
  - { offsetInCU: 0x16697, offset: 0xCCD8A, size: 0x8, addend: 0x0, symName: __RNCNvNtCs39Y7jx17GSw_12serde_derive7pretend33pretend_fields_used_struct_packed0B5_, symObjAddr: 0xA428, symBinAddr: 0x8BD3C, symSize: 0x28 }
  - { offsetInCU: 0x166D5, offset: 0xCCDC8, size: 0x8, addend: 0x0, symName: __RNvNtCs39Y7jx17GSw_12serde_derive7pretend24pretend_fields_used_enum, symObjAddr: 0xA450, symBinAddr: 0x8BD64, symSize: 0x45C }
  - { offsetInCU: 0x1681A, offset: 0xCCF0D, size: 0x8, addend: 0x0, symName: __RNCNvNtCs39Y7jx17GSw_12serde_derive7pretend24pretend_fields_used_enum0B5_, symObjAddr: 0xA8AC, symBinAddr: 0x8C1C0, symSize: 0x3E8 }
  - { offsetInCU: 0x169D0, offset: 0xCD0C3, size: 0x8, addend: 0x0, symName: __RNCNCNvNtCs39Y7jx17GSw_12serde_derive7pretend24pretend_fields_used_enum00B7_, symObjAddr: 0xAC94, symBinAddr: 0x8C5A8, symSize: 0x28 }
  - { offsetInCU: 0x16A06, offset: 0xCD0F9, size: 0x8, addend: 0x0, symName: __RNCNCNvNtCs39Y7jx17GSw_12serde_derive7pretend24pretend_fields_used_enum0s_0B7_, symObjAddr: 0xACBC, symBinAddr: 0x8C5D0, symSize: 0x164 }
  - { offsetInCU: 0x16AE4, offset: 0xCD1D7, size: 0x8, addend: 0x0, symName: __RNvNtCs39Y7jx17GSw_12serde_derive7pretend21pretend_variants_used, symObjAddr: 0xAE20, symBinAddr: 0x8C734, symSize: 0x24C }
  - { offsetInCU: 0x16C23, offset: 0xCD316, size: 0x8, addend: 0x0, symName: __RNCNvNtCs39Y7jx17GSw_12serde_derive7pretend21pretend_variants_used0B5_, symObjAddr: 0xB06C, symBinAddr: 0x8C980, symSize: 0xA64 }
  - { offsetInCU: 0x16FB7, offset: 0xCD6AA, size: 0x8, addend: 0x0, symName: __RNCNCNvNtCs39Y7jx17GSw_12serde_derive7pretend21pretend_variants_used00B7_, symObjAddr: 0xBAD0, symBinAddr: 0x8D3E4, symSize: 0x164 }
  - { offsetInCU: 0x17072, offset: 0xCD765, size: 0x8, addend: 0x0, symName: __RNCNCNvNtCs39Y7jx17GSw_12serde_derive7pretend21pretend_variants_used0s_0B7_, symObjAddr: 0xBC34, symBinAddr: 0x8D548, symSize: 0x28 }
  - { offsetInCU: 0x170DC, offset: 0xCD7CF, size: 0x8, addend: 0x0, symName: __RNvNtCs39Y7jx17GSw_12serde_derive4this9this_type, symObjAddr: 0xBC5C, symBinAddr: 0x8D570, symSize: 0x200 }
  - { offsetInCU: 0x17173, offset: 0xCD866, size: 0x8, addend: 0x0, symName: __RNvNtCs39Y7jx17GSw_12serde_derive4this10this_value, symObjAddr: 0xBE5C, symBinAddr: 0x8D770, symSize: 0x280 }
  - { offsetInCU: 0x17476, offset: 0xCDB69, size: 0x8, addend: 0x0, symName: __RINvCs5GBHJSLTkJw_3syn5parseNtNtB2_6derive11DeriveInputECs39Y7jx17GSw_12serde_derive, symObjAddr: 0x0, symBinAddr: 0x81914, symSize: 0x30 }
  - { offsetInCU: 0x174AD, offset: 0xCDBA0, size: 0x8, addend: 0x0, symName: __RINvCs5GBHJSLTkJw_3syn6parse2NtNtB2_2ty8TypePathECs39Y7jx17GSw_12serde_derive, symObjAddr: 0x30, symBinAddr: 0x81944, symSize: 0x24 }
  - { offsetInCU: 0x1A5FC, offset: 0xD0CEF, size: 0x8, addend: 0x0, symName: __RNvXs0_NtCs5GBHJSLTkJw_3syn5dropsINtB5_6NoDropDINtNtB7_10punctuated12IterMutTraitNtNtB7_2ty4TypeEp4ItemQB1h_EL_ENtNtNtCs5fsojcNSbun_4core3ops5deref8DerefMut9deref_mutCs39Y7jx17GSw_12serde_derive, symObjAddr: 0x7260, symBinAddr: 0x88B74, symSize: 0x3C }
  - { offsetInCU: 0x1A631, offset: 0xD0D24, size: 0x8, addend: 0x0, symName: __RNvXs0_NtCs5GBHJSLTkJw_3syn5dropsINtB5_6NoDropDINtNtB7_10punctuated12IterMutTraitNtNtB7_2ty9BareFnArgEp4ItemQB1h_EL_ENtNtNtCs5fsojcNSbun_4core3ops5deref8DerefMut9deref_mutCs39Y7jx17GSw_12serde_derive, symObjAddr: 0x729C, symBinAddr: 0x88BB0, symSize: 0x3C }
  - { offsetInCU: 0x1A666, offset: 0xD0D59, size: 0x8, addend: 0x0, symName: __RNvXs0_NtCs5GBHJSLTkJw_3syn5dropsINtB5_6NoDropDINtNtB7_10punctuated12IterMutTraitNtNtB7_4data5FieldEp4ItemQB1h_EL_ENtNtNtCs5fsojcNSbun_4core3ops5deref8DerefMut9deref_mutCs39Y7jx17GSw_12serde_derive, symObjAddr: 0x72D8, symBinAddr: 0x88BEC, symSize: 0x3C }
  - { offsetInCU: 0x1A69B, offset: 0xD0D8E, size: 0x8, addend: 0x0, symName: __RNvXs0_NtCs5GBHJSLTkJw_3syn5dropsINtB5_6NoDropDINtNtB7_10punctuated12IterMutTraitNtNtB7_4data7VariantEp4ItemQB1h_EL_ENtNtNtCs5fsojcNSbun_4core3ops5deref8DerefMut9deref_mutCs39Y7jx17GSw_12serde_derive, symObjAddr: 0x7314, symBinAddr: 0x88C28, symSize: 0x3C }
  - { offsetInCU: 0x1A6D0, offset: 0xD0DC3, size: 0x8, addend: 0x0, symName: __RNvXs0_NtCs5GBHJSLTkJw_3syn5dropsINtB5_6NoDropDINtNtB7_10punctuated12IterMutTraitNtNtB7_4expr4ExprEp4ItemQB1h_EL_ENtNtNtCs5fsojcNSbun_4core3ops5deref8DerefMut9deref_mutCs39Y7jx17GSw_12serde_derive, symObjAddr: 0x7350, symBinAddr: 0x88C64, symSize: 0x3C }
  - { offsetInCU: 0x1A705, offset: 0xD0DF8, size: 0x8, addend: 0x0, symName: __RNvXs0_NtCs5GBHJSLTkJw_3syn5dropsINtB5_6NoDropDINtNtB7_10punctuated12IterMutTraitNtNtB7_4path15GenericArgumentEp4ItemQB1h_EL_ENtNtNtCs5fsojcNSbun_4core3ops5deref8DerefMut9deref_mutCs39Y7jx17GSw_12serde_derive, symObjAddr: 0x738C, symBinAddr: 0x88CA0, symSize: 0x3C }
  - { offsetInCU: 0x1A73A, offset: 0xD0E2D, size: 0x8, addend: 0x0, symName: __RNvXs0_NtCs5GBHJSLTkJw_3syn5dropsINtB5_6NoDropDINtNtB7_10punctuated12IterMutTraitNtNtB7_8generics14TypeParamBoundEp4ItemQB1h_EL_ENtNtNtCs5fsojcNSbun_4core3ops5deref8DerefMut9deref_mutCs39Y7jx17GSw_12serde_derive, symObjAddr: 0x73C8, symBinAddr: 0x88CDC, symSize: 0x3C }
  - { offsetInCU: 0x1A76F, offset: 0xD0E62, size: 0x8, addend: 0x0, symName: __RNvXs0_NtCs5GBHJSLTkJw_3syn5dropsINtB5_6NoDropDINtNtB7_10punctuated12IterMutTraitNtNtB7_8generics14WherePredicateEp4ItemQB1h_EL_ENtNtNtCs5fsojcNSbun_4core3ops5deref8DerefMut9deref_mutCs39Y7jx17GSw_12serde_derive, symObjAddr: 0x7404, symBinAddr: 0x88D18, symSize: 0x3C }
  - { offsetInCU: 0x1A7A4, offset: 0xD0E97, size: 0x8, addend: 0x0, symName: __RNvXs0_NtCs5GBHJSLTkJw_3syn5dropsINtB5_6NoDropDINtNtB7_10punctuated9IterTraitNtNtB7_2ty4TypeEp4ItemRB1d_EL_ENtNtNtCs5fsojcNSbun_4core3ops5deref8DerefMut9deref_mutCs39Y7jx17GSw_12serde_derive, symObjAddr: 0x7440, symBinAddr: 0x88D54, symSize: 0x3C }
  - { offsetInCU: 0x1A7D9, offset: 0xD0ECC, size: 0x8, addend: 0x0, symName: __RNvXs0_NtCs5GBHJSLTkJw_3syn5dropsINtB5_6NoDropDINtNtB7_10punctuated9IterTraitNtNtB7_2ty9BareFnArgEp4ItemRB1d_EL_ENtNtNtCs5fsojcNSbun_4core3ops5deref8DerefMut9deref_mutCs39Y7jx17GSw_12serde_derive, symObjAddr: 0x747C, symBinAddr: 0x88D90, symSize: 0x3C }
  - { offsetInCU: 0x1A80E, offset: 0xD0F01, size: 0x8, addend: 0x0, symName: __RNvXs0_NtCs5GBHJSLTkJw_3syn5dropsINtB5_6NoDropDINtNtB7_10punctuated9IterTraitNtNtB7_4data5FieldEp4ItemRB1d_EL_ENtNtNtCs5fsojcNSbun_4core3ops5deref8DerefMut9deref_mutCs39Y7jx17GSw_12serde_derive, symObjAddr: 0x74B8, symBinAddr: 0x88DCC, symSize: 0x3C }
  - { offsetInCU: 0x1A843, offset: 0xD0F36, size: 0x8, addend: 0x0, symName: __RNvXs0_NtCs5GBHJSLTkJw_3syn5dropsINtB5_6NoDropDINtNtB7_10punctuated9IterTraitNtNtB7_4data7VariantEp4ItemRB1d_EL_ENtNtNtCs5fsojcNSbun_4core3ops5deref8DerefMut9deref_mutCs39Y7jx17GSw_12serde_derive, symObjAddr: 0x74F4, symBinAddr: 0x88E08, symSize: 0x3C }
  - { offsetInCU: 0x1A878, offset: 0xD0F6B, size: 0x8, addend: 0x0, symName: __RNvXs0_NtCs5GBHJSLTkJw_3syn5dropsINtB5_6NoDropDINtNtB7_10punctuated9IterTraitNtNtB7_4path15GenericArgumentEp4ItemRB1d_EL_ENtNtNtCs5fsojcNSbun_4core3ops5deref8DerefMut9deref_mutCs39Y7jx17GSw_12serde_derive, symObjAddr: 0x7530, symBinAddr: 0x88E44, symSize: 0x3C }
  - { offsetInCU: 0x1A8B3, offset: 0xD0FA6, size: 0x8, addend: 0x0, symName: __RNvXs_NtCs5GBHJSLTkJw_3syn5dropsINtB4_6NoDropDINtNtB6_10punctuated9IterTraitNtNtB6_4data5FieldEp4ItemRB1c_EL_ENtNtNtCs5fsojcNSbun_4core3ops5deref5Deref5derefCs39Y7jx17GSw_12serde_derive, symObjAddr: 0x81A0, symBinAddr: 0x89AB4, symSize: 0x3C }
  - { offsetInCU: 0x1A8E8, offset: 0xD0FDB, size: 0x8, addend: 0x0, symName: __RNvXs_NtCs5GBHJSLTkJw_3syn5dropsINtB4_6NoDropDINtNtB6_10punctuated9IterTraitNtNtB6_4data7VariantEp4ItemRB1c_EL_ENtNtNtCs5fsojcNSbun_4core3ops5deref5Deref5derefCs39Y7jx17GSw_12serde_derive, symObjAddr: 0x81DC, symBinAddr: 0x89AF0, symSize: 0x3C }
  - { offsetInCU: 0x1B031, offset: 0xD1724, size: 0x8, addend: 0x0, symName: __RINvMNtCs5GBHJSLTkJw_3syn9lookaheadNtB3_10Lookahead14peekINvNtB5_5token2EqNtB3_11TokenMarkerEECs39Y7jx17GSw_12serde_derive, symObjAddr: 0x54, symBinAddr: 0x81968, symSize: 0x44 }
  - { offsetInCU: 0x1B1C9, offset: 0xD18BC, size: 0x8, addend: 0x0, symName: __RINvMsb_NtNtNtCsltZDfVD1VKL_5alloc11collections5btree8navigateINtB6_13LazyLeafRangeNtNtNtB8_4node6marker5DyingNtNtBc_6string6StringNtNtB8_7set_val9SetValZSTE16deallocating_endNtNtBc_5alloc6GlobalECs39Y7jx17GSw_12serde_derive, symObjAddr: 0x2E4, symBinAddr: 0x81BF8, symSize: 0xA8 }
  - { offsetInCU: 0x1B2AC, offset: 0xD199F, size: 0x8, addend: 0x0, symName: __RINvMsb_NtNtNtCsltZDfVD1VKL_5alloc11collections5btree8navigateINtB6_13LazyLeafRangeNtNtNtB8_4node6marker5DyingNtNtBc_6string6StringNtNtB8_7set_val9SetValZSTE27deallocating_next_uncheckedNtNtBc_5alloc6GlobalECs39Y7jx17GSw_12serde_derive, symObjAddr: 0x38C, symBinAddr: 0x81CA0, symSize: 0xA8 }
  - { offsetInCU: 0x1B3B3, offset: 0xD1AA6, size: 0x8, addend: 0x0, symName: __RINvMsb_NtNtNtCsltZDfVD1VKL_5alloc11collections5btree8navigateINtB6_13LazyLeafRangeNtNtNtB8_4node6marker5DyingNtNtCs5GBHJSLTkJw_3syn8lifetime8LifetimeNtNtB8_7set_val9SetValZSTE16deallocating_endNtNtBc_5alloc6GlobalECs39Y7jx17GSw_12serde_derive, symObjAddr: 0x434, symBinAddr: 0x81D48, symSize: 0xA8 }
  - { offsetInCU: 0x1B489, offset: 0xD1B7C, size: 0x8, addend: 0x0, symName: __RINvMsb_NtNtNtCsltZDfVD1VKL_5alloc11collections5btree8navigateINtB6_13LazyLeafRangeNtNtNtB8_4node6marker5DyingNtNtCs5GBHJSLTkJw_3syn8lifetime8LifetimeNtNtB8_7set_val9SetValZSTE27deallocating_next_uncheckedNtNtBc_5alloc6GlobalECs39Y7jx17GSw_12serde_derive, symObjAddr: 0x4DC, symBinAddr: 0x81DF0, symSize: 0xA8 }
  - { offsetInCU: 0x1B6F5, offset: 0xD1DE8, size: 0x8, addend: 0x0, symName: __RNvXCs8wgAxfFqjdh_9hashbrownNtCs5CKmLD4IrHZ_11proc_macro25IdentINtB2_10EquivalentBq_E10equivalentCs39Y7jx17GSw_12serde_derive, symObjAddr: 0x7070, symBinAddr: 0x88984, symSize: 0x50 }
  - { offsetInCU: 0x1BE3F, offset: 0xD2532, size: 0x8, addend: 0x0, symName: __RNvMNtCs5GBHJSLTkJw_3syn5dropsINtB2_6NoDropINtNtB4_10punctuated11PrivateIterNtNtB4_2ty4TypeNtNtB4_5token5CommaEE3newCs39Y7jx17GSw_12serde_derive, symObjAddr: 0x5CA4, symBinAddr: 0x875B8, symSize: 0x40 }
  - { offsetInCU: 0x1BEBC, offset: 0xD25AF, size: 0x8, addend: 0x0, symName: __RNvMNtCs5GBHJSLTkJw_3syn5dropsINtB2_6NoDropINtNtB4_10punctuated11PrivateIterNtNtB4_2ty9BareFnArgNtNtB4_5token5CommaEE3newCs39Y7jx17GSw_12serde_derive, symObjAddr: 0x5CE4, symBinAddr: 0x875F8, symSize: 0x40 }
  - { offsetInCU: 0x1BFCB, offset: 0xD26BE, size: 0x8, addend: 0x0, symName: __RNvMNtCs5GBHJSLTkJw_3syn5dropsINtB2_6NoDropINtNtB4_10punctuated11PrivateIterNtNtB4_4data7VariantNtNtB4_5token5CommaEE3newCs39Y7jx17GSw_12serde_derive, symObjAddr: 0x5D24, symBinAddr: 0x87638, symSize: 0x40 }
  - { offsetInCU: 0x1C048, offset: 0xD273B, size: 0x8, addend: 0x0, symName: __RNvMNtCs5GBHJSLTkJw_3syn5dropsINtB2_6NoDropINtNtB4_10punctuated11PrivateIterNtNtB4_4path15GenericArgumentNtNtB4_5token5CommaEE3newCs39Y7jx17GSw_12serde_derive, symObjAddr: 0x5D64, symBinAddr: 0x87678, symSize: 0x40 }
  - { offsetInCU: 0x1C0D2, offset: 0xD27C5, size: 0x8, addend: 0x0, symName: __RNvMNtCs5GBHJSLTkJw_3syn5dropsINtB2_6NoDropINtNtB4_10punctuated14PrivateIterMutNtNtB4_2ty4TypeNtNtB4_5token5CommaEE3newCs39Y7jx17GSw_12serde_derive, symObjAddr: 0x5DA4, symBinAddr: 0x876B8, symSize: 0x40 }
  - { offsetInCU: 0x1C15C, offset: 0xD284F, size: 0x8, addend: 0x0, symName: __RNvMNtCs5GBHJSLTkJw_3syn5dropsINtB2_6NoDropINtNtB4_10punctuated14PrivateIterMutNtNtB4_2ty9BareFnArgNtNtB4_5token5CommaEE3newCs39Y7jx17GSw_12serde_derive, symObjAddr: 0x5DE4, symBinAddr: 0x876F8, symSize: 0x40 }
  - { offsetInCU: 0x1C1E6, offset: 0xD28D9, size: 0x8, addend: 0x0, symName: __RNvMNtCs5GBHJSLTkJw_3syn5dropsINtB2_6NoDropINtNtB4_10punctuated14PrivateIterMutNtNtB4_4data7VariantNtNtB4_5token5CommaEE3newCs39Y7jx17GSw_12serde_derive, symObjAddr: 0x5E24, symBinAddr: 0x87738, symSize: 0x40 }
  - { offsetInCU: 0x1C270, offset: 0xD2963, size: 0x8, addend: 0x0, symName: __RNvMNtCs5GBHJSLTkJw_3syn5dropsINtB2_6NoDropINtNtB4_10punctuated14PrivateIterMutNtNtB4_4expr4ExprNtNtB4_5token5CommaEE3newCs39Y7jx17GSw_12serde_derive, symObjAddr: 0x5E64, symBinAddr: 0x87778, symSize: 0x40 }
  - { offsetInCU: 0x1C2FA, offset: 0xD29ED, size: 0x8, addend: 0x0, symName: __RNvMNtCs5GBHJSLTkJw_3syn5dropsINtB2_6NoDropINtNtB4_10punctuated14PrivateIterMutNtNtB4_4path15GenericArgumentNtNtB4_5token5CommaEE3newCs39Y7jx17GSw_12serde_derive, symObjAddr: 0x5EA4, symBinAddr: 0x877B8, symSize: 0x40 }
  - { offsetInCU: 0x1C384, offset: 0xD2A77, size: 0x8, addend: 0x0, symName: __RNvMNtCs5GBHJSLTkJw_3syn5dropsINtB2_6NoDropINtNtB4_10punctuated14PrivateIterMutNtNtB4_8generics14TypeParamBoundNtNtB4_5token4PlusEE3newCs39Y7jx17GSw_12serde_derive, symObjAddr: 0x5EE4, symBinAddr: 0x877F8, symSize: 0x40 }
  - { offsetInCU: 0x1C43B, offset: 0xD2B2E, size: 0x8, addend: 0x0, symName: __RNvMNtCs5GBHJSLTkJw_3syn5dropsINtB2_6NoDropINtNtB4_10punctuated14PrivateIterMutNtNtB4_8generics14WherePredicateNtNtB4_5token5CommaEE3newCs39Y7jx17GSw_12serde_derive, symObjAddr: 0x5F24, symBinAddr: 0x87838, symSize: 0x40 }
  - { offsetInCU: 0x1C991, offset: 0xD3084, size: 0x8, addend: 0x0, symName: __RNvMsb_NtNtNtCsltZDfVD1VKL_5alloc11collections5btree8navigateINtB5_13LazyLeafRangeNtNtNtB7_4node6marker5DyingNtNtBb_6string6StringNtNtB7_7set_val9SetValZSTE10take_frontCs39Y7jx17GSw_12serde_derive, symObjAddr: 0x62F8, symBinAddr: 0x87C0C, symSize: 0x138 }
  - { offsetInCU: 0x1CB65, offset: 0xD3258, size: 0x8, addend: 0x0, symName: __RNvMsb_NtNtNtCsltZDfVD1VKL_5alloc11collections5btree8navigateINtB5_13LazyLeafRangeNtNtNtB7_4node6marker5DyingNtNtCs5GBHJSLTkJw_3syn8lifetime8LifetimeNtNtB7_7set_val9SetValZSTE10take_frontCs39Y7jx17GSw_12serde_derive, symObjAddr: 0x6430, symBinAddr: 0x87D44, symSize: 0x138 }
  - { offsetInCU: 0x1CD1B, offset: 0xD340E, size: 0x8, addend: 0x0, symName: __RNvMsc_NtNtNtCsltZDfVD1VKL_5alloc11collections5btree8navigateINtB5_13LazyLeafRangeNtNtNtB7_4node6marker5DyingNtNtBb_6string6StringNtNtB7_7set_val9SetValZSTE10init_frontCs39Y7jx17GSw_12serde_derive, symObjAddr: 0x6568, symBinAddr: 0x87E7C, symSize: 0x10C }
  - { offsetInCU: 0x1CDD6, offset: 0xD34C9, size: 0x8, addend: 0x0, symName: __RNvMsc_NtNtNtCsltZDfVD1VKL_5alloc11collections5btree8navigateINtB5_13LazyLeafRangeNtNtNtB7_4node6marker5DyingNtNtCs5GBHJSLTkJw_3syn8lifetime8LifetimeNtNtB7_7set_val9SetValZSTE10init_frontCs39Y7jx17GSw_12serde_derive, symObjAddr: 0x6674, symBinAddr: 0x87F88, symSize: 0x10C }
  - { offsetInCU: 0x1CEAB, offset: 0xD359E, size: 0x8, addend: 0x0, symName: __RNvMsc_NtNtNtCsltZDfVD1VKL_5alloc11collections5btree8navigateINtB5_13LazyLeafRangeNtNtNtB7_4node6marker5ImmutNtNtBb_6string6StringNtNtB7_7set_val9SetValZSTE10init_frontCs39Y7jx17GSw_12serde_derive, symObjAddr: 0x6780, symBinAddr: 0x88094, symSize: 0x10C }
  - { offsetInCU: 0x1CF80, offset: 0xD3673, size: 0x8, addend: 0x0, symName: __RNvMsc_NtNtNtCsltZDfVD1VKL_5alloc11collections5btree8navigateINtB5_13LazyLeafRangeNtNtNtB7_4node6marker5ImmutNtNtCs5GBHJSLTkJw_3syn8lifetime8LifetimeNtNtB7_7set_val9SetValZSTE10init_frontCs39Y7jx17GSw_12serde_derive, symObjAddr: 0x688C, symBinAddr: 0x881A0, symSize: 0x10C }
  - { offsetInCU: 0x1D1A5, offset: 0xD3898, size: 0x8, addend: 0x0, symName: __RNvXNtCshYXbwB3frNp_5quote9to_tokensRNtCs5CKmLD4IrHZ_11proc_macro211TokenStreamNtB2_8ToTokens9to_tokensCs39Y7jx17GSw_12serde_derive, symObjAddr: 0x70E8, symBinAddr: 0x889FC, symSize: 0x40 }
  - { offsetInCU: 0x1D1E4, offset: 0xD38D7, size: 0x8, addend: 0x0, symName: __RNvXNtCshYXbwB3frNp_5quote9to_tokensRNtCs5CKmLD4IrHZ_11proc_macro25IdentNtB2_8ToTokens9to_tokensCs39Y7jx17GSw_12serde_derive, symObjAddr: 0x7128, symBinAddr: 0x88A3C, symSize: 0x40 }
  - { offsetInCU: 0x1D223, offset: 0xD3916, size: 0x8, addend: 0x0, symName: __RNvXNtCshYXbwB3frNp_5quote9to_tokensRRNtCs5CKmLD4IrHZ_11proc_macro25IdentNtB2_8ToTokens9to_tokensCs39Y7jx17GSw_12serde_derive, symObjAddr: 0x7168, symBinAddr: 0x88A7C, symSize: 0x40 }
  - { offsetInCU: 0x1D268, offset: 0xD395B, size: 0x8, addend: 0x0, symName: __RNvYRNtCs5CKmLD4IrHZ_11proc_macro25IdentNtNtCshYXbwB3frNp_5quote9to_tokens8ToTokens15to_token_streamCs39Y7jx17GSw_12serde_derive, symObjAddr: 0x9034, symBinAddr: 0x8A948, symSize: 0x8C }
  - { offsetInCU: 0x1D2B2, offset: 0xD39A5, size: 0x8, addend: 0x0, symName: __RNvYRNtCs5CKmLD4IrHZ_11proc_macro25IdentNtNtCshYXbwB3frNp_5quote9to_tokens8ToTokens17into_token_streamCs39Y7jx17GSw_12serde_derive, symObjAddr: 0x90C0, symBinAddr: 0x8A9D4, symSize: 0x54 }
  - { offsetInCU: 0x1D2E7, offset: 0xD39DA, size: 0x8, addend: 0x0, symName: __RNvYRNtNtCs5GBHJSLTkJw_3syn8lifetime8LifetimeNtNtCshYXbwB3frNp_5quote9to_tokens8ToTokens15to_token_streamCs39Y7jx17GSw_12serde_derive, symObjAddr: 0x9114, symBinAddr: 0x8AA28, symSize: 0x8C }
  - { offsetInCU: 0x1D331, offset: 0xD3A24, size: 0x8, addend: 0x0, symName: __RNvYRNtNtCs5GBHJSLTkJw_3syn8lifetime8LifetimeNtNtCshYXbwB3frNp_5quote9to_tokens8ToTokens17into_token_streamCs39Y7jx17GSw_12serde_derive, symObjAddr: 0x91A0, symBinAddr: 0x8AAB4, symSize: 0x54 }
  - { offsetInCU: 0x1D377, offset: 0xD3A6A, size: 0x8, addend: 0x0, symName: __RNvXs2_NtNtCshYXbwB3frNp_5quote9___private3extSNtCs5CKmLD4IrHZ_11proc_macro211TokenStreamNtB5_16RepAsIteratorExt15quote_into_iterCs39Y7jx17GSw_12serde_derive, symObjAddr: 0x7614, symBinAddr: 0x88F28, symSize: 0x48 }
  - { offsetInCU: 0x1D3B2, offset: 0xD3AA5, size: 0x8, addend: 0x0, symName: __RNvYNtCs5CKmLD4IrHZ_11proc_macro211TokenStreamNtNtNtCshYXbwB3frNp_5quote9___private3ext14RepToTokensExt15quote_into_iterCs39Y7jx17GSw_12serde_derive, symObjAddr: 0x8A0C, symBinAddr: 0x8A320, symSize: 0x2C }
  - { offsetInCU: 0x1D3E7, offset: 0xD3ADA, size: 0x8, addend: 0x0, symName: __RNvYNtCs5CKmLD4IrHZ_11proc_macro211TokenStreamNtNtNtCshYXbwB3frNp_5quote9___private3ext14RepToTokensExt4nextCs39Y7jx17GSw_12serde_derive, symObjAddr: 0x8A38, symBinAddr: 0x8A34C, symSize: 0x2C }
  - { offsetInCU: 0x1E, offset: 0xD6692, size: 0x8, addend: 0x0, symName: __RINvMs1_NtCs8wgAxfFqjdh_9hashbrown3mapINtB6_7HashMapNtCs5CKmLD4IrHZ_11proc_macro25IdentuNtNtNtCsrEL4bNOiaA_3std4hash6random11RandomStateE12contains_keyBO_ECs39Y7jx17GSw_12serde_derive, symObjAddr: 0x0, symBinAddr: 0x8D9F0, symSize: 0xC0 }
  - { offsetInCU: 0x126, offset: 0xD679A, size: 0x8, addend: 0x0, symName: __RINvNtNtNtCsiy7sGCDxEIm_10proc_macro6bridge6client5state3setINtNtCs5fsojcNSbun_4core6option6OptionNtB4_11TokenStreamENCNCINvB4_10run_clientB1y_BW_NCNCINvMs7_B4_INtB4_6ClientNtB8_11TokenStreamB2L_E7expand1NvCs39Y7jx17GSw_12serde_derive16derive_serializeE00E00EB3i_, symObjAddr: 0x3F8, symBinAddr: 0x8DDE8, symSize: 0xE0 }
  - { offsetInCU: 0x1EC, offset: 0xD6860, size: 0x8, addend: 0x0, symName: __RINvNtNtNtCsiy7sGCDxEIm_10proc_macro6bridge6client5state3setINtNtCs5fsojcNSbun_4core6option6OptionNtB4_11TokenStreamENCNCINvB4_10run_clientB1y_BW_NCNCINvMs7_B4_INtB4_6ClientNtB8_11TokenStreamB2L_E7expand1NvCs39Y7jx17GSw_12serde_derive18derive_deserializeE00E00EB3i_, symObjAddr: 0x4D8, symBinAddr: 0x8DEC8, symSize: 0xE0 }
  - { offsetInCU: 0x2B7, offset: 0xD692B, size: 0x8, addend: 0x0, symName: __RNvNvNtNtNtCsiy7sGCDxEIm_10proc_macro6bridge6client5state12BRIDGE_STATE7___getitCs39Y7jx17GSw_12serde_derive, symObjAddr: 0x3C5C, symBinAddr: 0x9164C, symSize: 0x134 }
  - { offsetInCU: 0x909, offset: 0xD6F7D, size: 0x8, addend: 0x0, symName: __RNvXs1J_NtCsiy7sGCDxEIm_10proc_macro6bridgeINtB6_11ExpnGlobalsNtNtB6_6client4SpanEINtNtB6_3rpc9DecodeMutuE6decodeCs39Y7jx17GSw_12serde_derive, symObjAddr: 0x5F54, symBinAddr: 0x93944, symSize: 0xB0 }
  - { offsetInCU: 0x960, offset: 0xD6FD4, size: 0x8, addend: 0x0, symName: __RNvXs9_NtNtCsiy7sGCDxEIm_10proc_macro6bridge3rpcTINtB7_11ExpnGlobalsNtNtB7_6client4SpanENtB16_11TokenStreamEINtB5_9DecodeMutuE6decodeCs39Y7jx17GSw_12serde_derive, symObjAddr: 0x704C, symBinAddr: 0x94A3C, symSize: 0x84 }
  - { offsetInCU: 0x8570, offset: 0xDEBE4, size: 0x8, addend: 0x0, symName: __RINvNtCs5fsojcNSbun_4core3mem7replaceINtNtCs5GBHJSLTkJw_3syn10punctuated10PunctuatedNtNtBE_4path11PathSegmentNtNtBE_5token7PathSepEECs39Y7jx17GSw_12serde_derive, symObjAddr: 0x2F0, symBinAddr: 0x8DCE0, symSize: 0x34 }
  - { offsetInCU: 0x8634, offset: 0xDECA8, size: 0x8, addend: 0x0, symName: __RINvNtCs5fsojcNSbun_4core3mem7replaceNtNtCs5GBHJSLTkJw_3syn4path4PathECs39Y7jx17GSw_12serde_derive, symObjAddr: 0x324, symBinAddr: 0x8DD14, symSize: 0x5C }
  - { offsetInCU: 0x8D37, offset: 0xDF3AB, size: 0x8, addend: 0x0, symName: __RNCINvNtNtNtCs5fsojcNSbun_4core4iter8adapters3map8map_foldNtCs5CKmLD4IrHZ_11proc_macro25IdentTBU_uEuNCINvXs9_NtCs8wgAxfFqjdh_9hashbrown3setINtB1J_7HashSetBU_NtNtNtCsrEL4bNOiaA_3std4hash6random11RandomStateEINtNtNtB8_6traits7collect6ExtendBU_E6extendINtB4_3MapNtNtCs5GBHJSLTkJw_3syn8generics10TypeParamsNCNvNtCs39Y7jx17GSw_12serde_derive5bound10with_bound0EE0NCINvNvNtNtB3n_8iterator8Iterator8for_each4callB1t_NCINvXs1u_NtB1L_3mapINtB6J_7HashMapBU_uB2v_EIB3j_B1t_E6extendIB40_B3Z_B1A_EE0E0E0B4W_, symObjAddr: 0x2100, symBinAddr: 0x8FAF0, symSize: 0x9C }
  - { offsetInCU: 0x8DBC, offset: 0xDF430, size: 0x8, addend: 0x0, symName: __RNCINvNtNtNtCs5fsojcNSbun_4core4iter8adapters3map8map_foldNtCs5CKmLD4IrHZ_11proc_macro29TokenTreeBU_uNCNvNtNtCs39Y7jx17GSw_12serde_derive9internals6respan6respan0NCIB2_BU_NtCsiy7sGCDxEIm_10proc_macro9TokenTreeuNvNtBW_3imp19into_compiler_tokenNCINvNvNtNtNtB8_6traits8iterator8Iterator8for_each4callB2J_NCINvXsh_B2L_NtB2L_11TokenStreamINtNtB43_7collect12FromIteratorB2J_E9from_iterINtB4_3MapIB66_NtNtBW_12token_stream8IntoIterB1B_EB3m_EE0E0E0E0B1J_, symObjAddr: 0x219C, symBinAddr: 0x8FB8C, symSize: 0x9C }
  - { offsetInCU: 0x8E42, offset: 0xDF4B6, size: 0x8, addend: 0x0, symName: __RNCINvNtNtNtCs5fsojcNSbun_4core4iter8adapters3map8map_foldNtCs5CKmLD4IrHZ_11proc_macro29TokenTreeBU_uNCNvNtNtCs39Y7jx17GSw_12serde_derive9internals6respan6respan0NCINvNvNtNtNtB8_6traits8iterator8Iterator8for_each4callBU_NCINvXsb_NtBW_8fallbackNtB3F_11TokenStreamINtNtB2L_7collect6ExtendBU_E6extendINtB4_3MapNtNtBW_12token_stream8IntoIterB1B_EE0E0E0B1J_, symObjAddr: 0x2238, symBinAddr: 0x8FC28, symSize: 0x9C }
  - { offsetInCU: 0x8EC8, offset: 0xDF53C, size: 0x8, addend: 0x0, symName: __RNCINvNtNtNtCs5fsojcNSbun_4core4iter8adapters3map8map_foldNtCs5CKmLD4IrHZ_11proc_macro29TokenTreeNtCsiy7sGCDxEIm_10proc_macro9TokenTreeuNvNtBW_3imp19into_compiler_tokenNCINvNvNtNtNtB8_6traits8iterator8Iterator8for_each4callB1x_NCINvXsh_B1z_NtB1z_11TokenStreamINtNtB2R_7collect12FromIteratorB1x_E9from_iterINtB4_3MapIB4U_NtNtBW_12token_stream8IntoIterNCNvNtNtCs39Y7jx17GSw_12serde_derive9internals6respan6respan0EB2a_EE0E0E0B5K_, symObjAddr: 0x22D4, symBinAddr: 0x8FCC4, symSize: 0x9C }
  - { offsetInCU: 0x8F4D, offset: 0xDF5C1, size: 0x8, addend: 0x0, symName: __RNCINvNtNtNtCs5fsojcNSbun_4core4iter8adapters3map8map_foldRNtNtCs5GBHJSLTkJw_3syn8generics9TypeParamNtCs5CKmLD4IrHZ_11proc_macro25IdentuNCNvNtCs39Y7jx17GSw_12serde_derive5bound10with_bound0NCIB2_B1A_TB1A_uEuNCINvXs9_NtCs8wgAxfFqjdh_9hashbrown3setINtB3s_7HashSetB1A_NtNtNtCsrEL4bNOiaA_3std4hash6random11RandomStateEINtNtNtB8_6traits7collect6ExtendB1A_E6extendINtB4_3MapNtBX_10TypeParamsB2a_EE0NCINvNvNtNtB57_8iterator8Iterator8for_each4callB3b_NCINvXs1u_NtB3u_3mapINtB7h_7HashMapB1A_uB4f_EIB53_B3b_E6extendIB5L_B5K_B3j_EE0E0E0E0B2g_, symObjAddr: 0x2370, symBinAddr: 0x8FD60, symSize: 0x94 }
  - { offsetInCU: 0x8FD1, offset: 0xDF645, size: 0x8, addend: 0x0, symName: __RNCINvNtNtNtCs5fsojcNSbun_4core4iter8adapters3map8map_foldRNtNtCs5GBHJSLTkJw_3syn8lifetime8LifetimeBV_uNvYBV_NtNtBa_5clone5Clone5cloneNCINvNvNtNtNtB8_6traits8iterator8Iterator8for_each4callBV_NCINvXsl_NtNtNtCsltZDfVD1VKL_5alloc11collections5btree3setINtB3d_8BTreeSetBV_EINtNtB2j_7collect6ExtendBV_E6extendINtNtB6_6cloned6ClonedINtB3d_4IterBV_EEE0E0E0Cs39Y7jx17GSw_12serde_derive, symObjAddr: 0x2404, symBinAddr: 0x8FDF4, symSize: 0x9C }
  - { offsetInCU: 0x9055, offset: 0xDF6C9, size: 0x8, addend: 0x0, symName: __RNCINvNtNtNtCs5fsojcNSbun_4core4iter8adapters3map8map_foldRNtNtCs5GBHJSLTkJw_3syn8lifetime8LifetimeBV_uNvYBV_NtNtBa_5clone5Clone5cloneNCINvNvNtNtNtB8_6traits8iterator8Iterator8for_each4callBV_NCINvXsl_NtNtNtCsltZDfVD1VKL_5alloc11collections5btree3setINtB3d_8BTreeSetBV_EINtNtB2j_7collect6ExtendBV_E6extendINtNtB6_6cloned6ClonedINtNtBa_6option4IterBV_EEE0E0E0Cs39Y7jx17GSw_12serde_derive, symObjAddr: 0x24A0, symBinAddr: 0x8FE90, symSize: 0x9C }
  - { offsetInCU: 0x90D9, offset: 0xDF74D, size: 0x8, addend: 0x0, symName: __RNCINvNtNtNtCs5fsojcNSbun_4core4iter8adapters3map8map_foldRNtNtNtCs39Y7jx17GSw_12serde_derive9internals3ast5FieldNtCs5CKmLD4IrHZ_11proc_macro211TokenStreamB1N_NCNvNtB11_3ser23serialize_struct_as_maps_0NCB2z_s0_0E0B11_, symObjAddr: 0x253C, symBinAddr: 0x8FF2C, symSize: 0xCC }
